 Lithtech

 Timestamp is 44175499 (Tue Mar 14 15:41:13 2006)

 Preferred load address is 00400000

 Start         Length     Name                   Class
 0001:00000000 001f251aH .text                   CODE
 0001:001f2520 00006ea5H .text$x                 CODE
 0001:001f93d0 00008d89H .text$yc                CODE
 0001:00202160 00002014H .text$yd                CODE
 0002:00000000 000004b8H .idata$5                DATA
 0002:000004c0 0002ea04H .rdata                  DATA
 0002:0002eec4 00000059H .rdata$debug            DATA
 0002:0002ef20 00000044H .rdata$r                DATA
 0002:0002ef64 00000004H .rtc$IAA                DATA
 0002:0002ef68 00000004H .rtc$IZZ                DATA
 0002:0002ef6c 00000004H .rtc$TAA                DATA
 0002:0002ef70 00000004H .rtc$TZZ                DATA
 0002:0002ef74 000134b4H .xdata$x                DATA
 0002:00042428 00000000H ATL$__a                 DATA
 0002:00042428 00000000H ATL$__z                 DATA
 0002:00042428 000000dcH .idata$2                DATA
 0002:00042504 00000014H .idata$3                DATA
 0002:00042518 000004b8H .idata$4                DATA
 0002:000429d0 00001284H .idata$6                DATA
 0002:00043c60 0000006aH .edata                  DATA
 0003:00000000 00000004H .CRT$XCA                DATA
 0003:00000004 00000004H .CRT$XCAA               DATA
 0003:00000008 00000004H .CRT$XCL                DATA
 0003:0000000c 00000ea0H .CRT$XCU                DATA
 0003:00000eac 00000004H .CRT$XCZ                DATA
 0003:00000eb0 00000004H .CRT$XIA                DATA
 0003:00000eb4 00000004H .CRT$XIZ                DATA
 0003:00001000 00024d94H .data                   DATA
 0003:00025d98 0001d454H .bss                    DATA
 0004:00000000 00000af0H .rsrc$01                DATA
 0004:00000af0 00004788H .rsrc$02                DATA

  Address         Publics by Value              Rva+Base     Lib:Object

 0000:00000000       ___safe_se_handler_table   00000000     <absolute>
 0000:00000000       ___safe_se_handler_count   00000000     <absolute>
 0000:00000000       __except_list              00000000     <absolute>
 0000:00009876       __fltused                  00009876     <absolute>
 0000:00009876       __ldused                   00009876     <absolute>
 0000:00000000       ___ImageBase               00400000     <linker-defined>
 0001:00000000       ??_H@YGXPAXIHP6EPAX0@Z@Z   00401000 f i controlfilemgr.obj
 0001:00000030       ?FileOpen@CControlFileMgr@@UAEHPBD@Z 00401030 f   controlfilemgr.obj
 0001:00000060       ?FileClose@CControlFileMgr@@UAEXXZ 00401060 f   controlfilemgr.obj
 0001:00000070       ?FileGetChar@CControlFileMgr@@UAEHXZ 00401070 f   controlfilemgr.obj
 0001:00000080       ?FileEOF@CControlFileMgr@@UAEHXZ 00401080 f   controlfilemgr.obj
 0001:00000090       ?InsertLast@?$CLithBaseList@VCControlFileSection@@@@QAEXPAVCControlFileSection@@@Z 00401090 f i controlfilemgr.obj
 0001:00000090       ?InsertLast@CLTBaseList@@QAEXPAVCBaseListItem@@@Z 00401090 f i Lib_Lith:baselist.obj
 0001:00000090       ?InsertLast@?$CLithBaseList@VCControlFileKey@@@@QAEXPAVCControlFileKey@@@Z 00401090 f i controlfilemgr.obj
 0001:000000c0       ?GetVal@CControlFileWord@@QAEHPADH@Z 004010c0 f   controlfilemgr.obj
 0001:00000120       ?GetVal@CControlFileWord@@QAEHAAH@Z 00401120 f   controlfilemgr.obj
 0001:00000140       ?GetAttributes@CUIFont_Impl@@UAEIXZ 00401140 f   Lib_UI:cuibitmapfont.obj
 0001:00000140       ?GetCurrentSkin@CUIWidgetManager@@UAEPAVSharedTexture@@XZ 00401140 f   Lib_UI:cuiwidgetmanager.obj
 0001:00000140       ?NumWorldModels@CWorldClientBSP@@UAEIXZ 00401140 f   world_client_bsp.obj
 0001:00000140       ?GetFirstWord@CControlFileKey@@QAEPAVCControlFileWord@@XZ 00401140 f   controlfilemgr.obj
 0001:00000150       ?NextWithSameName@CControlFileKey@@QAEPAV1@XZ 00401150 f   controlfilemgr.obj
 0001:00000190       ?Find@CControlFileKeyList@@QAEPAVCControlFileKey@@PBD@Z 00401190 f   controlfilemgr.obj
 0001:00000190       ?Find@CControlFileSectionList@@QAEPAVCControlFileSection@@PBD@Z 00401190 f   controlfilemgr.obj
 0001:000001d0       ?GetKey@CControlFileMgr@@QAEPAVCControlFileKey@@PBD0@Z 004011d0 f   controlfilemgr.obj
 0001:00000210       ?GetKeyVal@CControlFileMgr@@QAEHPBD0AAH@Z 00401210 f   controlfilemgr.obj
 0001:00000270       ?GetKeyVal@CControlFileMgr@@QAEHPBD0AAM@Z 00401270 f   controlfilemgr.obj
 0001:000002d0       ?GetKeyVal@CControlFileMgr@@QAEHPBD0PADH@Z 004012d0 f   controlfilemgr.obj
 0001:00000330       ?IsDefined@CControlFileMgr@@AAEHPBD@Z 00401330 f   controlfilemgr.obj
 0001:00000380       ??1?$CLithSimpAry@D@@QAE@XZ 00401380 f i controlfilemgr.obj
 0001:000003a0       ?Alloc@?$CLithSimpAry@D@@QAEXI@Z 004013a0 f i controlfilemgr.obj
 0001:000003d0       ??0CControlFileMgr@@QAE@XZ 004013d0 f   controlfilemgr.obj
 0001:000003f0       ??1CControlFileKey@@QAE@XZ 004013f0 f i controlfilemgr.obj
 0001:000003f0       ??1CControlFileWord@@QAE@XZ 004013f0 f i controlfilemgr.obj
 0001:000003f0       ??1CControlFileSection@@QAE@XZ 004013f0 f i controlfilemgr.obj
 0001:000003f0       ??1CControlFileDefine@@QAE@XZ 004013f0 f i controlfilemgr.obj
 0001:00000410       ?AddDefine@CControlFileMgr@@QAEHPBD@Z 00401410 f   controlfilemgr.obj
 0001:00000480       ?ProcessFile@CControlFileMgr@@AAEHPBD@Z 00401480 f   controlfilemgr.obj
 0001:00000b90       ?Term@CControlFileMgr@@QAEXXZ 00401b90 f   controlfilemgr.obj
 0001:00000cb0       ?ClearDefines@CControlFileMgr@@QAEXXZ 00401cb0 f   controlfilemgr.obj
 0001:00000d00       ??1CControlFileMgr@@QAE@XZ 00401d00 f   controlfilemgr.obj
 0001:00000d90       ?Init@CControlFileMgr@@QAEHPBD0@Z 00401d90 f   controlfilemgr.obj
 0001:00000ee0       ?trk_Reset@@YAXPAVLTAnimTracker@@@Z 00401ee0 f   animtracker.obj
 0001:00000f10       ?trk_Init@@YAXPAVLTAnimTracker@@PAVModel@@I@Z 00401f10 f   animtracker.obj
 0001:00001060       ?trk_SetAtKeyFrame@@YAXPAVLTAnimTracker@@I@Z 00402060 f   animtracker.obj
 0001:00001150       ?IsValid@AnimTimeRef@@QAE_NXZ 00402150 f   animtracker.obj
 0001:000011c0       ?trk_IsStopped@@YA_NPAVLTAnimTracker@@@Z 004021c0 f   animtracker.obj
 0001:00001210       ?trk_SetCurAnim@@YA_NPAVLTAnimTracker@@I_N@Z 00402210 f   animtracker.obj
 0001:00001290       ?trk_UpdatePositionInterpolant@@YAXPAVLTAnimTracker@@@Z 00402290 f i animtracker.obj
 0001:000013a0       ?trk_ScanToKeyFrame@@YAXPAVLTAnimTracker@@I_N@Z 004023a0 f   animtracker.obj
 0001:00001560       ?trk_Update@@YAXPAVLTAnimTracker@@I@Z 00402560 f   animtracker.obj
 0001:000015a0       ?trk_SetCurTime@@YAXPAVLTAnimTracker@@I_N@Z 004025a0 f   animtracker.obj
 0001:000015e0       ??1_Node@?$_List_nod@V?$basic_string@DU?$char_traits@D@std@@V?$allocator@D@2@@std@@V?$allocator@V?$basic_string@DU?$char_traits@D@std@@V?$allocator@D@2@@std@@@2@@std@@QAE@XZ 004025e0 f i LIB_D3DRender:LTEffectImpl.obj
 0001:000015e0       ??1WinBind@@QAE@XZ         004025e0 f i bindmgr.obj
 0001:000015f0       ?bm_GetInstanceHandle@@YAIPAVCBindModuleType@@PAPAX@Z 004025f0 f   bindmgr.obj
 0001:00001640       ?bm_GetFunctionPointer@@YAPAXPAVCBindModuleType@@PBD@Z 00402640 f   bindmgr.obj
 0001:00001650       ?bm_CreateHandleBinding@@YAPAVCBindModuleType@@PBDPAX@Z 00402650 f   bindmgr.obj
 0001:000016e0       ?bm_BindModule@@YAHPBD_NAAPAVCBindModuleType@@@Z 004026e0 f   bindmgr.obj
 0001:00001750       ?bm_UnbindModule@@YAXPAVCBindModuleType@@@Z 00402750 f   bindmgr.obj
 0001:00001810       ?cb_LoadModule@@YAHPBD_NAAVClassBindModule@@PAH@Z 00402810 f   classbind.obj
 0001:000018b0       ?cb_UnloadModule@@YAXAAVClassBindModule@@@Z 004028b0 f   classbind.obj
 0001:000018d0       ?cb_GetNumClassDefs@@YAHPAVClassBindModule@@@Z 004028d0 f   classbind.obj
 0001:000018e0       ?cb_GetClassDefs@@YAPAPAUClassDef@@PAVClassBindModule@@@Z 004028e0 f   classbind.obj
 0001:000018f0       ?cb_FindClass@@YAPAUClassDef@@PAVClassBindModule@@PBD@Z 004028f0 f   classbind.obj
 0001:00001960       ?cb_IsClassFlagSet@@YAPAUClassDef@@PAVClassBindModule@@PAU1@I@Z 00402960 f   classbind.obj
 0001:00001980       ??0?$CAPIHolder@VILTServer@@@@QAE@PBDAAPAVILTServer@@H@Z 00402980 f i classbind.obj
 0001:000019f0       ??1?$CAPIHolder@VILTServer@@@@UAE@XZ 004029f0 f i classbind.obj
 0001:00001a60       ??_E?$CAPIHolder@VILTServer@@@@UAEPAXI@Z 00402a60 f i classbind.obj
 0001:00001a60       ??_G?$CAPIHolder@VILTServer@@@@UAEPAXI@Z 00402a60 f i classbind.obj
 0001:00001a80       ??1logic_error@std@@UAE@XZ 00402a80 f i classmgr.obj
 0001:00001ae0       ?what@logic_error@std@@UBEPBDXZ 00402ae0 f i classmgr.obj
 0001:00001af0       ??_Elogic_error@std@@UAEPAXI@Z 00402af0 f i classmgr.obj
 0001:00001af0       ??_Glogic_error@std@@UAEPAXI@Z 00402af0 f i classmgr.obj
 0001:00001b10       ??_Glength_error@std@@UAEPAXI@Z 00402b10 f i classmgr.obj
 0001:00001b10       ??_Elength_error@std@@UAEPAXI@Z 00402b10 f i classmgr.obj
 0001:00001b30       ??1length_error@std@@UAE@XZ 00402b30 f i classmgr.obj
 0001:00001b40       ?LTStrCpy@@YAXPADPBDI@Z    00402b40 f i classmgr.obj
 0001:00001b80       ?Clear@ObjectCreateStruct@@QAEXXZ 00402b80 f i classmgr.obj
 0001:00001c30       ??0CClassMgr@@QAE@XZ       00402c30 f   classmgr.obj
 0001:00001c60       ?Init@CClassMgr@@QAEIXZ    00402c60 f   classmgr.obj
 0001:00001c90       ?FindClassData@CClassMgr@@QAEPAVCClassData@@PBD@Z 00402c90 f   classmgr.obj
 0001:00001d70       ?_Xlen@?$vector@PAUCObjectTickData@@V?$allocator@PAUCObjectTickData@@@std@@@std@@IBEXXZ 00402d70 f i classmgr.obj
 0001:00001df0       ??0logic_error@std@@QAE@ABV01@@Z 00402df0 f i classmgr.obj
 0001:00001e50       ??0?$CAPIHolder@VIServerShell@@@@QAE@PBDAAPAVIServerShell@@H@Z 00402e50 f i classmgr.obj
 0001:00001ec0       ??1?$CAPIHolder@VIServerShell@@@@UAE@XZ 00402ec0 f i classmgr.obj
 0001:00001f30       ??_E?$CAPIHolder@VIServerShell@@@@UAEPAXI@Z 00402f30 f i classmgr.obj
 0001:00001f30       ??_G?$CAPIHolder@VIServerShell@@@@UAEPAXI@Z 00402f30 f i classmgr.obj
 0001:00001f50       ??0ObjectCreateStruct@@QAE@XZ 00402f50 f i classmgr.obj
 0001:00001f90       ?IsDisplayingObjectTicks@CClassData@@IAEIXZ 00402f90 f   classmgr.obj
 0001:00002010       ?DisplayTicks@CClassData@@QAEXAAI000@Z 00403010 f   classmgr.obj
 0001:000020e0       ?DisplayTickCounts@CClassMgr@@IAEXXZ 004030e0 f   classmgr.obj
 0001:000022b0       ??1ObjectCreateStruct@@QAE@XZ 004032b0 f i classmgr.obj
 0001:000022f0       ??0length_error@std@@QAE@ABV01@@Z 004032f0 f i classmgr.obj
 0001:00002310       ??$copy_backward@PAPAVCTextureScriptNode@@PAPAV1@@std@@YAPAPAVCTextureScriptNode@@PAPAV1@00@Z 00403310 f i LIB_D3DRender:texturescriptmgr.obj
 0001:00002310       ??$copy_backward@PAPAEPAPAE@std@@YAPAPAEPAPAE00@Z 00403310 f i world_blind_object_data.obj
 0001:00002310       ??$copy_backward@PAPAVCParticleBlocker@@PAPAV1@@std@@YAPAPAVCParticleBlocker@@PAPAV1@00@Z 00403310 f i world_particle_blocker_data.obj
 0001:00002310       ??$copy_backward@PAPAVCTextureScriptInstanceNode@@PAPAV1@@std@@YAPAPAVCTextureScriptInstanceNode@@PAPAV1@00@Z 00403310 f i LIB_D3DRender:texturescriptmgr.obj
 0001:00002310       ??$copy_backward@PAPAUCObjectTickData@@PAPAU1@@std@@YAPAPAUCObjectTickData@@PAPAU1@00@Z 00403310 f i classmgr.obj
 0001:00002310       ??$copy_backward@PAPAVCD3D_RenderBlock@@PAPAV1@@std@@YAPAPAVCD3D_RenderBlock@@PAPAV1@00@Z 00403310 f i LIB_D3DRender:d3d_renderworld.obj
 0001:00002310       ??$copy_backward@PAPAVDynamicLight@@PAPAV1@@std@@YAPAPAVDynamicLight@@PAPAV1@00@Z 00403310 f i LIB_D3DRender:d3d_renderblock.obj
 0001:00002310       ??$copy_backward@PAPAVCCustomFontFile@@PAPAV1@@std@@YAPAPAVCCustomFontFile@@PAPAV1@00@Z 00403310 f i customfontfilemgr.obj
 0001:00002310       ??$copy_backward@PAPAV?$vector@USSubLM@SRBLightGroup@@V?$allocator@USSubLM@SRBLightGroup@@@std@@@std@@PAPAV12@@std@@YAPAPAV?$vector@USSubLM@SRBLightGroup@@V?$allocator@USSubLM@SRBLightGroup@@@std@@@0@PAPAV10@00@Z 00403310 f i LIB_D3DRender:d3d_renderblock.obj
 0001:00002310       ??$copy_backward@PAHPAH@std@@YAPAHPAH00@Z 00403310 f i world_blind_object_data.obj
 0001:00002310       ??$copy_backward@PAPAVD3DShadowTexture@@PAPAV1@@std@@YAPAPAVD3DShadowTexture@@PAPAV1@00@Z 00403310 f i LIB_D3DRender:rendershadowlist.obj
 0001:00002310       ??$copy_backward@PAIPAI@std@@YAPAIPAI00@Z 00403310 f i world_blind_object_data.obj
 0001:00002450       ?FindObjectTickData@CClassData@@IAEPAUCObjectTickData@@PBD@Z 00403450 f   classmgr.obj
 0001:000024b0       ?CalculateTotalObjectFrameTicks@CClassData@@IAEXXZ 004034b0 f   classmgr.obj
 0001:000024f0       ?DisplayObjectTicks@CClassData@@QAEXXZ 004034f0 f   classmgr.obj
 0001:00002630       ?DisplayClassTickCounts@CClassMgr@@IAEXPBD@Z 00403630 f   classmgr.obj
 0001:00002790       ?CalculateVerboseTickInfo@CClassMgr@@IAEXXZ 00403790 f   classmgr.obj
 0001:000027f0       ?_Insert_n@?$vector@PAUCObjectTickData@@V?$allocator@PAUCObjectTickData@@@std@@@std@@IAEXViterator@12@IABQAUCObjectTickData@@@Z 004037f0 f i classmgr.obj
 0001:000029e0       ??0CClassData@@QAE@XZ      004039e0 f   classmgr.obj
 0001:00002a10       ?DestroyObjectTickData@CClassData@@IAEXXZ 00403a10 f   classmgr.obj
 0001:00002a60       ?push_back@?$vector@PAUCObjectTickData@@V?$allocator@PAUCObjectTickData@@@std@@@std@@QAEXABQAUCObjectTickData@@@Z 00403a60 f i classmgr.obj
 0001:00002ab0       ??1CClassData@@QAE@XZ      00403ab0 f   classmgr.obj
 0001:00002ae0       ?UpdateObjectDataTicks@CClassData@@IAEXPAVLTObject@@I@Z 00403ae0 f   classmgr.obj
 0001:00002be0       ?ClearTickCounts@CClassMgr@@QAEXXZ 00403be0 f   classmgr.obj
 0001:00002cf0       ?CalculateSimpleTickInfo@CClassMgr@@IAEXXZ 00403cf0 f   classmgr.obj
 0001:00002f80       ?LoadServerBinaries@@YAIPAVCClassMgr@@@Z 00403f80 f   classmgr.obj
 0001:00003080       ?UpdateTicks@CClassData@@QAEXPAVLTObject@@I@Z 00404080 f   classmgr.obj
 0001:000030c0       ?Term@CClassMgr@@QAEXXZ    004040c0 f   classmgr.obj
 0001:00003160       ?ShowTickCounts@CClassMgr@@QAEXXZ 00404160 f   classmgr.obj
 0001:000031e0       ??1CClassMgr@@QAE@XZ       004041e0 f   classmgr.obj
 0001:000031f0       ?LTSNPrintF@@YAXPADIPBDZZ  004041f0 f i client.obj
 0001:000035b0       ?InsertCommandFile@@YAPADPBD0II@Z 004045b0 f   client.obj
 0001:00003710       ?SetupArgs@@YA_NPBD@Z      00404710 f   client.obj
 0001:00003940       ??0?$CAPIHolder@VICommandLineArgs@@@@QAE@PBDAAPAVICommandLineArgs@@H@Z 00404940 f i client.obj
 0001:000039b0       ??1?$CAPIHolder@VICommandLineArgs@@@@UAE@XZ 004049b0 f i client.obj
 0001:00003a20       ??0?$CAPIHolder@VIClientShell@@@@QAE@PBDAAPAVIClientShell@@H@Z 00404a20 f i client.obj
 0001:00003a90       ??1?$CAPIHolder@VIClientShell@@@@UAE@XZ 00404a90 f i client.obj
 0001:00003b00       ??0?$CAPIHolder@VILTCursor@@@@QAE@PBDAAPAVILTCursor@@H@Z 00404b00 f i client.obj
 0001:00003b70       ??1?$CAPIHolder@VILTCursor@@@@UAE@XZ 00404b70 f i client.obj
 0001:00003be0       ??_E?$CAPIHolder@VICommandLineArgs@@@@UAEPAXI@Z 00404be0 f i client.obj
 0001:00003be0       ??_G?$CAPIHolder@VICommandLineArgs@@@@UAEPAXI@Z 00404be0 f i client.obj
 0001:00003c00       ??_G?$CAPIHolder@VIClientShell@@@@UAEPAXI@Z 00404c00 f i client.obj
 0001:00003c00       ??_E?$CAPIHolder@VIClientShell@@@@UAEPAXI@Z 00404c00 f i client.obj
 0001:00003c20       ??_E?$CAPIHolder@VILTCursor@@@@UAEPAXI@Z 00404c20 f i client.obj
 0001:00003c20       ??_G?$CAPIHolder@VILTCursor@@@@UAEPAXI@Z 00404c20 f i client.obj
 0001:000042c0       ?RunClientApp@@YAHPAUHINSTANCE__@@@Z 004052c0 f   client.obj
 0001:00004660       _WinMain@16                00405660 f   client.obj
 0001:000046e0       ?_InterfaceImplementation@CClientFormatMgr@@UAEPBDXZ 004056e0 f i client_formatmgr.obj
 0001:000046f0       ??1CClientDebugGraphMgr@@QAE@XZ 004056f0 f i client_graphmgr.obj
 0001:00004700       ??0CClientDebugGraphMgr@@QAE@XZ 00405700 f i client_graphmgr.obj
 0001:00004720       ?_InterfaceImplementation@CClientDebugGraphMgr@@UAEPBDXZ 00405720 f i client_graphmgr.obj
 0001:00004730       ?ctik_ResetCounters@@YAXXZ 00405730 f   client_ticks.obj
 0001:00004790       ??0?$CAPIHolder@VIClientDebugGraphMgr@@@@QAE@PBDAAPAVIClientDebugGraphMgr@@H@Z 00405790 f i client_ticks.obj
 0001:00004800       ??1?$CAPIHolder@VIClientDebugGraphMgr@@@@UAE@XZ 00405800 f i client_ticks.obj
 0001:00004870       ?APIRemoved@?$CAPIHolder@VILTSoundMgr@@@@UAEXXZ 00405870 f i clientde_impl.obj
 0001:00004870       ?APIRemoved@?$CAPIHolder@VICompress@@@@UAEXXZ 00405870 f i impl_common.obj
 0001:00004870       ?APIRemoved@?$CAPIHolder@VILTBenchmarkMgr@@@@UAEXXZ 00405870 f i clientde_impl.obj
 0001:00004870       ?APIRemoved@?$CAPIHolder@VILTDrawPrim@@@@UAEXXZ 00405870 f i clientde_impl.obj
 0001:00004870       ?APIRemoved@?$CAPIHolder@VILTFontManager@@@@UAEXXZ 00405870 f i clientde_impl.obj
 0001:00004870       ?APIRemoved@?$CAPIHolder@VICommandLineArgs@@@@UAEXXZ 00405870 f i client.obj
 0001:00004870       ?APIRemoved@?$CAPIHolder@VILTClient@@@@UAEXXZ 00405870 f i clientde_impl.obj
 0001:00004870       ?APIRemoved@?$CAPIHolder@VIClientFormatMgr@@@@UAEXXZ 00405870 f i text_mgr.obj
 0001:00004870       ?APIRemoved@?$CAPIHolder@VIWorldServerBSP@@@@UAEXXZ 00405870 f i game_serialize.obj
 0001:00004870       ?APIRemoved@?$CAPIHolder@VILTVideoMgr@@@@UAEXXZ 00405870 f i clientde_impl.obj
 0001:00004870       ?APIRemoved@?$CAPIHolder@VILTCommon@@@@UAEXXZ 00405870 f i clientde_impl.obj
 0001:00004870       ?APIRemoved@?$CAPIHolder@VILTWidgetManager@@@@UAEXXZ 00405870 f i clientde_impl.obj
 0001:00004870       ?APIRemoved@?$CAPIHolder@VIFindObj@@@@UAEXXZ 00405870 f i LIB_D3DRender:drawvolumeeffects.obj
 0001:00004870       ?APIRemoved@?$CAPIHolder@VILTModel@@@@UAEXXZ 00405870 f i clientde_impl.obj
 0001:00004870       ?APIRemoved@?$CAPIHolder@VIServerConsoleState@@@@UAEXXZ 00405870 f i game_serialize.obj
 0001:00004870       ?APIRemoved@?$CAPIHolder@VIErrorFilter@@@@UAEXXZ 00405870 f i lterror.obj
 0001:00004870       ?APIRemoved@?$CAPIHolder@VIInstanceHandleServer@@@@UAEXXZ 00405870 f i dsys_interface.obj
 0001:00004870       ?APIRemoved@?$CAPIHolder@VILTTexInterface@@@@UAEXXZ 00405870 f i clientde_impl.obj
 0001:00004870       ?APIRemoved@?$CAPIHolder@VILTPhysics@@@@UAEXXZ 00405870 f i clientde_impl.obj
 0001:00004870       ?APIRemoved@?$CAPIHolder@VILTRenderStyles@@@@UAEXXZ 00405870 f i objectmgr.obj
 0001:00004870       ?APIRemoved@?$CAPIHolder@VIWorldSharedBSP@@@@UAEXXZ 00405870 f i clientde_impl.obj
 0001:00004870       ?APIRemoved@?$CAPIHolder@VICallStack@@@@UAEXXZ 00405870 f i lterror.obj
 0001:00004870       ?APIRemoved@?$CAPIHolder@VILTServer@@@@UAEXXZ 00405870 f i classbind.obj
 0001:00004870       ?APIRemoved@?$CAPIHolder@VILTCursor@@@@UAEXXZ 00405870 f i client.obj
 0001:00004870       ?APIRemoved@?$CAPIHolder@VIServerShell@@@@UAEXXZ 00405870 f i classmgr.obj
 0001:00004870       ?APIRemoved@?$CAPIHolder@VIClientFileMgr@@@@UAEXXZ 00405870 f i clientde_impl.obj
 0001:00004870       ?APIRemoved@?$CAPIHolder@VIErrorPrint@@@@UAEXXZ 00405870 f i lterror.obj
 0001:00004870       ?APIRemoved@?$CAPIHolder@VILTDirectMusicMgr@@@@UAEXXZ 00405870 f i clientde_impl.obj
 0001:00004870       ?APIRemoved@?$CAPIHolder@VILTCollisionMgr@@@@UAEXXZ 00405870 f i world_client_bsp.obj
 0001:00004870       ?APIRemoved@?$CAPIHolder@VIClientShell@@@@UAEXXZ 00405870 f i client.obj
 0001:00004870       ?APIRemoved@?$CAPIHolder@VIClientDebugGraphMgr@@@@UAEXXZ 00405870 f i client_ticks.obj
 0001:00004870       ?APIRemoved@?$CAPIHolder@VIServerFileMgr@@@@UAEXXZ 00405870 f i clientmgr.obj
 0001:00004870       ?APIRemoved@?$CAPIHolder@VIInstanceHandleClient@@@@UAEXXZ 00405870 f i dsys_interface.obj
 0001:00004870       ?APIRemoved@?$CAPIHolder@VILTTransform@@@@UAEXXZ 00405870 f i clientde_impl.obj
 0001:00004870       ?APIRemoved@?$CAPIHolder@VIWorldBlindObjectData@@@@UAEXXZ 00405870 f i clientde_impl.obj
 0001:00004870       ?APIRemoved@?$CAPIHolder@VIWorldClientBSP@@@@UAEXXZ 00405870 f i clientde_impl.obj
 0001:00004870       ?APIRemoved@?$CAPIHolder@VIWorldBlockerData@@@@UAEXXZ 00405870 f i collision.obj
 0001:00004870       ?APIRemoved@?$CAPIHolder@VIWorldParticleBlockerData@@@@UAEXXZ 00405870 f i clientde_impl.obj
 0001:00004880       ??_G?$CAPIHolder@VIClientDebugGraphMgr@@@@UAEPAXI@Z 00405880 f i client_ticks.obj
 0001:00004880       ??_E?$CAPIHolder@VIClientDebugGraphMgr@@@@UAEPAXI@Z 00405880 f i client_ticks.obj
 0001:000048a0       ?Update@STickStat@@QAEXIH@Z 004058a0 f i client_ticks.obj
 0001:000048e0       ?ctik_ShowTickStatus@@YAXXZ 004058e0 f   client_ticks.obj
 0001:00005a80       ?Init@LTMatrix@@QAEXMMMMMMMMMMMMMMMM@Z 00406a80 f i clientde_impl.obj
 0001:00005b00       ?SetBasisVectors@LTMatrix@@QAEXPBU?$TVector3@M@@00@Z 00406b00 f i clientde_impl.obj
 0001:00005b70       ?MatVMul_H@@YAMPAU?$TVector3@M@@PBULTMatrix@@PBU1@@Z 00406b70 f i clientde_impl.obj
 0001:00005bf0       ??8LTRotation@@QBE_NABU0@@Z 00406bf0 f i clientde_impl.obj
 0001:00005c40       ?IsCompressed@CSoundBuffer@@QAEIXZ 00406c40 f i clientde_impl.obj
 0001:00005c60       ?ps_UpdateBox@@YAXPAVLTParticleSystem@@ABU?$TVector3@M@@M@Z 00406c60 f i clientde_impl.obj
 0001:00005d20       ??0InternalObjectSetup@@QAE@XZ 00406d20 f i clientde_impl.obj
 0001:00005de0       ?sb_Allocate@@YAPAXPAUStructBank_t@@@Z 00406de0 f i clientde_impl.obj
 0001:00005e10       ?Cross@?$TVector3@M@@QBE?BU1@ABU1@@Z 00406e10 f i clientde_impl.obj
 0001:00005e50       ??D?$TVector3@M@@QBE?BU0@M@Z 00406e50 f i clientde_impl.obj
 0001:00005e80       ??_0?$TVector3@M@@QAEABU0@M@Z 00406e80 f i clientde_impl.obj
 0001:00005eb0       ?ci_GetObjectScale@@YAIPAVLTObject@@PAU?$TVector3@M@@@Z 00406eb0 f   clientde_impl.obj
 0001:00005f10       ?ci_SetObjectRotation@@YAXPAVLTObject@@PBULTRotation@@@Z 00406f10 f   clientde_impl.obj
 0001:00005f50       ?ci_FindObjectsInSphereCB@@YAXPAVWorldTreeObj@@PAX@Z 00406f50 f   clientde_impl.obj
 0001:00005f90       ?Common@CLTClient@@UAEPAVILTCommon@@XZ 00406f90 f   clientde_impl.obj
 0001:00005fa0       ?Physics@CLTClient@@UAEPAVILTPhysics@@XZ 00406fa0 f   clientde_impl.obj
 0001:00005fb0       ?GetModelLT@CLTClient@@UAEPAVILTModel@@XZ 00406fb0 f   clientde_impl.obj
 0001:00005fc0       ?GetTransformLT@CLTClient@@UAEPAVILTTransform@@XZ 00406fc0 f   clientde_impl.obj
 0001:00005fd0       ?SoundMgr@CLTClient@@UAEPAVILTSoundMgr@@XZ 00406fd0 f   clientde_impl.obj
 0001:00005fe0       ?VideoMgr@CLTClient@@UAEPAVILTVideoMgr@@XZ 00406fe0 f   clientde_impl.obj
 0001:00005ff0       ?GetDrawPrim@CLTClient@@UAEPAVILTDrawPrim@@XZ 00406ff0 f   clientde_impl.obj
 0001:00006000       ?GetTexInterface@CLTClient@@UAEPAVILTTexInterface@@XZ 00407000 f   clientde_impl.obj
 0001:00006010       ?GetFontManager@CLTClient@@UAEPAVILTFontManager@@XZ 00407010 f   clientde_impl.obj
 0001:00006020       ?GetWidgetManager@CLTClient@@UAEPAVILTWidgetManager@@XZ 00407020 f   clientde_impl.obj
 0001:00006030       ?Cursor@CLTClient@@UAEPAVILTCursor@@XZ 00407030 f   clientde_impl.obj
 0001:00006040       ?GetDirectMusicMgr@CLTClient@@UAEPAVILTDirectMusicMgr@@XZ 00407040 f   clientde_impl.obj
 0001:00006050       ?GetBenchmarkMgr@CLTClient@@UAEPAVILTBenchmarkMgr@@XZ 00407050 f   clientde_impl.obj
 0001:00006060       ?OpenFile@CLTClient@@UAEIPBDPAPAVILTStream@@@Z 00407060 f   clientde_impl.obj
 0001:00006130       ?CopyFileA@CLTClient@@UAEIPBD0@Z 00407130 f   clientde_impl.obj
 0001:00006140       ?GetObjectPos@CLTClient@@UAEIPAVLTObject@@PAU?$TVector3@M@@@Z 00407140 f   clientde_impl.obj
 0001:000061b0       ?GetObjectRotation@CLTClient@@UAEIPAVLTObject@@PAULTRotation@@@Z 004071b0 f   clientde_impl.obj
 0001:00006230       ?StartQuery@CLTClient@@UAEIPBD@Z 00407230 f   clientde_impl.obj
 0001:00006280       ?UpdateQuery@CLTClient@@UAEIXZ 00407280 f   clientde_impl.obj
 0001:000062d0       ?GetQueryResults@CLTClient@@UAEIAAPAVNetSession@@@Z 004072d0 f   clientde_impl.obj
 0001:00006330       ?EndQuery@CLTClient@@UAEIXZ 00407330 f   clientde_impl.obj
 0001:00006380       ?GetSConValueFloat@CLTClient@@UAEIPBDAAM@Z 00407380 f   clientde_impl.obj
 0001:00006430       ?GetSConValueString@CLTClient@@UAEIPBDPADI@Z 00407430 f   clientde_impl.obj
 0001:000064f0       ?GetServerIPAddress@CLTClient@@UAEIQAEPAG@Z 004074f0 f   clientde_impl.obj
 0001:00006550       ?ProcessAttachments@CLTClient@@UAEIPAVLTObject@@@Z 00407550 f   clientde_impl.obj
 0001:000065c0       ?GetSpriteControl@CLTClient@@UAEIPAVLTObject@@AAPAVILTSpriteControl@@@Z 004075c0 f   clientde_impl.obj
 0001:00006620       ?SetSpriteEffectShaderID@CLTClient@@UAEIPAVLTObject@@I@Z 00407620 f   clientde_impl.obj
 0001:00006680       ?GetCanvasFn@CLTClient@@UAEIPAVLTObject@@AAP6AX0PAX@ZAAPAX@Z 00407680 f   clientde_impl.obj
 0001:000066f0       ?SetCanvasFn@CLTClient@@UAEIPAVLTObject@@P6AX0PAX@Z1@Z 004076f0 f   clientde_impl.obj
 0001:00006760       ?GetCanvasRadius@CLTClient@@UAEIPAVLTObject@@AAM@Z 00407760 f   clientde_impl.obj
 0001:000067c0       ?SetCanvasRadius@CLTClient@@UAEIPAVLTObject@@M@Z 004077c0 f   clientde_impl.obj
 0001:00006830       ?GetGlobalLightDir@CLTClient@@UAEIAAU?$TVector3@M@@@Z 00407830 f   clientde_impl.obj
 0001:00006860       ?GetGlobalLightColor@CLTClient@@UAEIAAU?$TVector3@M@@@Z 00407860 f   clientde_impl.obj
 0001:00006890       ?SetGlobalLightColor@CLTClient@@UAEIABU?$TVector3@M@@@Z 00407890 f   clientde_impl.obj
 0001:000068c0       ?GetGlobalLightConvertToAmbient@CLTClient@@UAEIAAM@Z 004078c0 f   clientde_impl.obj
 0001:000068e0       ?SetGlobalLightConvertToAmbient@CLTClient@@UAEIM@Z 004078e0 f   clientde_impl.obj
 0001:000068f0       ?GetPointShade@CLTClient@@UAEIPBU?$TVector3@M@@PAU2@@Z 004078f0 f   clientde_impl.obj
 0001:00006900       ?GetModelAnimation@CLTClient@@UAEIPAVLTObject@@@Z 00407900 f   clientde_impl.obj
 0001:00006940       ?SetModelAnimation@CLTClient@@UAEXPAVLTObject@@I@Z 00407940 f   clientde_impl.obj
 0001:00006960       ?ResetModelAnimation@CLTClient@@UAEIPAVLTObject@@@Z 00407960 f   clientde_impl.obj
 0001:00006980       ?GetModelPlaybackState@CLTClient@@UAEIPAVLTObject@@@Z 00407980 f   clientde_impl.obj
 0001:000069b0       ?GetModelLooping@CLTClient@@UAE_NPAVLTObject@@@Z 004079b0 f   clientde_impl.obj
 0001:000069e0       ?SetModelLooping@CLTClient@@UAEXPAVLTObject@@_N@Z 004079e0 f   clientde_impl.obj
 0001:00006a00       ?GetAnimIndex@CLTClient@@UAEIPAVLTObject@@PBD@Z 00407a00 f   clientde_impl.obj
 0001:00006a00       ?GetAnimIndex@CLTServer@@UAEIPAVLTObject@@PBD@Z 00407a00 f   serverde_impl.obj
 0001:00006a20       ?AddVertexShader@CLTClient@@UAE_NPBDHPBII_N@Z 00407a20 f   clientde_impl.obj
 0001:00006a80       ?RemoveVertexShader@CLTClient@@UAEXH@Z 00407a80 f   clientde_impl.obj
 0001:00006aa0       ?RemoveAllVertexShaders@CLTClient@@UAEXXZ 00407aa0 f   clientde_impl.obj
 0001:00006ab0       ?GetVertexShader@CLTClient@@UAEPAVLTVertexShader@@H@Z 00407ab0 f   clientde_impl.obj
 0001:00006ad0       ?AddPixelShader@CLTClient@@UAE_NPBDH_N@Z 00407ad0 f   clientde_impl.obj
 0001:00006b30       ?RemovePixelShader@CLTClient@@UAEXH@Z 00407b30 f   clientde_impl.obj
 0001:00006b50       ?RemoveAllPixelShaders@CLTClient@@UAEXXZ 00407b50 f   clientde_impl.obj
 0001:00006b60       ?GetPixelShader@CLTClient@@UAEPAVLTPixelShader@@H@Z 00407b60 f   clientde_impl.obj
 0001:00006b80       ?CPrint@CLTClient@@UAAXPBDZZ 00407b80 f   clientde_impl.obj
 0001:00006bf0       ?GetContainerCode@CLTClient@@UAE_NPAVLTObject@@PAG@Z 00407bf0 f   clientde_impl.obj
 0001:00006c20       ?GetObjectContainers@CLTClient@@UAEIPAVLTObject@@PAPAV2@I@Z 00407c20 f   clientde_impl.obj
 0001:00006d60       ?GetContainedObjects@CLTClient@@UAEIPAVLTObject@@PAPAV2@I@Z 00407d60 f   clientde_impl.obj
 0001:00006ee0       ?FormatString@CLTClient@@UAAPAUHSTRING_t@@HZZ 00407ee0 f   clientde_impl.obj
 0001:00006f90       ?CopyString@CLTClient@@UAEPAUHSTRING_t@@PAU2@@Z 00407f90 f   clientde_impl.obj
 0001:00006fb0       ?CreateString@CLTClient@@UAEPAUHSTRING_t@@PBD@Z 00407fb0 f   clientde_impl.obj
 0001:00006fd0       ?CompareStrings@CLTClient@@UAE_NPAUHSTRING_t@@0@Z 00407fd0 f   clientde_impl.obj
 0001:00007000       ?CompareStringsUpper@CLTClient@@UAE_NPAUHSTRING_t@@0@Z 00408000 f   clientde_impl.obj
 0001:00007030       ?GetStringData@CLTClient@@UAEPBDPAUHSTRING_t@@@Z 00408030 f   clientde_impl.obj
 0001:00007050       ?GetVarValueFloat@CLTClient@@UAEMPAUHCONSOLEVAR_t@@@Z 00408050 f   clientde_impl.obj
 0001:00007070       ?GetVarValueString@CLTClient@@UAEPBDPAUHCONSOLEVAR_t@@@Z 00408070 f   clientde_impl.obj
 0001:00007090       ?GetTime@CLTClient@@UAEMXZ 00408090 f   clientde_impl.obj
 0001:000070a0       ?GetFrameTime@CLTClient@@UAEMXZ 004080a0 f   clientde_impl.obj
 0001:000070b0       ?GetSourceWorldOffset@CLTClient@@UAEIAAU?$TVector3@M@@@Z 004080b0 f   clientde_impl.obj
 0001:000070e0       ?RemoveObject@CLTClient@@UAEIPAVLTObject@@@Z 004080e0 f   clientde_impl.obj
 0001:00007180       ?GetBlindObjectData@CLTClient@@UAEIIIAAPAEAAI@Z 00408180 f   clientde_impl.obj
 0001:000071b0       ?FreeBlindObjectData@CLTClient@@UAEIII@Z 004081b0 f   clientde_impl.obj
 0001:000071d0       ?OpenMemoryStream@CLTServer@@UAEIPAPAVILTStream@@I@Z 004081d0 f   serverde_impl.obj
 0001:000071d0       ?OpenMemoryStream@CLTClient@@UAEIPAPAVILTStream@@I@Z 004081d0 f   clientde_impl.obj
 0001:00007230       ?GetTextureEffectVarID@CLTClient@@UBEIPBDIPAI@Z 00408230 f   clientde_impl.obj
 0001:000072b0       ?LinkObjRef@CLTClient@@UAEIPAVLTObject@@PAVLTObjRef@@@Z 004082b0 f   clientde_impl.obj
 0001:000072f0       ?GetLightGroupID@CLTClient@@UBEIPBDPAI@Z 004082f0 f   clientde_impl.obj
 0001:000072f0       ?GetLightGroupID@CLTServer@@UBEIPBDPAI@Z 004082f0 f   serverde_impl.obj
 0001:00007310       ?GetLightGroupColor@CLTClient@@UBEIIPAU?$TVector3@M@@@Z 00408310 f   clientde_impl.obj
 0001:00007330       ?GetOccluderID@CLTClient@@UBEIPBDPAI@Z 00408330 f   clientde_impl.obj
 0001:00007330       ?GetOccluderID@CLTServer@@UBEIPBDPAI@Z 00408330 f   serverde_impl.obj
 0001:00007350       ?GetOccluderEnabled@CLTClient@@UBEIIPA_N@Z 00408350 f   clientde_impl.obj
 0001:00007370       ?SetOccluderEnabled@CLTClient@@UAEII_N@Z 00408370 f   clientde_impl.obj
 0001:00007390       ?SetTextureEffectVar@CLTClient@@UAEIIIM@Z 00408390 f   clientde_impl.obj
 0001:000073b0       ?GetRendererStats@CLTClient@@UAEIAAULTRendererStats@@@Z 004083b0 f   clientde_impl.obj
 0001:000073d0       ?SetObjectRenderGroup@CLTClient@@UAEIPAVLTObject@@I@Z 004083d0 f   clientde_impl.obj
 0001:00007400       ?SetObjectRenderGroupEnabled@CLTClient@@UAEII_N@Z 00408400 f   clientde_impl.obj
 0001:00007430       ?SetAllObjectRenderGroupEnabled@CLTClient@@UAEIXZ 00408430 f   clientde_impl.obj
 0001:00007440       ?AddGlowRenderStyleMapping@CLTClient@@UAEIPBD0@Z 00408440 f   clientde_impl.obj
 0001:00007460       ?SetGlowDefaultRenderStyle@CLTClient@@UAEIPBD@Z 00408460 f   clientde_impl.obj
 0001:00007480       ?SetNoGlowRenderStyle@CLTClient@@UAEIPBD@Z 00408480 f   clientde_impl.obj
 0001:000074a0       ?IsLocalToServer@CLTClient@@UAEIPA_N@Z 004084a0 f   clientde_impl.obj
 0001:000074d0       ?GetDeviceObjectName@CLTClient@@UAEIPBDIPADI@Z 004084d0 f   clientde_impl.obj
 0001:00007510       ?ci_StartGame@@YAIPAVStartGameRequest@@@Z 00408510 f   clientde_impl.obj
 0001:00007530       ?ci_GetGameMode@@YAIPAH@Z  00408530 f   clientde_impl.obj
 0001:00007560       ?ci_GetLocalClientID@@YAIPAI@Z 00408560 f   clientde_impl.obj
 0001:000075a0       ?ci_IsConnected@@YA_NXZ    004085a0 f   clientde_impl.obj
 0001:000075c0       ?ci_Disconnect@@YAXXZ      004085c0 f   clientde_impl.obj
 0001:000075d0       ?ci_ShutdownWithMessage@@YAXPBDZZ 004085d0 f   clientde_impl.obj
 0001:00007610       ?ci_Shutdown@@YAXXZ        00408610 f   clientde_impl.obj
 0001:00007620       ?ci_GetFileList@@YAPAUFileEntry@@PBD@Z 00408620 f   clientde_impl.obj
 0001:00007640       ?ci_ReadConfigFile@@YAIPBD@Z 00408640 f   clientde_impl.obj
 0001:00007660       ?ci_WriteConfigFile@@YAIPBD@Z 00408660 f   clientde_impl.obj
 0001:00007680       ?ci_WriteConfigFileFields@@YAIPBDIPAPBD@Z 00408680 f   clientde_impl.obj
 0001:000076b0       ?ci_GetAxisOffsets@@YAXPAM@Z 004086b0 f   clientde_impl.obj
 0001:000076e0       ?ci_PlayJoystickEffect@@YAXPBDMM@Z 004086e0 f   clientde_impl.obj
 0001:00007710       ?ci_InitMusic@@YA_NPBD@Z   00408710 f   clientde_impl.obj
 0001:00007730       ?ci_LoadSong@@YA_NPBD@Z    00408730 f   clientde_impl.obj
 0001:00007770       ?ci_DestroyAllSongs@@YAXXZ 00408770 f   clientde_impl.obj
 0001:00007790       ?ci_StopMusic@@YAXI@Z      00408790 f   clientde_impl.obj
 0001:000077b0       ?ci_PauseMusic@@YA_NXZ     004087b0 f   clientde_impl.obj
 0001:000077d0       ?ci_ResumeMusic@@YA_NXZ    004087d0 f   clientde_impl.obj
 0001:000077f0       ?ci_AddSongToPlayList@@YA_NPBD0@Z 004087f0 f   clientde_impl.obj
 0001:00007880       ?ci_DeletePlayList@@YAXPBD@Z 00408880 f   clientde_impl.obj
 0001:000078c0       ?ci_PlayList@@YA_NPBD0_NI@Z 004088c0 f   clientde_impl.obj
 0001:00007950       ?ci_GetMusicVolume@@YAFXZ  00408950 f   clientde_impl.obj
 0001:00007980       ?ci_SetMusicVolume@@YAXF@Z 00408980 f   clientde_impl.obj
 0001:000079a0       ?ci_GetSoundTimer@@YAIPAUHLTSOUND_t@@PAM@Z 004089a0 f   clientde_impl.obj
 0001:00007c10       ?ci_GetSoundData@@YAIPAUHLTSOUND_t@@AAPAFAAPADPAI3@Z 00408c10 f   clientde_impl.obj
 0001:00007d40       ?ci_GetSoundOffset@@YAIPAUHLTSOUND_t@@PAI1@Z 00408d40 f   clientde_impl.obj
 0001:00007e10       ?ci_IsDone@@YA_NPAUHLTSOUND_t@@@Z 00408e10 f   clientde_impl.obj
 0001:00007e30       ?ci_GetListener@@YAXPA_NPAU?$TVector3@M@@PAULTRotation@@@Z 00408e30 f   clientde_impl.obj
 0001:00007f40       ?ci_RegisterConsoleProgram@@YAIPBDP6AXHPAPAD@Z@Z 00408f40 f   clientde_impl.obj
 0001:00007fb0       ?ci_UnregisterConsoleProgram@@YAIPBD@Z 00408fb0 f   clientde_impl.obj
 0001:00008030       ?ci_GetConsoleVar@@YAPAUHCONSOLEVAR_t@@PBD@Z 00409030 f   clientde_impl.obj
 0001:00008030       ?r_GetParameter@@YAPAXPAD@Z 00409030 f   render.obj
 0001:00008050       ?ci_SetInputState@@YAX_N@Z 00409050 f   clientde_impl.obj
 0001:00008070       ?ci_ClearInput@@YAIXZ      00409070 f   clientde_impl.obj
 0001:00008080       ?ci_GetDeviceBindings@@YAPAUDeviceBinding@@I@Z 00409080 f   clientde_impl.obj
 0001:000080a0       ?ci_FreeDeviceBindings@@YAXPAUDeviceBinding@@@Z 004090a0 f   clientde_impl.obj
 0001:000080c0       ?ci_ClearBinding@@YA_NPBD0@Z 004090c0 f   clientde_impl.obj
 0001:000080f0       ?ci_AddBinding@@YA_NPBD00MM@Z 004090f0 f   clientde_impl.obj
 0001:00008130       ?ci_StartDeviceTrack@@YAIII@Z 00409130 f   clientde_impl.obj
 0001:00008170       ?ci_TrackDevice@@YAIPAUDeviceInput@@PAI@Z 00409170 f   clientde_impl.obj
 0001:000081b0       ?ci_EndDeviceTrack@@YAIXZ  004091b0 f   clientde_impl.obj
 0001:000081e0       ?ci_GetDeviceObjects@@YAPAUDeviceObject@@I@Z 004091e0 f   clientde_impl.obj
 0001:00008200       ?ci_FreeDeviceObjects@@YAXPAUDeviceObject@@@Z 00409200 f   clientde_impl.obj
 0001:00008220       ?ci_GetDeviceName@@YAIIPADI@Z 00409220 f   clientde_impl.obj
 0001:00008260       ?ci_IsDeviceEnabled@@YAIPBDPA_N@Z 00409260 f   clientde_impl.obj
 0001:00008290       ?ci_EnableDevice@@YAIPBD@Z 00409290 f   clientde_impl.obj
 0001:000082c0       ?ci_GetGameTime@@YAMXZ     004092c0 f   clientde_impl.obj
 0001:000082e0       ?ci_GetGameFrameTime@@YAMXZ 004092e0 f   clientde_impl.obj
 0001:00008300       ?ci_GetSkyDef@@YAIPAUSkyDef@@@Z 00409300 f   clientde_impl.obj
 0001:00008320       ?ci_IsCommandOn@@YA_NH@Z   00409320 f   clientde_impl.obj
 0001:00008340       ?ci_RunConsoleString@@YAXPBD@Z 00409340 f   clientde_impl.obj
 0001:00008350       ?ci_GetClientObject@@YAPAVLTObject@@XZ 00409350 f   clientde_impl.obj
 0001:00008370       ?ci_GetGlobalLightScale@@YAXPAU?$TVector3@M@@@Z 00409370 f   clientde_impl.obj
 0001:000083a0       ?ci_CreateObject@@YAPAVLTObject@@PAUObjectCreateStruct@@@Z 004093a0 f   clientde_impl.obj
 0001:000084d0       ?ci_GetObjectColor@@YAXPAVLTObject@@PAM111@Z 004094d0 f   clientde_impl.obj
 0001:00008560       ?ci_SetObjectColor@@YAXPAVLTObject@@MMMM@Z 00409560 f   clientde_impl.obj
 0001:000085c0       ?ci_GetObjectUserData@@YAPAXPAVLTObject@@@Z 004095c0 f   clientde_impl.obj
 0001:000085e0       ?ci_SetObjectUserData@@YAXPAVLTObject@@PAX@Z 004095e0 f   clientde_impl.obj
 0001:00008600       ?ci_GetCameraFOV@@YAXPAVLTObject@@PAM1@Z 00409600 f   clientde_impl.obj
 0001:00008640       ?ci_GetCameraRect@@YAXPAVLTObject@@PA_NPAH222@Z 00409640 f   clientde_impl.obj
 0001:000086b0       ?ci_SetCameraRect@@YAXPAVLTObject@@_NHHHH@Z 004096b0 f   clientde_impl.obj
 0001:00008700       ?ci_GetCameraLightAdd@@YA_NPAVLTObject@@PAU?$TVector3@M@@@Z 00409700 f   clientde_impl.obj
 0001:00008740       ?ci_SetCameraLightAdd@@YA_NPAVLTObject@@PBU?$TVector3@M@@@Z 00409740 f   clientde_impl.obj
 0001:00008780       ?ci_SetupParticleSystem@@YAIPAVLTObject@@PBDMIM@Z 00409780 f   clientde_impl.obj
 0001:00008840       ?ci_AddParticles@@YAXPAVLTObject@@IPBU?$TVector3@M@@11111MM@Z 00409840 f   clientde_impl.obj
 0001:00008860       ?ci_GetParticles@@YA_NPAVLTObject@@PAPAULTParticle@@1@Z 00409860 f   clientde_impl.obj
 0001:00008890       ?ci_OptimizeParticles@@YAIPAVLTObject@@@Z 00409890 f   clientde_impl.obj
 0001:00008900       ?ci_SortParticles@@YAIPAVLTObject@@ABU?$TVector3@M@@I@Z 00409900 f   clientde_impl.obj
 0001:00008960       ?ci_SetParticleSystemEffectShaderID@@YAIPAVLTObject@@I@Z 00409960 f   clientde_impl.obj
 0001:000089c0       ?ci_SetupVolumeEffect@@YA_NPAVLTObject@@AAUVolumeEffectInfo@@@Z 004099c0 f   clientde_impl.obj
 0001:000089e0       ?ci_SetVolumeEffectEffectShaderID@@YAIPAVLTObject@@I@Z 004099e0 f   clientde_impl.obj
 0001:00008a40       ?ci_GetParticleBlockersInAABB@@YA_NABU?$TVector3@M@@0AAV?$vector@IV?$allocator@I@std@@@std@@@Z 00409a40 f   clientde_impl.obj
 0001:00008a60       ?ci_GetParticleBlockerEdgesXZ@@YA_NIAAULTPlane@@AAIAAPAU1@@Z 00409a60 f   clientde_impl.obj
 0001:00008a80       ?ci_SetupPolyGrid@@YA_NPAVLTObject@@IIIPA_N@Z 00409a80 f   clientde_impl.obj
 0001:00008aa0       ?ci_SetPolyGridTexture@@YAIPAVLTObject@@PBD@Z 00409aa0 f   clientde_impl.obj
 0001:00008b40       ?ci_SetPolyGridEnvMap@@YAIPAVLTObject@@PBD@Z 00409b40 f   clientde_impl.obj
 0001:00008c20       ?ci_GetPolyGridTextureInfo@@YAIPAVLTObject@@PAM11111@Z 00409c20 f   clientde_impl.obj
 0001:00008d20       ?ci_SetPolyGridTextureInfo@@YAIPAVLTObject@@MMMMMM@Z 00409d20 f   clientde_impl.obj
 0001:00008db0       ?ci_GetPolyGridInfo@@YAIPAVLTObject@@PAPADPAI2PAPAUPGColor@@@Z 00409db0 f   clientde_impl.obj
 0001:00008e50       ?ci_SetPolyGridEffectShaderID@@YAIPAVLTObject@@I@Z 00409e50 f   clientde_impl.obj
 0001:00008eb0       ?ci_GetLightColor@@YAXPAVLTObject@@PAM11@Z 00409eb0 f   clientde_impl.obj
 0001:00008f20       ?ci_SetLightColor@@YAXPAVLTObject@@MMM@Z 00409f20 f   clientde_impl.obj
 0001:00008f60       ?ci_SetLightRadius@@YAXPAVLTObject@@M@Z 00409f60 f   clientde_impl.obj
 0001:00008fa0       ?ci_ClipSprite@@YAIPAVLTObject@@UHPOLY@@@Z 00409fa0 f   clientde_impl.obj
 0001:00008fd0       ?ci_GetPolyTextureFlags@@YAIUHPOLY@@PAI@Z 00409fd0 f   clientde_impl.obj
 0001:000090e0       ?ci_SetModelHook@@YAIP6AXPAUModelHookData@@PAX@Z1@Z 0040a0e0 f   clientde_impl.obj
 0001:00009110       ?ci_InitNetworking@@YAIPBDI@Z 0040a110 f   clientde_impl.obj
 0001:00009150       ?ci_GetServiceList@@YAIAAPAVNetService@@@Z 0040a150 f   clientde_impl.obj
 0001:00009170       ?ci_FreeServiceList@@YAIPAVNetService@@@Z 0040a170 f   clientde_impl.obj
 0001:000091d0       ?ci_SelectService@@YAIPAUHNETSERVICE_t@@@Z 0040a1d0 f   clientde_impl.obj
 0001:00009230       ?ci_GetSessionList@@YAIAAPAVNetSession@@PBD@Z 0040a230 f   clientde_impl.obj
 0001:00009250       ?ci_FreeSessionList@@YAIPAVNetSession@@@Z 0040a250 f   clientde_impl.obj
 0001:00009270       ?ci_AddInternetDriver@@YAIXZ 0040a270 f   clientde_impl.obj
 0001:000092b0       ?ci_RemoveInternetDriver@@YAIXZ 0040a2b0 f   clientde_impl.obj
 0001:000092f0       ?ci_GetTcpIpAddress@@YAIPADIAAG@Z 0040a2f0 f   clientde_impl.obj
 0001:00009350       ?ci_IsLobbyLaunched@@YAIPBD@Z 0040a350 f   clientde_impl.obj
 0001:000093d0       ?ci_GetLobbyLaunchInfo@@YAIPBDPAPAX@Z 0040a3d0 f   clientde_impl.obj
 0001:000094d0       ?ci_IntersectSegment@@YA_NPAVIntersectQuery@@PAUIntersectInfo@@@Z 0040a4d0 f   clientde_impl.obj
 0001:000094f0       ?ci_IntersectSweptSphere@@YA_NABU?$TVector3@M@@0MAAU1@1@Z 0040a4f0 f   clientde_impl.obj
 0001:00009520       ?ci_SetConsoleEnable@@YAI_N@Z 0040a520 f   clientde_impl.obj
 0001:00009540       ?ci_Term@@YAXXZ            0040a540 f   clientde_impl.obj
 0001:00009550       ?MagSqr@?$TVector3@M@@QBEMXZ 0040a550 f i clientde_impl.obj
 0001:00009570       ?Mag@?$TVector3@M@@QBEMXZ  0040a570 f i clientde_impl.obj
 0001:000095a0       ??8?$TVector3@M@@QBE_NABU0@@Z 0040a5a0 f i clientde_impl.obj
 0001:000095e0       ??Y?$TVector3@M@@QAEABU0@ABU0@@Z 0040a5e0 f i clientde_impl.obj
 0001:00009610       ??H?$TVector3@M@@QBE?BU0@ABU0@@Z 0040a610 f i clientde_impl.obj
 0001:00009640       ??G?$TVector3@M@@QBE?BU0@ABU0@@Z 0040a640 f i clientde_impl.obj
 0001:00009670       ??1CSubMsg_Client@@QAE@XZ  0040a670 f i shellnet.obj
 0001:00009670       ??1?$CLTReference@VCTextureStringImage@@@@QAE@XZ 0040a670 f i texturestring.obj
 0001:00009670       ??1?$CLTReference@VILTMessage_Read@@@@QAE@XZ 0040a670 f i clientde_impl.obj
 0001:00009680       ??0?$CAPIHolder@VIWorldClientBSP@@@@QAE@PBDAAPAVIWorldClientBSP@@H@Z 0040a680 f i clientde_impl.obj
 0001:000096f0       ??1?$CAPIHolder@VIWorldClientBSP@@@@UAE@XZ 0040a6f0 f i clientde_impl.obj
 0001:00009760       ?APIFound@?$CAPIHolder@VIErrorPrint@@@@UAEXPAVIBase@@@Z 0040a760 f i lterror.obj
 0001:00009760       ?APIFound@?$CAPIHolder@VILTCommon@@@@UAEXPAVIBase@@@Z 0040a760 f i clientde_impl.obj
 0001:00009760       ?APIFound@?$CAPIHolder@VILTCollisionMgr@@@@UAEXPAVIBase@@@Z 0040a760 f i world_client_bsp.obj
 0001:00009760       ?APIFound@?$CAPIHolder@VIFindObj@@@@UAEXPAVIBase@@@Z 0040a760 f i LIB_D3DRender:drawvolumeeffects.obj
 0001:00009760       ?APIFound@?$CAPIHolder@VILTRenderStyles@@@@UAEXPAVIBase@@@Z 0040a760 f i objectmgr.obj
 0001:00009760       ?APIFound@?$CAPIHolder@VILTVideoMgr@@@@UAEXPAVIBase@@@Z 0040a760 f i clientde_impl.obj
 0001:00009760       ?APIFound@?$CAPIHolder@VILTTransform@@@@UAEXPAVIBase@@@Z 0040a760 f i clientde_impl.obj
 0001:00009760       ?APIFound@?$CAPIHolder@VILTBenchmarkMgr@@@@UAEXPAVIBase@@@Z 0040a760 f i clientde_impl.obj
 0001:00009760       ?APIFound@?$CAPIHolder@VIServerConsoleState@@@@UAEXPAVIBase@@@Z 0040a760 f i game_serialize.obj
 0001:00009760       ?APIFound@?$CAPIHolder@VIClientDebugGraphMgr@@@@UAEXPAVIBase@@@Z 0040a760 f i client_ticks.obj
 0001:00009760       ?APIFound@?$CAPIHolder@VIWorldServerBSP@@@@UAEXPAVIBase@@@Z 0040a760 f i game_serialize.obj
 0001:00009760       ?APIFound@?$CAPIHolder@VIServerShell@@@@UAEXPAVIBase@@@Z 0040a760 f i classmgr.obj
 0001:00009760       ?APIFound@?$CAPIHolder@VIClientShell@@@@UAEXPAVIBase@@@Z 0040a760 f i client.obj
 0001:00009760       ?APIFound@?$CAPIHolder@VILTClient@@@@UAEXPAVIBase@@@Z 0040a760 f i clientde_impl.obj
 0001:00009760       ?APIFound@?$CAPIHolder@VIClientFileMgr@@@@UAEXPAVIBase@@@Z 0040a760 f i clientde_impl.obj
 0001:00009760       ?APIFound@?$CAPIHolder@VILTServer@@@@UAEXPAVIBase@@@Z 0040a760 f i classbind.obj
 0001:00009760       ?APIFound@?$CAPIHolder@VILTDrawPrim@@@@UAEXPAVIBase@@@Z 0040a760 f i clientde_impl.obj
 0001:00009760       ?APIFound@?$CAPIHolder@VIInstanceHandleServer@@@@UAEXPAVIBase@@@Z 0040a760 f i dsys_interface.obj
 0001:00009760       ?APIFound@?$CAPIHolder@VIWorldBlockerData@@@@UAEXPAVIBase@@@Z 0040a760 f i collision.obj
 0001:00009760       ?APIFound@?$CAPIHolder@VILTSoundMgr@@@@UAEXPAVIBase@@@Z 0040a760 f i clientde_impl.obj
 0001:00009760       ?APIFound@?$CAPIHolder@VICommandLineArgs@@@@UAEXPAVIBase@@@Z 0040a760 f i client.obj
 0001:00009760       ?APIFound@?$CAPIHolder@VIWorldSharedBSP@@@@UAEXPAVIBase@@@Z 0040a760 f i clientde_impl.obj
 0001:00009760       ?APIFound@?$CAPIHolder@VILTPhysics@@@@UAEXPAVIBase@@@Z 0040a760 f i clientde_impl.obj
 0001:00009760       ?APIFound@?$CAPIHolder@VILTCursor@@@@UAEXPAVIBase@@@Z 0040a760 f i client.obj
 0001:00009760       ?APIFound@?$CAPIHolder@VILTTexInterface@@@@UAEXPAVIBase@@@Z 0040a760 f i clientde_impl.obj
 0001:00009760       ?APIFound@?$CAPIHolder@VICompress@@@@UAEXPAVIBase@@@Z 0040a760 f i impl_common.obj
 0001:00009760       ?APIFound@?$CAPIHolder@VILTWidgetManager@@@@UAEXPAVIBase@@@Z 0040a760 f i clientde_impl.obj
 0001:00009760       ?APIFound@?$CAPIHolder@VILTDirectMusicMgr@@@@UAEXPAVIBase@@@Z 0040a760 f i clientde_impl.obj
 0001:00009760       ?APIFound@?$CAPIHolder@VILTFontManager@@@@UAEXPAVIBase@@@Z 0040a760 f i clientde_impl.obj
 0001:00009760       ?APIFound@?$CAPIHolder@VILTModel@@@@UAEXPAVIBase@@@Z 0040a760 f i clientde_impl.obj
 0001:00009760       ?APIFound@?$CAPIHolder@VIClientFormatMgr@@@@UAEXPAVIBase@@@Z 0040a760 f i text_mgr.obj
 0001:00009760       ?APIFound@?$CAPIHolder@VIServerFileMgr@@@@UAEXPAVIBase@@@Z 0040a760 f i clientmgr.obj
 0001:00009760       ?APIFound@?$CAPIHolder@VIErrorFilter@@@@UAEXPAVIBase@@@Z 0040a760 f i lterror.obj
 0001:00009760       ?APIFound@?$CAPIHolder@VIWorldParticleBlockerData@@@@UAEXPAVIBase@@@Z 0040a760 f i clientde_impl.obj
 0001:00009760       ?APIFound@?$CAPIHolder@VIWorldBlindObjectData@@@@UAEXPAVIBase@@@Z 0040a760 f i clientde_impl.obj
 0001:00009760       ?APIFound@?$CAPIHolder@VIWorldClientBSP@@@@UAEXPAVIBase@@@Z 0040a760 f i clientde_impl.obj
 0001:00009760       ?APIFound@?$CAPIHolder@VICallStack@@@@UAEXPAVIBase@@@Z 0040a760 f i lterror.obj
 0001:00009760       ?APIFound@?$CAPIHolder@VIInstanceHandleClient@@@@UAEXPAVIBase@@@Z 0040a760 f i dsys_interface.obj
 0001:00009770       ??0?$CAPIHolder@VIWorldSharedBSP@@@@QAE@PBDAAPAVIWorldSharedBSP@@H@Z 0040a770 f i clientde_impl.obj
 0001:000097e0       ??1?$CAPIHolder@VIWorldSharedBSP@@@@UAE@XZ 0040a7e0 f i clientde_impl.obj
 0001:00009850       ??0?$CAPIHolder@VIClientFileMgr@@@@QAE@PBDAAPAVIClientFileMgr@@H@Z 0040a850 f i clientde_impl.obj
 0001:000098c0       ??1?$CAPIHolder@VIClientFileMgr@@@@UAE@XZ 0040a8c0 f i clientde_impl.obj
 0001:00009930       ??0?$CAPIHolder@VILTClient@@@@QAE@PBDAAPAVILTClient@@H@Z 0040a930 f i clientde_impl.obj
 0001:000099a0       ??1?$CAPIHolder@VILTClient@@@@UAE@XZ 0040a9a0 f i clientde_impl.obj
 0001:00009a10       ??0?$CAPIHolder@VIWorldBlindObjectData@@@@QAE@PBDAAPAVIWorldBlindObjectData@@H@Z 0040aa10 f i clientde_impl.obj
 0001:00009a80       ??1?$CAPIHolder@VIWorldBlindObjectData@@@@UAE@XZ 0040aa80 f i clientde_impl.obj
 0001:00009af0       ??0?$CAPIHolder@VILTTransform@@@@QAE@PBDAAPAVILTTransform@@H@Z 0040aaf0 f i clientde_impl.obj
 0001:00009b60       ??1?$CAPIHolder@VILTTransform@@@@UAE@XZ 0040ab60 f i clientde_impl.obj
 0001:00009bd0       ??0?$CAPIHolder@VILTCommon@@@@QAE@PBDAAPAVILTCommon@@H@Z 0040abd0 f i clientde_impl.obj
 0001:00009c40       ??1?$CAPIHolder@VILTCommon@@@@UAE@XZ 0040ac40 f i clientde_impl.obj
 0001:00009cb0       ??0?$CAPIHolder@VILTModel@@@@QAE@PBDAAPAVILTModel@@H@Z 0040acb0 f i clientde_impl.obj
 0001:00009d20       ??1?$CAPIHolder@VILTModel@@@@UAE@XZ 0040ad20 f i clientde_impl.obj
 0001:00009d90       ??0?$CAPIHolder@VILTSoundMgr@@@@QAE@PBDAAPAVILTSoundMgr@@H@Z 0040ad90 f i clientde_impl.obj
 0001:00009e00       ??1?$CAPIHolder@VILTSoundMgr@@@@UAE@XZ 0040ae00 f i clientde_impl.obj
 0001:00009e70       ??0?$CAPIHolder@VILTVideoMgr@@@@QAE@PBDAAPAVILTVideoMgr@@H@Z 0040ae70 f i clientde_impl.obj
 0001:00009ee0       ??1?$CAPIHolder@VILTVideoMgr@@@@UAE@XZ 0040aee0 f i clientde_impl.obj
 0001:00009f50       ??0?$CAPIHolder@VILTDrawPrim@@@@QAE@PBDAAPAVILTDrawPrim@@H@Z 0040af50 f i clientde_impl.obj
 0001:00009fc0       ??1?$CAPIHolder@VILTDrawPrim@@@@UAE@XZ 0040afc0 f i clientde_impl.obj
 0001:0000a030       ??0?$CAPIHolder@VILTTexInterface@@@@QAE@PBDAAPAVILTTexInterface@@H@Z 0040b030 f i clientde_impl.obj
 0001:0000a0a0       ??1?$CAPIHolder@VILTTexInterface@@@@UAE@XZ 0040b0a0 f i clientde_impl.obj
 0001:0000a110       ??0?$CAPIHolder@VILTFontManager@@@@QAE@PBDAAPAVILTFontManager@@H@Z 0040b110 f i clientde_impl.obj
 0001:0000a180       ??1?$CAPIHolder@VILTFontManager@@@@UAE@XZ 0040b180 f i clientde_impl.obj
 0001:0000a1f0       ??0?$CAPIHolder@VILTDirectMusicMgr@@@@QAE@PBDAAPAVILTDirectMusicMgr@@H@Z 0040b1f0 f i clientde_impl.obj
 0001:0000a260       ??1?$CAPIHolder@VILTDirectMusicMgr@@@@UAE@XZ 0040b260 f i clientde_impl.obj
 0001:0000a2d0       ??0?$CAPIHolder@VILTBenchmarkMgr@@@@QAE@PBDAAPAVILTBenchmarkMgr@@H@Z 0040b2d0 f i clientde_impl.obj
 0001:0000a340       ??1?$CAPIHolder@VILTBenchmarkMgr@@@@UAE@XZ 0040b340 f i clientde_impl.obj
 0001:0000a3b0       ??0?$CAPIHolder@VILTWidgetManager@@@@QAE@PBDAAPAVILTWidgetManager@@H@Z 0040b3b0 f i clientde_impl.obj
 0001:0000a420       ??1?$CAPIHolder@VILTWidgetManager@@@@UAE@XZ 0040b420 f i clientde_impl.obj
 0001:0000a490       ??0?$CAPIHolder@VILTPhysics@@@@QAE@PBDAAPAVILTPhysics@@H@Z 0040b490 f i clientde_impl.obj
 0001:0000a500       ??1?$CAPIHolder@VILTPhysics@@@@UAE@XZ 0040b500 f i clientde_impl.obj
 0001:0000a570       ??0?$CAPIHolder@VIWorldParticleBlockerData@@@@QAE@PBDAAPAVIWorldParticleBlockerData@@H@Z 0040b570 f i clientde_impl.obj
 0001:0000a5e0       ??1?$CAPIHolder@VIWorldParticleBlockerData@@@@UAE@XZ 0040b5e0 f i clientde_impl.obj
 0001:0000a650       ??$LTCLAMP@MMM@@YAMMMM@Z   0040b650 f i clientde_impl.obj
 0001:0000a680       ??_G?$CAPIHolder@VIWorldClientBSP@@@@UAEPAXI@Z 0040b680 f i clientde_impl.obj
 0001:0000a680       ??_E?$CAPIHolder@VIWorldClientBSP@@@@UAEPAXI@Z 0040b680 f i clientde_impl.obj
 0001:0000a6a0       ??_E?$CAPIHolder@VIWorldSharedBSP@@@@UAEPAXI@Z 0040b6a0 f i clientde_impl.obj
 0001:0000a6a0       ??_G?$CAPIHolder@VIWorldSharedBSP@@@@UAEPAXI@Z 0040b6a0 f i clientde_impl.obj
 0001:0000a6c0       ??_G?$CAPIHolder@VIClientFileMgr@@@@UAEPAXI@Z 0040b6c0 f i clientde_impl.obj
 0001:0000a6c0       ??_E?$CAPIHolder@VIClientFileMgr@@@@UAEPAXI@Z 0040b6c0 f i clientde_impl.obj
 0001:0000a6e0       ??_E?$CAPIHolder@VILTClient@@@@UAEPAXI@Z 0040b6e0 f i clientde_impl.obj
 0001:0000a6e0       ??_G?$CAPIHolder@VILTClient@@@@UAEPAXI@Z 0040b6e0 f i clientde_impl.obj
 0001:0000a700       ??_G?$CAPIHolder@VIWorldBlindObjectData@@@@UAEPAXI@Z 0040b700 f i clientde_impl.obj
 0001:0000a700       ??_E?$CAPIHolder@VIWorldBlindObjectData@@@@UAEPAXI@Z 0040b700 f i clientde_impl.obj
 0001:0000a720       ??_G?$CAPIHolder@VILTTransform@@@@UAEPAXI@Z 0040b720 f i clientde_impl.obj
 0001:0000a720       ??_E?$CAPIHolder@VILTTransform@@@@UAEPAXI@Z 0040b720 f i clientde_impl.obj
 0001:0000a740       ??_E?$CAPIHolder@VILTCommon@@@@UAEPAXI@Z 0040b740 f i clientde_impl.obj
 0001:0000a740       ??_G?$CAPIHolder@VILTCommon@@@@UAEPAXI@Z 0040b740 f i clientde_impl.obj
 0001:0000a760       ??_E?$CAPIHolder@VILTModel@@@@UAEPAXI@Z 0040b760 f i clientde_impl.obj
 0001:0000a760       ??_G?$CAPIHolder@VILTModel@@@@UAEPAXI@Z 0040b760 f i clientde_impl.obj
 0001:0000a780       ??_G?$CAPIHolder@VILTSoundMgr@@@@UAEPAXI@Z 0040b780 f i clientde_impl.obj
 0001:0000a780       ??_E?$CAPIHolder@VILTSoundMgr@@@@UAEPAXI@Z 0040b780 f i clientde_impl.obj
 0001:0000a7a0       ??_G?$CAPIHolder@VILTVideoMgr@@@@UAEPAXI@Z 0040b7a0 f i clientde_impl.obj
 0001:0000a7a0       ??_E?$CAPIHolder@VILTVideoMgr@@@@UAEPAXI@Z 0040b7a0 f i clientde_impl.obj
 0001:0000a7c0       ??_E?$CAPIHolder@VILTDrawPrim@@@@UAEPAXI@Z 0040b7c0 f i clientde_impl.obj
 0001:0000a7c0       ??_G?$CAPIHolder@VILTDrawPrim@@@@UAEPAXI@Z 0040b7c0 f i clientde_impl.obj
 0001:0000a7e0       ??_E?$CAPIHolder@VILTTexInterface@@@@UAEPAXI@Z 0040b7e0 f i clientde_impl.obj
 0001:0000a7e0       ??_G?$CAPIHolder@VILTTexInterface@@@@UAEPAXI@Z 0040b7e0 f i clientde_impl.obj
 0001:0000a800       ??_E?$CAPIHolder@VILTFontManager@@@@UAEPAXI@Z 0040b800 f i clientde_impl.obj
 0001:0000a800       ??_G?$CAPIHolder@VILTFontManager@@@@UAEPAXI@Z 0040b800 f i clientde_impl.obj
 0001:0000a820       ??_E?$CAPIHolder@VILTDirectMusicMgr@@@@UAEPAXI@Z 0040b820 f i clientde_impl.obj
 0001:0000a820       ??_G?$CAPIHolder@VILTDirectMusicMgr@@@@UAEPAXI@Z 0040b820 f i clientde_impl.obj
 0001:0000a840       ??_E?$CAPIHolder@VILTBenchmarkMgr@@@@UAEPAXI@Z 0040b840 f i clientde_impl.obj
 0001:0000a840       ??_G?$CAPIHolder@VILTBenchmarkMgr@@@@UAEPAXI@Z 0040b840 f i clientde_impl.obj
 0001:0000a860       ??_G?$CAPIHolder@VILTWidgetManager@@@@UAEPAXI@Z 0040b860 f i clientde_impl.obj
 0001:0000a860       ??_E?$CAPIHolder@VILTWidgetManager@@@@UAEPAXI@Z 0040b860 f i clientde_impl.obj
 0001:0000a880       ??_E?$CAPIHolder@VILTPhysics@@@@UAEPAXI@Z 0040b880 f i clientde_impl.obj
 0001:0000a880       ??_G?$CAPIHolder@VILTPhysics@@@@UAEPAXI@Z 0040b880 f i clientde_impl.obj
 0001:0000a8a0       ??_G?$CAPIHolder@VIWorldParticleBlockerData@@@@UAEPAXI@Z 0040b8a0 f i clientde_impl.obj
 0001:0000a8a0       ??_E?$CAPIHolder@VIWorldParticleBlockerData@@@@UAEPAXI@Z 0040b8a0 f i clientde_impl.obj
 0001:0000a8c0       ?Append@CPacket_Data@@QAE_NII@Z 0040b8c0 f i clientde_impl.obj
 0001:0000a940       ?RefreshIterator@CPacket_Read@@AAEXXZ 0040b940 f i clientde_impl.obj
 0001:0000a9a0       ?ps_AddParticle@@YAPAUPSParticle@@PAVLTParticleSystem@@PBU?$TVector3@M@@11M@Z 0040b9a0 f i clientde_impl.obj
 0001:0000aa90       ?Normalize@?$TVector3@M@@QAEABU1@XZ 0040ba90 f i clientde_impl.obj
 0001:0000aad0       ?ci_SetObjectScale@@YAIPAVLTObject@@PBU?$TVector3@M@@@Z 0040bad0 f   clientde_impl.obj
 0001:0000ab60       ?ci_SetObjectPosAndRotation@@YAXPAVLTObject@@PBU?$TVector3@M@@PBULTRotation@@@Z 0040bb60 f   clientde_impl.obj
 0001:0000abb0       ?ci_FindObjectsInSphere@@YAIPBU?$TVector3@M@@MPAPAVLTObject@@IPAI2@Z 0040bbb0 f   clientde_impl.obj
 0001:0000ac80       ?ci_FindObjectsInBox@@YAIPBU?$TVector3@M@@MPAPAVLTObject@@IPAI2@Z 0040bc80 f   clientde_impl.obj
 0001:0000ad40       ?_InterfaceImplementation@CLTClient@@UAEPBDXZ 0040bd40 f i clientde_impl.obj
 0001:0000ad50       ?SetObjectPos@CLTClient@@UAEIPAVLTObject@@PBU?$TVector3@M@@_N@Z 0040bd50 f   clientde_impl.obj
 0001:0000add0       ?AddParticle@CLTClient@@UAEPAULTParticle@@PAVLTObject@@PBU?$TVector3@M@@11M@Z 0040bdd0 f   clientde_impl.obj
 0001:0000ae10       ?GetMaxRadiusInPoly@CLTClient@@UAEIUHPOLY@@ABU?$TVector3@M@@AAM@Z 0040be10 f   clientde_impl.obj
 0001:0000b030       ?SetGlobalLightDir@CLTClient@@UAEIABU?$TVector3@M@@@Z 0040c030 f   clientde_impl.obj
 0001:0000b060       ?_IsPointInContainer@@YA_NPBU?$TVector3@M@@PAVContainerInstance@@@Z 0040c060 f   clientde_impl.obj
 0001:0000b110       ?ci_CastRay@@YA_NPAVIntersectQuery@@PAUIntersectInfo@@@Z 0040c110 f   clientde_impl.obj
 0001:0000b1b0       ?ci_SetGlobalLightScale@@YAXPBU?$TVector3@M@@@Z 0040c1b0 f   clientde_impl.obj
 0001:0000b2a0       ?ci_OffsetGlobalLightScale@@YAXPBU?$TVector3@M@@@Z 0040c2a0 f   clientde_impl.obj
 0001:0000b3b0       ?ci_Get3DCameraPt@@YAIPAVLTObject@@HHPAU?$TVector3@M@@@Z 0040c3b0 f   clientde_impl.obj
 0001:0000b5f0       ?ci_SetCameraFOV@@YAXPAVLTObject@@MM@Z 0040c5f0 f   clientde_impl.obj
 0001:0000b690       ?ci_RemoveParticle@@YAXPAVLTObject@@PAULTParticle@@@Z 0040c690 f   clientde_impl.obj
 0001:0000b6e0       ?ci_GetPointContainersCB@@YAXPAVWorldTreeObj@@PAX@Z 0040c6e0 f   clientde_impl.obj
 0001:0000b730       ?InitFunctionPointers@CLTClient@@QAEXXZ 0040c730 f   clientde_impl.obj
 0001:0000bc20       ?NearlyEquals@?$TVector3@M@@QBE_NABU1@M@Z 0040cc20 f i clientde_impl.obj
 0001:0000bc70       ?SeekTo@CPacket_Read@@QAEXI@Z 0040cc70 f i clientde_impl.obj
 0001:0000bc90       ?Init@CPacket_Read@@AAEXAAVCPacket_Write@@@Z 0040cc90 f i clientde_impl.obj
 0001:0000bd20       ?SendTo@CLTClient@@UAEIPAVILTMessage_Read@@PBDG@Z 0040cd20 f   clientde_impl.obj
 0001:0000bf00       ?StartPing@CLTClient@@UAEIPBDGPAI@Z 0040cf00 f   clientde_impl.obj
 0001:0000bf60       ?GetPingStatus@CLTClient@@UAEIIPAI0@Z 0040cf60 f   clientde_impl.obj
 0001:0000bfa0       ?RemovePing@CLTClient@@UAEII@Z 0040cfa0 f   clientde_impl.obj
 0001:0000bfe0       ?GetPointContainers@CLTClient@@UAEIPBU?$TVector3@M@@PAPAVLTObject@@I@Z 0040cfe0 f   clientde_impl.obj
 0001:0000c070       ?SetLightGroupColor@CLTClient@@UAEIIABU?$TVector3@M@@@Z 0040d070 f   clientde_impl.obj
 0001:0000c100       ?CreateLTClient@@YAXXZ     0040d100 f   clientde_impl.obj
 0001:0000c110       ??0CPacket_Read@@QAE@AAVCPacket_Write@@@Z 0040d110 f i clientde_impl.obj
 0001:0000c130       ?SendToServer@CLTClient@@UAEIPAVILTMessage_Read@@I@Z 0040d130 f   clientde_impl.obj
 0001:0000c340       ??1BaseObjectBank@@UAE@XZ  0040d340 f i clientmgr.obj
 0001:0000c350       ??_GBaseObjectBank@@UAEPAXI@Z 0040d350 f i clientmgr.obj
 0001:0000c350       ??_EBaseObjectBank@@UAEPAXI@Z 0040d350 f i clientmgr.obj
 0001:0000c370       ?HasWorldModel@@YA_NPAVLTObject@@@Z 0040d370 f i clientmgr.obj
 0001:0000c390       ??0CountAdder@@QAE@PAI@Z   0040d390 f i clientmgr.obj
 0001:0000c3b0       ??1CountAdder@@QAE@XZ      0040d3b0 f i clientmgr.obj
 0001:0000c3d0       ??1CDefaultNetHandler@CClientMgr@@UAE@XZ 0040d3d0 f i clientmgr.obj
 0001:0000c3d0       ??1CNetHandler@@UAE@XZ     0040d3d0 f i clientmgr.obj
 0001:0000c3e0       ??_ECNetHandler@@UAEPAXI@Z 0040d3e0 f i clientmgr.obj
 0001:0000c3e0       ??_GCNetHandler@@UAEPAXI@Z 0040d3e0 f i clientmgr.obj
 0001:0000c400       ?GetMusicMgr@@YAPAUSMusicMgr@@XZ 0040d400 f   clientmgr.obj
 0001:0000c410       ?_GetRModeFromConsoleVariables@@YAXPAURMode@@@Z 0040d410 f   clientmgr.obj
 0001:0000c480       ?TermClientShellDE@CClientMgr@@QAEXXZ 0040d480 f   clientmgr.obj
 0001:0000c510       ?OnEnterWorld@CClientMgr@@QAEXPAVCClientShell@@@Z 0040d510 f   clientmgr.obj
 0001:0000c530       ?EndShell@CClientMgr@@QAEXXZ 0040d530 f   clientmgr.obj
 0001:0000c580       ?AppInitMusic@CClientMgr@@QAEIPBD@Z 0040d580 f   clientmgr.obj
 0001:0000c710       ?BindClientShellWorlds@CClientMgr@@QAE_NXZ 0040d710 f   clientmgr.obj
 0001:0000c730       ?UnbindClientShellWorlds@CClientMgr@@QAEXXZ 0040d730 f   clientmgr.obj
 0001:0000c740       ?BindSharedTextures@CClientMgr@@QAEXXZ 0040d740 f   clientmgr.obj
 0001:0000c780       ?UnbindSharedTextures@CClientMgr@@QAEX_N@Z 0040d780 f   clientmgr.obj
 0001:0000c7c0       ?InitConsole@CClientMgr@@QAEXXZ 0040d7c0 f   clientmgr.obj
 0001:0000c810       ?TermConsole@CClientMgr@@QAEXXZ 0040d810 f   clientmgr.obj
 0001:0000c820       ?ProcessAllInput@CClientMgr@@QAEX_N@Z 0040d820 f   clientmgr.obj
 0001:0000ca30       ?ClearInput@CClientMgr@@QAEIXZ 0040da30 f   clientmgr.obj
 0001:0000ca60       ?IsCommandOn@CClientMgr@@QBE_NI@Z 0040da60 f   clientmgr.obj
 0001:0000caa0       ?ShowDrawSurface@CClientMgr@@QAEXI@Z 0040daa0 f   clientmgr.obj
 0001:0000cad0       ?PlaySoundA@CClientMgr@@QAEIPAUPlaySoundInfo@@PAVFileRef@@M@Z 0040dad0 f   clientmgr.obj
 0001:0000cb90       ?UpdateAllSounds@CClientMgr@@QAEXXZ 0040db90 f   clientmgr.obj
 0001:0000ccb0       ?LoadModel@CClientMgr@@QAEIABVFileRef@@AAPAVModel@@@Z 0040dcb0 f   clientmgr.obj
 0001:0000cde0       ?LoadModel@CClientMgr@@QAEIPBDAAPAVModel@@@Z 0040dde0 f   clientmgr.obj
 0001:0000cee0       ?LoadModelData@CClientMgr@@AAEIPAUFileIdentifier@@AAPAVModel@@@Z 0040dee0 f   clientmgr.obj
 0001:0000d1b0       ?OnEnterServer@CClientMgr@@QAEXXZ 0040e1b0 f   clientmgr.obj
 0001:0000d200       ?OnExitServer@CClientMgr@@QAEXPAVCClientShell@@@Z 0040e200 f   clientmgr.obj
 0001:0000d240       ?RunCommandLine@CClientMgr@@QAEXI@Z 0040e240 f   clientmgr.obj
 0001:0000d2d0       ?StartRenderFromGlobals@CClientMgr@@QAEIXZ 0040e2d0 f   clientmgr.obj
 0001:0000d300       ?RebindTextures@CClientMgr@@QAEXXZ 0040e300 f   clientmgr.obj
 0001:0000d340       ?LogTextureMemory@CClientMgr@@QAEXPBD@Z 0040e340 f   clientmgr.obj
 0001:0000d450       ?AddObjectToClientWorld@CClientMgr@@QAEIGPAVInternalObjectSetup@@PAPAVLTObject@@_N2@Z 0040e450 f   clientmgr.obj
 0001:0000d5b0       ?UpdateParticleSystems@CClientMgr@@QAEXXZ 0040e5b0 f   clientmgr.obj
 0001:0000d6c0       ?UpdateAnimations@CClientMgr@@QAEXXZ 0040e6c0 f   clientmgr.obj
 0001:0000d720       ?UpdatePolyGrids@CClientMgr@@QAEXXZ 0040e720 f   clientmgr.obj
 0001:0000d7a0       ?UpdateLineSystems@CClientMgr@@QAEXXZ 0040e7a0 f   clientmgr.obj
 0001:0000d890       ?UpdateModels@CClientMgr@@QAEXXZ 0040e890 f   clientmgr.obj
 0001:0000d9a0       ?UpdateObjects@CClientMgr@@QAEXXZ 0040e9a0 f   clientmgr.obj
 0001:0000da50       ??1?$ObjectBank@VLTObject@@VNullCS@@@@UAE@XZ 0040ea50 f i clientmgr.obj
 0001:0000daa0       ?Term@?$ObjectBank@VLTObject@@VNullCS@@@@UAEXXZ 0040eaa0 f i clientmgr.obj
 0001:0000dac0       ??1?$ObjectBank@VModelInstance@@VNullCS@@@@UAE@XZ 0040eac0 f i clientmgr.obj
 0001:0000db10       ?Term@?$ObjectBank@VModelInstance@@VNullCS@@@@UAEXXZ 0040eb10 f i clientmgr.obj
 0001:0000db30       ??1?$ObjectBank@VWorldModelInstance@@VNullCS@@@@UAE@XZ 0040eb30 f i clientmgr.obj
 0001:0000db80       ?Term@?$ObjectBank@VWorldModelInstance@@VNullCS@@@@UAEXXZ 0040eb80 f i clientmgr.obj
 0001:0000dba0       ??1?$ObjectBank@VSpriteInstance@@VNullCS@@@@UAE@XZ 0040eba0 f i clientmgr.obj
 0001:0000dbf0       ?Term@?$ObjectBank@VSpriteInstance@@VNullCS@@@@UAEXXZ 0040ebf0 f i clientmgr.obj
 0001:0000dbf0       ?Term@?$ObjectBank@VCameraInstance@@VNullCS@@@@UAEXXZ 0040ebf0 f i clientmgr.obj
 0001:0000dc10       ??1?$ObjectBank@VDynamicLight@@VNullCS@@@@UAE@XZ 0040ec10 f i clientmgr.obj
 0001:0000dc60       ?Term@?$ObjectBank@VDynamicLight@@VNullCS@@@@UAEXXZ 0040ec60 f i clientmgr.obj
 0001:0000dc80       ??1?$ObjectBank@VCameraInstance@@VNullCS@@@@UAE@XZ 0040ec80 f i clientmgr.obj
 0001:0000dcd0       ??1?$ObjectBank@VLTParticleSystem@@VNullCS@@@@UAE@XZ 0040ecd0 f i clientmgr.obj
 0001:0000dd20       ?Term@?$ObjectBank@VLTParticleSystem@@VNullCS@@@@UAEXXZ 0040ed20 f i clientmgr.obj
 0001:0000dd40       ??1?$ObjectBank@VLTPolyGrid@@VNullCS@@@@UAE@XZ 0040ed40 f i clientmgr.obj
 0001:0000dd90       ?Term@?$ObjectBank@VLTPolyGrid@@VNullCS@@@@UAEXXZ 0040ed90 f i clientmgr.obj
 0001:0000ddb0       ??1?$ObjectBank@VLineSystem@@VNullCS@@@@UAE@XZ 0040edb0 f i clientmgr.obj
 0001:0000de00       ?Term@?$ObjectBank@VLineSystem@@VNullCS@@@@UAEXXZ 0040ee00 f i clientmgr.obj
 0001:0000de20       ??1?$ObjectBank@VContainerInstance@@VNullCS@@@@UAE@XZ 0040ee20 f i clientmgr.obj
 0001:0000de70       ?Term@?$ObjectBank@VContainerInstance@@VNullCS@@@@UAEXXZ 0040ee70 f i clientmgr.obj
 0001:0000de90       ??1?$ObjectBank@VCanvas@@VNullCS@@@@UAE@XZ 0040ee90 f i clientmgr.obj
 0001:0000dee0       ?Term@?$ObjectBank@VCanvas@@VNullCS@@@@UAEXXZ 0040eee0 f i clientmgr.obj
 0001:0000df00       ??1?$ObjectBank@VLTVolumeEffect@@VNullCS@@@@UAE@XZ 0040ef00 f i clientmgr.obj
 0001:0000df50       ?Term@?$ObjectBank@VLTVolumeEffect@@VNullCS@@@@UAEXXZ 0040ef50 f i clientmgr.obj
 0001:0000df70       ??1?$ObjectBank@VSharedTexture@@VNullCS@@@@UAE@XZ 0040ef70 f i clientmgr.obj
 0001:0000dfc0       ?Term@?$ObjectBank@VSharedTexture@@VNullCS@@@@UAEXXZ 0040efc0 f i clientmgr.obj
 0001:0000dfe0       ??1?$ObjectBank@VLTLink@@VNullCS@@@@UAE@XZ 0040efe0 f i clientmgr.obj
 0001:0000e030       ?Term@?$ObjectBank@VLTLink@@VNullCS@@@@UAEXXZ 0040f030 f i clientmgr.obj
 0001:0000e050       ??0?$CAPIHolder@VIServerFileMgr@@@@QAE@PBDAAPAVIServerFileMgr@@H@Z 0040f050 f i clientmgr.obj
 0001:0000e0c0       ??1?$CAPIHolder@VIServerFileMgr@@@@UAE@XZ 0040f0c0 f i clientmgr.obj
 0001:0000e130       ??_G?$ObjectBank@VLTObject@@VNullCS@@@@UAEPAXI@Z 0040f130 f i clientmgr.obj
 0001:0000e130       ??_E?$ObjectBank@VLTObject@@VNullCS@@@@UAEPAXI@Z 0040f130 f i clientmgr.obj
 0001:0000e150       ??_G?$ObjectBank@VModelInstance@@VNullCS@@@@UAEPAXI@Z 0040f150 f i clientmgr.obj
 0001:0000e150       ??_E?$ObjectBank@VModelInstance@@VNullCS@@@@UAEPAXI@Z 0040f150 f i clientmgr.obj
 0001:0000e170       ??_E?$ObjectBank@VWorldModelInstance@@VNullCS@@@@UAEPAXI@Z 0040f170 f i clientmgr.obj
 0001:0000e170       ??_G?$ObjectBank@VWorldModelInstance@@VNullCS@@@@UAEPAXI@Z 0040f170 f i clientmgr.obj
 0001:0000e190       ??_E?$ObjectBank@VSpriteInstance@@VNullCS@@@@UAEPAXI@Z 0040f190 f i clientmgr.obj
 0001:0000e190       ??_G?$ObjectBank@VSpriteInstance@@VNullCS@@@@UAEPAXI@Z 0040f190 f i clientmgr.obj
 0001:0000e1b0       ??_G?$ObjectBank@VDynamicLight@@VNullCS@@@@UAEPAXI@Z 0040f1b0 f i clientmgr.obj
 0001:0000e1b0       ??_E?$ObjectBank@VDynamicLight@@VNullCS@@@@UAEPAXI@Z 0040f1b0 f i clientmgr.obj
 0001:0000e1d0       ??_G?$ObjectBank@VCameraInstance@@VNullCS@@@@UAEPAXI@Z 0040f1d0 f i clientmgr.obj
 0001:0000e1d0       ??_E?$ObjectBank@VCameraInstance@@VNullCS@@@@UAEPAXI@Z 0040f1d0 f i clientmgr.obj
 0001:0000e1f0       ??_E?$ObjectBank@VLTParticleSystem@@VNullCS@@@@UAEPAXI@Z 0040f1f0 f i clientmgr.obj
 0001:0000e1f0       ??_G?$ObjectBank@VLTParticleSystem@@VNullCS@@@@UAEPAXI@Z 0040f1f0 f i clientmgr.obj
 0001:0000e210       ??_G?$ObjectBank@VLTPolyGrid@@VNullCS@@@@UAEPAXI@Z 0040f210 f i clientmgr.obj
 0001:0000e210       ??_E?$ObjectBank@VLTPolyGrid@@VNullCS@@@@UAEPAXI@Z 0040f210 f i clientmgr.obj
 0001:0000e230       ??_E?$ObjectBank@VLineSystem@@VNullCS@@@@UAEPAXI@Z 0040f230 f i clientmgr.obj
 0001:0000e230       ??_G?$ObjectBank@VLineSystem@@VNullCS@@@@UAEPAXI@Z 0040f230 f i clientmgr.obj
 0001:0000e250       ??_G?$ObjectBank@VContainerInstance@@VNullCS@@@@UAEPAXI@Z 0040f250 f i clientmgr.obj
 0001:0000e250       ??_E?$ObjectBank@VContainerInstance@@VNullCS@@@@UAEPAXI@Z 0040f250 f i clientmgr.obj
 0001:0000e270       ??_E?$ObjectBank@VCanvas@@VNullCS@@@@UAEPAXI@Z 0040f270 f i clientmgr.obj
 0001:0000e270       ??_G?$ObjectBank@VCanvas@@VNullCS@@@@UAEPAXI@Z 0040f270 f i clientmgr.obj
 0001:0000e290       ??_E?$ObjectBank@VLTVolumeEffect@@VNullCS@@@@UAEPAXI@Z 0040f290 f i clientmgr.obj
 0001:0000e290       ??_G?$ObjectBank@VLTVolumeEffect@@VNullCS@@@@UAEPAXI@Z 0040f290 f i clientmgr.obj
 0001:0000e2b0       ??_E?$ObjectBank@VSharedTexture@@VNullCS@@@@UAEPAXI@Z 0040f2b0 f i clientmgr.obj
 0001:0000e2b0       ??_G?$ObjectBank@VSharedTexture@@VNullCS@@@@UAEPAXI@Z 0040f2b0 f i clientmgr.obj
 0001:0000e2d0       ??_E?$ObjectBank@VLTLink@@VNullCS@@@@UAEPAXI@Z 0040f2d0 f i clientmgr.obj
 0001:0000e2d0       ??_G?$ObjectBank@VLTLink@@VNullCS@@@@UAEPAXI@Z 0040f2d0 f i clientmgr.obj
 0001:0000e2f0       ??_E?$CAPIHolder@VIServerFileMgr@@@@UAEPAXI@Z 0040f2f0 f i clientmgr.obj
 0001:0000e2f0       ??_G?$CAPIHolder@VIServerFileMgr@@@@UAEPAXI@Z 0040f2f0 f i clientmgr.obj
 0001:0000e310       ?Release@Model@@QAEIXZ     0040f310 f i clientmgr.obj
 0001:0000e340       ?SetForce@MotionInfo@@QAEXPBU?$TVector3@M@@@Z 0040f340 f i clientmgr.obj
 0001:0000e3d0       ??1ObjectMgr@@QAE@XZ       0040f3d0 f i clientmgr.obj
 0001:0000e4d0       ??_GCDefaultNetHandler@CClientMgr@@UAEPAXI@Z 0040f4d0 f i clientmgr.obj
 0001:0000e4d0       ??_ECDefaultNetHandler@CClientMgr@@UAEPAXI@Z 0040f4d0 f i clientmgr.obj
 0001:0000e4f0       ?Init@CClientMgr@@QAEIQAPBDIIPAPBD@Z 0040f4f0 f   clientmgr.obj
 0001:0000e8d0       ?OnExitWorld@CClientMgr@@QAEXPAVCClientShell@@@Z 0040f8d0 f   clientmgr.obj
 0001:0000e8f0       ?cm_HandleMaxFPS@@YAXI@Z   0040f8f0 f   clientmgr.obj
 0001:0000e9e0       ?Update@CClientMgr@@QAEIXZ 0040f9e0 f   clientmgr.obj
 0001:0000efa0       ??1CClientMgr@@QAE@XZ      0040ffa0 f   clientmgr.obj
 0001:0000f010       ?CacheModelFile@CClientMgr@@QAEIPBD@Z 00410010 f   clientmgr.obj
 0001:0000f0d0       ?CacheModelFile@CClientMgr@@QAEIABVFileRef@@@Z 004100d0 f   clientmgr.obj
 0001:0000f190       ?UncacheModelFile@CClientMgr@@QAEIPAVModel@@@Z 00410190 f   clientmgr.obj
 0001:0000f1f0       ?RemoveClientObject@CClientMgr@@QAEXPAVLTObject@@@Z 004101f0 f   clientmgr.obj
 0001:0000f240       ?MakeCubicEnvMap@CClientMgr@@QAE_NPAVCameraInstance@@IPBD@Z 00410240 f   clientmgr.obj
 0001:0000f500       ?RemoveObjectFromClientWorld@CClientMgr@@QAEIPAVLTObject@@@Z 00410500 f   clientmgr.obj
 0001:0000f570       ?HandleUnknownPacket@CDefaultNetHandler@CClientMgr@@EAEXABVCPacket_Read@@QAEG@Z 00410570 f   clientmgr.obj
 0001:0000f5f0       ?AllocVoid@?$ObjectBank@VLTObject@@VNullCS@@@@UAEPAXXZ 004105f0 f i clientmgr.obj
 0001:0000f600       ?Allocate@?$ObjectBank@VLTObject@@VNullCS@@@@QAEPAVLTObject@@XZ 00410600 f i clientmgr.obj
 0001:0000f660       ?AllocVoid@?$ObjectBank@VModelInstance@@VNullCS@@@@UAEPAXXZ 00410660 f i clientmgr.obj
 0001:0000f670       ?Allocate@?$ObjectBank@VModelInstance@@VNullCS@@@@QAEPAVModelInstance@@XZ 00410670 f i clientmgr.obj
 0001:0000f6f0       ?AllocVoid@?$ObjectBank@VWorldModelInstance@@VNullCS@@@@UAEPAXXZ 004106f0 f i clientmgr.obj
 0001:0000f700       ?Allocate@?$ObjectBank@VWorldModelInstance@@VNullCS@@@@QAEPAVWorldModelInstance@@XZ 00410700 f i clientmgr.obj
 0001:0000f780       ?AllocVoid@?$ObjectBank@VSpriteInstance@@VNullCS@@@@UAEPAXXZ 00410780 f i clientmgr.obj
 0001:0000f790       ?Allocate@?$ObjectBank@VSpriteInstance@@VNullCS@@@@QAEPAVSpriteInstance@@XZ 00410790 f i clientmgr.obj
 0001:0000f810       ?AllocVoid@?$ObjectBank@VDynamicLight@@VNullCS@@@@UAEPAXXZ 00410810 f i clientmgr.obj
 0001:0000f820       ?Allocate@?$ObjectBank@VDynamicLight@@VNullCS@@@@QAEPAVDynamicLight@@XZ 00410820 f i clientmgr.obj
 0001:0000f8a0       ?AllocVoid@?$ObjectBank@VCameraInstance@@VNullCS@@@@UAEPAXXZ 004108a0 f i clientmgr.obj
 0001:0000f8b0       ?Allocate@?$ObjectBank@VCameraInstance@@VNullCS@@@@QAEPAVCameraInstance@@XZ 004108b0 f i clientmgr.obj
 0001:0000f930       ?AllocVoid@?$ObjectBank@VLTParticleSystem@@VNullCS@@@@UAEPAXXZ 00410930 f i clientmgr.obj
 0001:0000f940       ?Allocate@?$ObjectBank@VLTParticleSystem@@VNullCS@@@@QAEPAVLTParticleSystem@@XZ 00410940 f i clientmgr.obj
 0001:0000f9c0       ?AllocVoid@?$ObjectBank@VLTPolyGrid@@VNullCS@@@@UAEPAXXZ 004109c0 f i clientmgr.obj
 0001:0000f9d0       ?Allocate@?$ObjectBank@VLTPolyGrid@@VNullCS@@@@QAEPAVLTPolyGrid@@XZ 004109d0 f i clientmgr.obj
 0001:0000fa50       ?AllocVoid@?$ObjectBank@VLineSystem@@VNullCS@@@@UAEPAXXZ 00410a50 f i clientmgr.obj
 0001:0000fa60       ?Allocate@?$ObjectBank@VLineSystem@@VNullCS@@@@QAEPAVLineSystem@@XZ 00410a60 f i clientmgr.obj
 0001:0000fae0       ?AllocVoid@?$ObjectBank@VContainerInstance@@VNullCS@@@@UAEPAXXZ 00410ae0 f i clientmgr.obj
 0001:0000faf0       ?Allocate@?$ObjectBank@VContainerInstance@@VNullCS@@@@QAEPAVContainerInstance@@XZ 00410af0 f i clientmgr.obj
 0001:0000fb70       ?AllocVoid@?$ObjectBank@VCanvas@@VNullCS@@@@UAEPAXXZ 00410b70 f i clientmgr.obj
 0001:0000fb80       ?Allocate@?$ObjectBank@VCanvas@@VNullCS@@@@QAEPAVCanvas@@XZ 00410b80 f i clientmgr.obj
 0001:0000fc00       ?AllocVoid@?$ObjectBank@VLTVolumeEffect@@VNullCS@@@@UAEPAXXZ 00410c00 f i clientmgr.obj
 0001:0000fc10       ?Allocate@?$ObjectBank@VLTVolumeEffect@@VNullCS@@@@QAEPAVLTVolumeEffect@@XZ 00410c10 f i clientmgr.obj
 0001:0000fc90       ?AllocVoid@?$ObjectBank@UFileIdentifier@@VNullCS@@@@UAEPAXXZ 00410c90 f i client_filemgr.obj
 0001:0000fc90       ?AllocVoid@?$ObjectBank@VLTLink@@VNullCS@@@@UAEPAXXZ 00410c90 f i clientmgr.obj
 0001:0000fc90       ?AllocVoid@?$ObjectBank@UHashElement@@VNullCS@@@@UAEPAXXZ 00410c90 f i dhashtable.obj
 0001:0000fc90       ?AllocVoid@?$ObjectBank@UServerFile@@VNullCS@@@@UAEPAXXZ 00410c90 f i client_filemgr.obj
 0001:0000fc90       ?AllocVoid@?$ObjectBank@UFTFile@@VNullCS@@@@UAEPAXXZ 00410c90 f i ftserv.obj
 0001:0000fca0       ??0?$ObjectBank@VSharedTexture@@VNullCS@@@@QAE@XZ 00410ca0 f i clientmgr.obj
 0001:0000fcf0       ??0?$ObjectBank@VLTLink@@VNullCS@@@@QAE@II@Z 00410cf0 f i clientmgr.obj
 0001:0000fd50       ??0CClientMgr@@QAE@XZ      00410d50 f   clientmgr.obj
 0001:0000fe30       ?RemoveObjectsInList@CClientMgr@@QAEXPAVLTList@@_N@Z 00410e30 f   clientmgr.obj
 0001:0000fe80       ?Render@CClientMgr@@QAE_NPAVCameraInstance@@HPAPAVLTObject@@HM@Z 00410e80 f   clientmgr.obj
 0001:00010210       ?AllocVoid@?$ObjectBank@VSharedTexture@@VNullCS@@@@UAEPAXXZ 00411210 f i clientmgr.obj
 0001:00010220       ?Allocate@?$ObjectBank@VSharedTexture@@VNullCS@@@@QAEPAVSharedTexture@@XZ 00411220 f i clientmgr.obj
 0001:000102a0       ??0SharedTexture@@QAE@XZ   004112a0 f i clientmgr.obj
 0001:000102d0       ?StartShell@CClientMgr@@QAEIPAVStartGameRequest@@@Z 004112d0 f   clientmgr.obj
 0001:00010730       ?Term@CClientMgr@@QAEXXZ   00411730 f   clientmgr.obj
 0001:00010950       ?cm_Init@@YAXXZ            00411950 f   clientmgr.obj
 0001:00010c80       ?Init@CClientShell@@QAE_NXZ 00411c80 f   clientshell.obj
 0001:00010cd0       ?CreateServerMgr@CClientShell@@QAEIXZ 00411cd0 f   clientshell.obj
 0001:00010dd0       ?Update@CClientShell@@QAEIXZ 00411dd0 f   clientshell.obj
 0001:00011150       ?RemoveAllObjects@CClientShell@@QAEXXZ 00412150 f   clientshell.obj
 0001:00011190       ?BindWorlds@CClientShell@@QAE_NXZ 00412190 f   clientshell.obj
 0001:000111e0       ?UnbindWorlds@CClientShell@@QAEXXZ 004121e0 f   clientshell.obj
 0001:00011220       ?GetClientFileIDInfo@CClientShell@@QAEPAUFileIDInfo@@G@Z 00412220 f   clientshell.obj
 0001:000112d0       ?SetPolyTexturePointers@WorldBsp@@QAEXXZ 004122d0 f   clientshell.obj
 0001:00011390       ?CloseWorlds@CClientShell@@QAEXXZ 00412390 f   clientshell.obj
 0001:000114a0       ??0CClientShell@@QAE@XZ    004124a0 f   clientshell.obj
 0001:00011530       ?Term@CClientShell@@QAEXXZ 00412530 f   clientshell.obj
 0001:00011660       ?StartupLocal@CClientShell@@QAEIPAVStartGameRequest@@_NPAVCBaseDriver@@@Z 00412660 f   clientshell.obj
 0001:00011820       ?cs_UnloadWorld@@YAXPAVCClientShell@@@Z 00412820 f   clientshell.obj
 0001:00011850       ?Init@CPacket_Read@@AAEXABV1@II@Z 00412850 f i clientshell.obj
 0001:000118e0       ??1CClientShell@@UAE@XZ    004128e0 f   clientshell.obj
 0001:00011930       ?CreateVisContainerObjects@CClientShell@@QAE_NXZ 00412930 f   clientshell.obj
 0001:00011b10       ?clienthack_UnloadWorld@@YAXXZ 00412b10 f   clientshell.obj
 0001:00011b60       ??_ECClientShell@@UAEPAXI@Z 00412b60 f i clientshell.obj
 0001:00011b60       ??_GCClientShell@@UAEPAXI@Z 00412b60 f i clientshell.obj
 0001:00011b80       ?SendCommandToServer@CClientShell@@QAEXPAD@Z 00412b80 f   clientshell.obj
 0001:00011c70       ?DoLoadWorld@CClientShell@@QAEIABVCPacket_Read@@_N@Z 00412c70 f   clientshell.obj
 0001:000121b0       ?GetPhysics@CMoveAbstract@@UAEPAVILTPhysics@@XZ 004131b0 f   cmoveabstract.obj
 0001:000121c0       ?GetCollisionInfo@CMoveAbstract@@UAEAAPAUCollisionInfo@@XZ 004131c0 f   cmoveabstract.obj
 0001:000121d0       ?ShouldPushObject@CMoveAbstract@@UAEIPAVMoveState@@PAVLTObject@@1@Z 004131d0 f   cmoveabstract.obj
 0001:00012210       ?GetObjectClassName@CMoveAbstract@@UAEPADPAVLTObject@@@Z 00413210 f   cmoveabstract.obj
 0001:00012220       ?DoTouchNotify@CMoveAbstract@@UAEXPAVLTObject@@0AAU?$TVector3@M@@M@Z 00413220 f   cmoveabstract.obj
 0001:00012280       ?SendUpdate@CClientMgr@@QAEXPAVCNetMgr@@PAVCBaseConn@@@Z 00413280 f   cnet.obj
 0001:00012430       ?intersects@AABB@@QBE_NABU?$TVector3@M@@@Z 00413430 f i collision.obj
 0001:00012490       ?ClassifyHighX@@YAHPAUClassifyPoints@@@Z 00413490 f   collision.obj
 0001:000124f0       ?ClassifyLowX@@YAHPAUClassifyPoints@@@Z 004134f0 f   collision.obj
 0001:00012550       ?ClassifyHighY@@YAHPAUClassifyPoints@@@Z 00413550 f   collision.obj
 0001:000125b0       ?ClassifyLowY@@YAHPAUClassifyPoints@@@Z 004135b0 f   collision.obj
 0001:00012610       ?ClassifyHighZ@@YAHPAUClassifyPoints@@@Z 00413610 f   collision.obj
 0001:00012670       ?ClassifyLowZ@@YAHPAUClassifyPoints@@@Z 00413670 f   collision.obj
 0001:000126d0       ?QueueEdgeIfIntersectsX@@YAXMMMMMMPAU?$TVector3@M@@AAI@Z 004136d0 f i collision.obj
 0001:00012730       ?QueueEdgeIfIntersectsY@@YAXMMMMMMPAU?$TVector3@M@@AAI@Z 00413730 f i collision.obj
 0001:00012790       ?QueueEdgeIfIntersectsZ@@YAXMMMMMMPAU?$TVector3@M@@AAI@Z 00413790 f i collision.obj
 0001:000127f0       ?AABBIntersectsLineSegment@@YA_NABU?$TVector3@M@@000@Z 004137f0 f i collision.obj
 0001:00012940       ??Z?$TVector3@M@@QAEABU0@ABU0@@Z 00413940 f i collision.obj
 0001:00012970       ??X?$TVector3@M@@QAEABU0@M@Z 00413970 f i collision.obj
 0001:000129a0       ?size@?$vector@UCGuaranteedObjTrack@@V?$allocator@UCGuaranteedObjTrack@@@std@@@std@@QBEIXZ 004139a0 f i s_client.obj
 0001:000129a0       ?size@?$vector@VObjectDrawer@@V?$allocator@VObjectDrawer@@@std@@@std@@QBEIXZ 004139a0 f i LIB_D3DRender:drawobjects.obj
 0001:000129a0       ?size@?$vector@U?$TVector3@M@@V?$allocator@U?$TVector3@M@@@std@@@std@@QBEIXZ 004139a0 f i collision.obj
 0001:000129c0       ?_Xlen@?$vector@U?$TVector3@M@@V?$allocator@U?$TVector3@M@@@std@@@std@@IBEXXZ 004139c0 f i collision.obj
 0001:00012a40       ?Norm@?$TVector3@M@@QAEXM@Z 00413a40 f i collision.obj
 0001:00012aa0       ??0?$CAPIHolder@VIWorldBlockerData@@@@QAE@PBDAAPAVIWorldBlockerData@@H@Z 00413aa0 f i collision.obj
 0001:00012b10       ??1?$CAPIHolder@VIWorldBlockerData@@@@UAE@XZ 00413b10 f i collision.obj
 0001:00012b80       ??$LTMIN@MM@@YAMMM@Z       00413b80 f i collision.obj
 0001:00012ba0       ??$LTMAX@MM@@YAMMM@Z       00413ba0 f i collision.obj
 0001:00012bc0       ??$fill@PAU?$TVector3@M@@U1@@std@@YAXPAU?$TVector3@M@@0ABU1@@Z 00413bc0 f i collision.obj
 0001:00012bc0       ??$fill@PAVObjectDrawer@@V1@@std@@YAXPAVObjectDrawer@@0ABV1@@Z 00413bc0 f i LIB_D3DRender:drawobjects.obj
 0001:00012bf0       ??_G?$CAPIHolder@VIWorldBlockerData@@@@UAEPAXI@Z 00413bf0 f i collision.obj
 0001:00012bf0       ??_E?$CAPIHolder@VIWorldBlockerData@@@@UAEPAXI@Z 00413bf0 f i collision.obj
 0001:00013020       ?WorldPolyIntersectsAABB@@YA_NABUPhysicsSphere@@ABVWorldPoly@@ABUAABB@@@Z 00414020 f   collision.obj
 0001:000135d0       ??4LTRotation@@QAEAAU0@ABU0@@Z 004145d0 f i clientde_impl.obj
 0001:000135d0       ??4LTPlane@@QAEAAU0@ABU0@@Z 004145d0 f i collision.obj
 0001:000135f0       ?Recalc@CMovingCylinder@@QAEXXZ 004145f0 f   collision.obj
 0001:00013740       ?GetPlaneSide@CMovingCylinder@@QAE?AW4PolySide@@PBULTPlane@@AAU?$TVector3@M@@_N2@Z 00414740 f   collision.obj
 0001:00013900       ?ClipPolyToYRange@@YA_NPAVWorldPoly@@PAU?$TVector3@M@@IPAIMM@Z 00414900 f   collision.obj
 0001:000142f0       ?DoesBoxIntersectBSP@@YA_NPBVNode@@ABU?$TVector3@M@@1_N@Z 004152f0 f   collision.obj
 0001:000144e0       ?DoObjectCollisionResponse@@YAXAAUCollideRequest@@PAUCollideInfo@@PBVNode@@_N@Z 004154e0 f   collision.obj
 0001:00014610       ?DoInterObjectCollisionResponse@@YAXPAVMoveAbstract@@PAVLTObject@@1PAU?$TVector3@M@@MUHPOLY@@@Z 00415610 f   collision.obj
 0001:000148a0       ??9?$TVector3@M@@QBE_NABU0@@Z 004158a0 f i collision.obj
 0001:000148f0       ??$copy_backward@PAVObjectDrawer@@PAV1@@std@@YAPAVObjectDrawer@@PAV1@00@Z 004158f0 f i LIB_D3DRender:drawobjects.obj
 0001:000148f0       ??$copy_backward@PAU?$TVector3@M@@PAU1@@std@@YAPAU?$TVector3@M@@PAU1@00@Z 004158f0 f i collision.obj
 0001:00015230       ?CollideWith@CMovingCylinder@@QAE_NPAVWorldPoly@@PBVNode@@@Z 00416230 f   collision.obj
 0001:00015a80       ?HandleCollision@CMovingCylinder@@QAEXAAUCollideRequest@@PBVNode@@PAUCollideInfo@@@Z 00416a80 f   collision.obj
 0001:00015bd0       ?CollideCylinderWithTree@@YA_NABU?$TVector3@M@@0AAUCollideRequest@@PAUCollideInfo@@AAU1@PAU1@@Z 00416bd0 f   collision.obj
 0001:000163c0       ?StairStep_CylinderPolyIntersect@@YA_NABU?$TVector3@M@@MMPAVWorldPoly@@PAM@Z 004173c0 f   collision.obj
 0001:00016ef0       ?_Buy@?$vector@U?$TVector3@M@@V?$allocator@U?$TVector3@M@@@std@@@std@@IAE_NI@Z 00417ef0 f i collision.obj
 0001:00016f40       ??$_Ucopy@PAU?$TVector3@M@@@?$vector@U?$TVector3@M@@V?$allocator@U?$TVector3@M@@@std@@@std@@IAEPAU?$TVector3@M@@PAU2@00@Z 00417f40 f i collision.obj
 0001:00016f60       ?_Insert_n@?$vector@U?$TVector3@M@@V?$allocator@U?$TVector3@M@@@std@@@std@@IAEXViterator@12@IABU?$TVector3@M@@@Z 00417f60 f i collision.obj
 0001:00017210       ?insert@?$vector@U?$TVector3@M@@V?$allocator@U?$TVector3@M@@@std@@@std@@QAE?AViterator@12@V312@ABU?$TVector3@M@@@Z 00418210 f i collision.obj
 0001:00017280       ?push_back@?$vector@U?$TVector3@M@@V?$allocator@U?$TVector3@M@@@std@@@std@@QAEXABU?$TVector3@M@@@Z 00418280 f i collision.obj
 0001:00017300       ?CollideWithWorld@@YAXAAUCollideRequest@@PAUCollideInfo@@@Z 00418300 f   collision.obj
 0001:00017770       ?EncodeCompressVector@CCompress@@UAEXPAUCompVector@@PBU?$TVector3@M@@@Z 00418770 f   compress.obj
 0001:000178c0       ?DecodeCompressVector@CCompress@@UAEXPAU?$TVector3@M@@PBUCompVector@@@Z 004188c0 f   compress.obj
 0001:00017990       ?EncodeCompressWorldPosition@CCompress@@UAEXPAVCompWorldPos@@PBU?$TVector3@M@@ABU3@2_N@Z 00418990 f   compress.obj
 0001:00017af0       ?DecodeCompressWorldPosition@CCompress@@UAEXPAU?$TVector3@M@@PBVCompWorldPos@@ABU2@2_N@Z 00418af0 f   compress.obj
 0001:00017c40       ?UncompressSuperRotation@CCompress@@IAEXPBDPAU?$TVector3@M@@1@Z 00418c40 f   compress.obj
 0001:00017d30       ?EncodeCompressRotation@CCompress@@UAEXPBULTRotation@@PAVCompRot@@@Z 00418d30 f   compress.obj
 0001:00017eb0       ?_InterfaceImplementation@CCompress@@UAEPBDXZ 00418eb0 f i compress.obj
 0001:00017ec0       ?UncompressRotation@CCompress@@UAEXPADPAULTRotation@@@Z 00418ec0 f   compress.obj
 0001:000183a0       ?cc_AddCommand@@YAPAULTExtraCommandStruct@@PAUConsoleState@@PBDP6AXHQAPAD@ZI@Z 004193a0 f   concommand.obj
 0001:000183f0       ?cc_FindCommand@@YAPAULTExtraCommandStruct@@PAUConsoleState@@PBD@Z 004193f0 f   concommand.obj
 0001:00018430       ?cc_FindConsoleVar@@YAPAULTCommandVar@@PAUConsoleState@@PBD@Z 00419430 f   concommand.obj
 0001:00018470       ?cc_SaveConfigFile@@YA_NPAUConsoleState@@PBD@Z 00419470 f   concommand.obj
 0001:00018520       ?cc_SaveConfigFileFields@@YA_NPAUConsoleState@@PBDIPAPBD@Z 00419520 f   concommand.obj
 0001:000185e0       ?cc_PrintVarDescription@@YAXPAUConsoleState@@PAULTCommandVar@@@Z 004195e0 f   concommand.obj
 0001:00018600       ?cc_HandleCommand3@@YAXPAUConsoleState@@PBDII@Z 00419600 f   concommand.obj
 0001:00018920       ?cc_SetConsoleVariable@@YAXPAUConsoleState@@PBD1@Z 00419920 f   concommand.obj
 0001:00018a60       ?cc_InitState@@YAXPAUConsoleState@@@Z 00419a60 f   concommand.obj
 0001:00018b10       ?cc_RemoveCommand@@YAXPAUConsoleState@@PAULTExtraCommandStruct@@@Z 00419b10 f   concommand.obj
 0001:00018b40       ?cc_RunConfigFile@@YA_NPAUConsoleState@@PBDII@Z 00419b40 f   concommand.obj
 0001:00018be0       ?cc_HandleCommand2@@YAXPAUConsoleState@@PBDI@Z 00419be0 f   concommand.obj
 0001:00018c00       ?cc_TermState@@YAXPAUConsoleState@@@Z 00419c00 f   concommand.obj
 0001:00018d10       ?cc_HandleCommand@@YAXPAUConsoleState@@PBD@Z 00419d10 f   concommand.obj
 0001:00018e10       ?cp_Parse@@YAHPBDPAPBDPADPAPADPAH@Z 00419e10 f   conparse.obj
 0001:00018e90       ?Parse@ConParse@@QAE_NXZ   00419e90 f   conparse.obj
 0001:00018ed0       ?ParseFind@ConParse@@QAE_NPAD_NI@Z 00419ed0 f   conparse.obj
 0001:00018f90       ?con_Term@@YAX_N@Z         00419f90 f   console.obj
 0001:00018fa0       ?con_InitBare@@YA_NXZ      00419fa0 f   console.obj
 0001:00018fb0       ?con_LoadBackground@@YAIXZ 00419fb0 f   console.obj
 0001:00018fc0       ?con_Init@@YA_NPAVLTRect@@P6AXPBD@ZPAURenderStruct@@@Z 00419fc0 f   console.obj
 0001:00018fe0       ?con_SetErrorLog@@YAXP6AXPBD@Z@Z 00419fe0 f   console.obj
 0001:00018ff0       ?con_Draw@@YAXXZ           00419ff0 f   console.obj
 0001:00019010       ?con_DrawSmall@@YAXH@Z     0041a010 f   console.obj
 0001:00019030       ?con_PrintString@@YAXIHPBD@Z 0041a030 f   console.obj
 0001:00019050       ?con_Printf@@YAXIHPBDZZ    0041a050 f   console.obj
 0001:00019070       ?con_WhitePrintf@@YAXPBDZZ 0041a070 f   console.obj
 0001:00019090       ?con_OnKeyPress@@YAXI@Z    0041a090 f   console.obj
 0001:000190b0       ??1CConIterator@@UAE@XZ    0041a0b0 f i consolecommands.obj
 0001:000190b0       ??1CClientConIterator@@UAE@XZ 0041a0b0 f i consolecommands.obj
 0001:000190c0       ??_GCConIterator@@UAEPAXI@Z 0041a0c0 f i consolecommands.obj
 0001:000190c0       ??_ECConIterator@@UAEPAXI@Z 0041a0c0 f i consolecommands.obj
 0001:000190e0       ?LTStrCat@@YAXPADPBDI@Z    0041a0e0 f i consolecommands.obj
 0001:00019120       ?PostFlush@?$CRenderShader_Base@USVertex_Lightmap_Texture_DOT3EnvBumpMap@@UCSection_Lightmap_Texture_DOT3EnvBumpMap@@$0FACBC@@@MAEXXZ 0041a120 f   LIB_D3DRender:d3d_renderworld.obj
 0001:00019120       ?Clear@CRenderShader@@UAEXXZ 0041a120 f   LIB_D3DRender:d3d_renderworld.obj
 0001:00019120       ??1ModelDraw@@QAE@XZ       0041a120 f   LIB_D3DRender:setupmodel.obj
 0001:00019120       ?FreeDeviceObjects@CRenderObject@@UAEXXZ 0041a120 f   d3d_model_load.obj
 0001:00019120       ?PreFlush@?$CRenderShader_Base@USVertex_Gouraud@@UCSection_Gouraud@@$0EC@@@MAEXXZ 0041a120 f   LIB_D3DRender:d3d_renderworld.obj
 0001:00019120       ?PreFlush@?$CRenderShader_Base@USVertex_Lightmap_Texture_DOT3EnvBumpMap@@UCSection_Lightmap_Texture_DOT3EnvBumpMap@@$0FACBC@@@MAEXXZ 0041a120 f   LIB_D3DRender:d3d_renderworld.obj
 0001:00019120       ?Flush@CRenderShader@@UAEXXZ 0041a120 f   LIB_D3DRender:d3d_renderworld.obj
 0001:00019120       ?PostFlush@?$CRenderShader_Base@USVertex_Lightmap@@UCSection_Lightmap@@$0BABAC@@@MAEXXZ 0041a120 f   LIB_D3DRender:d3d_renderworld.obj
 0001:00019120       ?PreFlush@?$CRenderShader_Base@USVertex_Gouraud_Texture@@UCSection_Gouraud_Texture@@$0BABEC@@@MAEXXZ 0041a120 f   LIB_D3DRender:d3d_renderworld.obj
 0001:00019120       ?ReCreateObject@CRenderObject@@UAEXXZ 0041a120 f   d3d_model_load.obj
 0001:00019120       ?VirtualFoo@CBaseRezFileList@@UAEXXZ 0041a120 f   Lib_RezMgr:rezfile.obj
 0001:00019120       ?PreFlush@?$CRenderShader_Base@USVertex_Lightmap_Texture_Detail@@UCSection_Lightmap_Texture_Detail@@$0FACAC@@@MAEXXZ 0041a120 f   LIB_D3DRender:d3d_renderworld.obj
 0001:00019120       ??1CHashBin@CBaseHash@@QAE@XZ 0041a120 f   Lib_Lith:basehash.obj
 0001:00019120       ?PreFlush@?$CRenderShader_Base@USVertex_Gouraud_DOT3EnvBumpMap@@UCSection_Gouraud_DOT3EnvBumpMap@@$0FACFC@@@MAEXXZ 0041a120 f   LIB_D3DRender:d3d_renderworld.obj
 0001:00019120       ??3@YAXPAX0@Z              0041a120 f   debuggeometry.obj
 0001:00019120       ?PreFlush@?$CRenderShader_Base@USVertex_Gouraud_Detail@@UCSection_Gouraud_Detail@@$0FACEC@@@MAEXXZ 0041a120 f   LIB_D3DRender:d3d_renderworld.obj
 0001:00019120       ?OnWaitEnd@CBaseRenderer@@UAEXXZ 0041a120 f   Lib_DShow:renbase.obj
 0001:00019120       ?PostFlush@?$CRenderShader_Base@USVertex_Lightmap_Texture_EnvBumpMap@@UCSection_Lightmap_Texture_EnvBumpMap@@$0FACBC@@@MAEXXZ 0041a120 f   LIB_D3DRender:d3d_renderworld.obj
 0001:00019120       ?MarkSectionBreaks@CRenderShader@@UAEXXZ 0041a120 f   LIB_D3DRender:d3d_renderworld.obj
 0001:00019120       ?PreFlush@?$CRenderShader_Base@USVertex_Lightmap_Texture@@UCSection_Lightmap_Texture@@$0BABAC@@@MAEXXZ 0041a120 f   LIB_D3DRender:d3d_renderworld.obj
 0001:00019120       ?OnWaitEnd@CBaseVideoRenderer@@UAEXXZ 0041a120 f   Lib_DShow:renbase.obj
 0001:00019120       ?PreFlush@?$CRenderShader_Base@USVertex_Lightmap@@UCSection_Lightmap@@$0BABAC@@@MAEXXZ 0041a120 f   LIB_D3DRender:d3d_renderworld.obj
 0001:00019120       ?VirtualFoo@CRezFileSingleFileList@@UAEXXZ 0041a120 f   Lib_RezMgr:rezfile.obj
 0001:00019120       ?Init@CLTRenderMgr@@UAEXXZ 0041a120 f   ltrendermgr_impl.obj
 0001:00019120       ?PrepareRender@CBaseRenderer@@UAEXXZ 0041a120 f   dshowvideomgrimpl.obj
 0001:00019120       ?PreFlush@?$CRenderShader_Base@USVertex_Lightmap_Texture_EnvBumpMap@@UCSection_Lightmap_Texture_EnvBumpMap@@$0FACBC@@@MAEXXZ 0041a120 f   LIB_D3DRender:d3d_renderworld.obj
 0001:00019120       ?PostFlush@?$CRenderShader_Base@USVertex_Gouraud_Effect@@UCSection_Gouraud_Effect@@$0BABFC@@@MAEXXZ 0041a120 f   LIB_D3DRender:d3d_rendershader_gouraud.obj
 0001:00019120       ?OnWaitStart@CBaseRenderer@@UAEXXZ 0041a120 f   Lib_DShow:renbase.obj
 0001:00019120       ?PostFlush@?$CRenderShader_Base@USVertex_Gouraud@@UCSection_Gouraud@@$0EC@@@MAEXXZ 0041a120 f   LIB_D3DRender:d3d_renderworld.obj
 0001:00019120       ?PostFlush@?$CRenderShader_Base@USVertex_Lightmap_Texture@@UCSection_Lightmap_Texture@@$0BABAC@@@MAEXXZ 0041a120 f   LIB_D3DRender:d3d_renderworld.obj
 0001:00019120       ??1CDirect3DDevice9Wrapper@@QAE@XZ 0041a120 f   LIB_D3DRender:d3d_device_wrapper.obj
 0001:00019120       ?PostFlush@?$CRenderShader_Base@USVertex_Gouraud_DOT3BumpMap@@UCSection_Gouraud_DOT3BumpMap@@$0BABFC@@@MAEXXZ 0041a120 f   LIB_D3DRender:d3d_renderworld.obj
 0001:00019120       ?PreFlush@?$CRenderShader_Base@USVertex_Gouraud_Effect@@UCSection_Gouraud_Effect@@$0BABFC@@@MAEXXZ 0041a120 f   LIB_D3DRender:d3d_rendershader_gouraud.obj
 0001:00019120       ??3@YAXPAX0PAVDummyClassBlahBlah@@@Z 0041a120 f   debuggraphmgr.obj
 0001:00019120       ??1CRenderLight@@QAE@XZ    0041a120 f   LIB_D3DRender:renderlight.obj
 0001:00019120       ?d3d_InitVolumeEffectDraw@@YAXXZ 0041a120 f   LIB_D3DRender:drawvolumeeffects.obj
 0001:00019120       ?PostFlush@?$CRenderShader_Base@USVertex_Gouraud_EnvBumpMap@@UCSection_Gouraud_EnvBumpMap@@$0FACFC@@@MAEXXZ 0041a120 f   LIB_D3DRender:d3d_renderworld.obj
 0001:00019120       ?Render@CRenderObject@@UAEXXZ 0041a120 f   d3d_model_load.obj
 0001:00019120       ?PostFlush@?$CRenderShader_Base@USVertex_Gouraud_Texture@@UCSection_Gouraud_Texture@@$0BABEC@@@MAEXXZ 0041a120 f   LIB_D3DRender:d3d_renderworld.obj
 0001:00019120       ?PostFlush@?$CRenderShader_Base@USVertex_Gouraud_Detail@@UCSection_Gouraud_Detail@@$0FACEC@@@MAEXXZ 0041a120 f   LIB_D3DRender:d3d_renderworld.obj
 0001:00019120       ?PostFlush@?$CRenderShader_Base@USVertex_Gouraud_EnvMap@@UCSection_Gouraud_EnvMap@@$0BABFC@@@MAEXXZ 0041a120 f   LIB_D3DRender:d3d_renderworld.obj
 0001:00019120       ?PreFlush@?$CRenderShader_Base@USVertex_Gouraud_EnvMap@@UCSection_Gouraud_EnvMap@@$0BABFC@@@MAEXXZ 0041a120 f   LIB_D3DRender:d3d_renderworld.obj
 0001:00019120       ?ReleaseAllocInfo@CLTMemory@@UAEXXZ 0041a120 f   ltmemory.obj
 0001:00019120       ?con_ExhaustMemory@@YAXHPAPAD@Z 0041a120 f   s_concommand.obj
 0001:00019120       ??1CSegmentState@CLTDirectMusicMgr@@QAE@XZ 0041a120 f   ltdirectmusic_impl.obj
 0001:00019120       ??3@YAXPAXPAVDummyThingForConstructor@@0@Z 0041a120 f   clientmgr.obj
 0001:00019120       ?CheckSpecialCards@CD3D_Device@@QAEXXZ 0041a120 f   LIB_D3DRender:d3d_device.obj
 0001:00019120       ?PreFlush@?$CRenderShader_Base@USVertex_Lightmap_Texture_DOT3BumpMap@@UCSection_Lightmap_Texture_DOT3BumpMap@@$0BABBC@@@MAEXXZ 0041a120 f   LIB_D3DRender:d3d_renderworld.obj
 0001:00019120       ?PostFlush@?$CRenderShader_Base@USVertex_Gouraud_DOT3EnvBumpMap@@UCSection_Gouraud_DOT3EnvBumpMap@@$0FACFC@@@MAEXXZ 0041a120 f   LIB_D3DRender:d3d_renderworld.obj
 0001:00019120       ?PreFlush@?$CRenderShader_Base@USVertex_Gouraud_EnvBumpMap@@UCSection_Gouraud_EnvBumpMap@@$0FACFC@@@MAEXXZ 0041a120 f   LIB_D3DRender:d3d_renderworld.obj
 0001:00019120       ?PreFlush@?$CRenderShader_Base@USVertex_Lightmap_Texture_EnvMap@@UCSection_Lightmap_Texture_EnvMap@@$0BABBC@@@MAEXXZ 0041a120 f   LIB_D3DRender:d3d_renderworld.obj
 0001:00019120       ?OnRenderInit@DShowVideoInst@@UAEXXZ 0041a120 f   dshowvideomgrimpl.obj
 0001:00019120       ?Release@VideoInst@@UAEXXZ 0041a120 f   dshowvideomgrimpl.obj
 0001:00019120       ?PostFlush@?$CRenderShader_Base@USVertex_Lightmap_Texture_DOT3BumpMap@@UCSection_Lightmap_Texture_DOT3BumpMap@@$0BABBC@@@MAEXXZ 0041a120 f   LIB_D3DRender:d3d_renderworld.obj
 0001:00019120       ?PreFlush@?$CRenderShader_Base@USVertex_Gouraud_DOT3BumpMap@@UCSection_Gouraud_DOT3BumpMap@@$0BABFC@@@MAEXXZ 0041a120 f   LIB_D3DRender:d3d_renderworld.obj
 0001:00019120       ??1CTextureScriptInstance@@AAE@XZ 0041a120 f   LIB_D3DRender:texturescriptinstance.obj
 0001:00019120       ?Unlock@CRenderShader@@UAEXXZ 0041a120 f   LIB_D3DRender:d3d_renderworld.obj
 0001:00019120       ?PreFlush@?$CRenderShader_Base@USVertex_Lightmap_Texture_DualTexture@@UCSection_Lightmap_Texture_DualTexture@@$0FACEC@@@MAEXXZ 0041a120 f   LIB_D3DRender:d3d_renderworld.obj
 0001:00019120       ?df_Term@@YAXXZ            0041a120 f   de_file.obj
 0001:00019120       ?VirtualFoo@CRezFileSingleFile@@UAEXXZ 0041a120 f   Lib_RezMgr:rezfile.obj
 0001:00019120       ?PostFlush@?$CRenderShader_Base@USVertex_Lightmap_Texture_Detail@@UCSection_Lightmap_Texture_Detail@@$0FACAC@@@MAEXXZ 0041a120 f   LIB_D3DRender:d3d_renderworld.obj
 0001:00019120       ?LTMemInit@@YAXXZ          0041a120 f   ltmem:ltmem.obj
 0001:00019120       ?PostFlush@?$CRenderShader_Base@USVertex_Lightmap_Texture_EnvMap@@UCSection_Lightmap_Texture_EnvMap@@$0BABBC@@@MAEXXZ 0041a120 f   LIB_D3DRender:d3d_renderworld.obj
 0001:00019120       ?VirtualFoo@CBaseRezFile@@UAEXXZ 0041a120 f   Lib_RezMgr:rezfile.obj
 0001:00019120       ?PostFlush@?$CRenderShader_Base@USVertex_Lightmap_Texture_DualTexture@@UCSection_Lightmap_Texture_DualTexture@@$0FACEC@@@MAEXXZ 0041a120 f   LIB_D3DRender:d3d_renderworld.obj
 0001:00019120       ?OnWaitStart@CBaseVideoRenderer@@UAEXXZ 0041a120 f   Lib_DShow:renbase.obj
 0001:00019120       ?PreFlush@?$CRenderShader_Base@USVertex_Gouraud_DualTexture@@UCSection_Gouraud_DualTexture@@$0FACEC@@@MAEXXZ 0041a120 f   LIB_D3DRender:d3d_renderworld.obj
 0001:00019120       ??1CDeviceLightList@@QAE@XZ 0041a120 f   LIB_D3DRender:devicelightlist.obj
 0001:00019120       ?PostFlush@?$CRenderShader_Base@USVertex_Gouraud_DualTexture@@UCSection_Gouraud_DualTexture@@$0FACEC@@@MAEXXZ 0041a120 f   LIB_D3DRender:d3d_renderworld.obj
 0001:00019e90       ?c_InitConsoleCommands@@YAXXZ 0041ae90 f   consolecommands.obj
 0001:00019f20       ?c_TermConsoleCommands@@YAXXZ 0041af20 f   consolecommands.obj
 0001:00019f30       ??0CClientConIterator@@QAE@XZ 0041af30 f   consolecommands.obj
 0001:00019f50       ?Begin@CClientConIterator@@MAE_NXZ 0041af50 f   consolecommands.obj
 0001:00019f60       ?NextItem@CClientConIterator@@MAE_NXZ 0041af60 f   consolecommands.obj
 0001:0001a040       ?Get@CClientConIterator@@UBEPBDXZ 0041b040 f   consolecommands.obj
 0001:0001a400       ??_GCClientConIterator@@UAEPAXI@Z 0041b400 f i consolecommands.obj
 0001:0001a400       ??_ECClientConIterator@@UAEPAXI@Z 0041b400 f i consolecommands.obj
 0001:0001a420       ?cnt_NumTicksPerSecond@@YAKXZ 0041b420 f   counter.obj
 0001:0001a450       ?EndMS@CounterFinal@@QAEKXZ 0041b450 f   counter.obj
 0001:0001a4b0       ?CountMS@CounterFinal@@QAEKXZ 0041b4b0 f   counter.obj
 0001:0001a4c0       ?cnt_StartCounterFinal@@YAXAAVCounterFinal@@@Z 0041b4c0 f   counter.obj
 0001:0001a4d0       ?cnt_EndCounterFinal@@YAKAAVCounterFinal@@@Z 0041b4d0 f   counter.obj
 0001:0001a510       ?Clear@CountPercent@@QAEXXZ 0041b510 f   counter.obj
 0001:0001a530       ?In@CountPercent@@QAEIXZ   0041b530 f   counter.obj
 0001:0001a5a0       ?Out@CountPercent@@QAEIXZ  0041b5a0 f   counter.obj
 0001:0001a5f0       ??0CounterFinal@@QAE@K@Z   0041b5f0 f   counter.obj
 0001:0001a630       ?_Xlen@?$vector@PAVCCustomFontFile@@V?$allocator@PAVCCustomFontFile@@@std@@@std@@IBEXXZ 0041b630 f i customfontfilemgr.obj
 0001:0001a6b0       ?_Insert_n@?$vector@PAVCCustomFontFile@@V?$allocator@PAVCCustomFontFile@@@std@@@std@@IAEXViterator@12@IABQAVCCustomFontFile@@@Z 0041b6b0 f i customfontfilemgr.obj
 0001:0001a8a0       ?UnregisterCustomFontFile@CCustomFontFileMgr@@QAE_NPAVCCustomFontFile@@@Z 0041b8a0 f   customfontfilemgr.obj
 0001:0001a960       ??1CCustomFontFileMgr@@QAE@XZ 0041b960 f   customfontfilemgr.obj
 0001:0001aa00       ?push_back@?$vector@PAVCCustomFontFile@@V?$allocator@PAVCCustomFontFile@@@std@@@std@@QAEXABQAVCCustomFontFile@@@Z 0041ba00 f i customfontfilemgr.obj
 0001:0001aa50       ?GetSingleton@CCustomFontFileMgr@@SAAAV1@XZ 0041ba50 f   customfontfilemgr.obj
 0001:0001aab0       ?RegisterCustomFontFile@CCustomFontFileMgr@@QAEPAVCCustomFontFile@@PBD@Z 0041bab0 f   customfontfilemgr.obj
 0001:0001ab80       ?Setup@MoveState@@QAEXPAVWorldTree@@PAVMoveAbstract@@PAVLTObject@@I@Z 0041bb80 f i cutil.obj
 0001:0001abb0       ?SetupError@CClientMgr@@QAAIIZZ 0041bbb0 f   cutil.obj
 0001:0001abe0       ?ProcessError@CClientMgr@@QAEII@Z 0041bbe0 f   cutil.obj
 0001:0001ac80       ?ForwardMessagesToScript@CClientMgr@@QAEXXZ 0041bc80 f   cutil.obj
 0001:0001ad10       ?ForwardCommandChanges@CClientMgr@@QAEXPAHH@Z 0041bd10 f   cutil.obj
 0001:0001ad80       ?UpdateFrameRate@CClientMgr@@QAEXXZ 0041bd80 f   cutil.obj
 0001:0001adb0       ?_TagSpriteTextures@@YAHPAUSprite@@@Z 0041bdb0 f   cutil.obj
 0001:0001aed0       ?UntagAllTextures@CClientMgr@@QAEXXZ 0041bed0 f   cutil.obj
 0001:0001af10       ?TagAndFreeSprites@CClientMgr@@QAEXXZ 0041bf10 f   cutil.obj
 0001:0001b050       ?BindUnboundTextures@CClientMgr@@QAEXXZ 0041c050 f   cutil.obj
 0001:0001b090       ?AddToObjectMap@CClientMgr@@QAEXG@Z 0041c090 f   cutil.obj
 0001:0001b120       ?ClearObjectMapEntry@CClientMgr@@QAEXG@Z 0041c120 f   cutil.obj
 0001:0001b150       ?FindObject@CClientMgr@@QAEPAVLTObject@@G@Z 0041c150 f   cutil.obj
 0001:0001b180       ?FindRecord@CClientMgr@@QAEPAULTRecord@@G@Z 0041c180 f   cutil.obj
 0001:0001b1a0       ?SetPos@LTObject@@QAEXABU?$TVector3@M@@@Z 0041c1a0 f i cutil.obj
 0001:0001b240       ?FreeSharedTexture@CClientMgr@@QAEXPAVSharedTexture@@@Z 0041c240 f   cutil.obj
 0001:0001b290       ?FreeSharedTextures@CClientMgr@@QAEXXZ 0041c290 f   cutil.obj
 0001:0001b300       ?TagUsedTextures@CClientMgr@@QAEXXZ 0041c300 f   cutil.obj
 0001:0001b630       ?FreeUnusedSharedTextures@CClientMgr@@QAEXXZ 0041c630 f   cutil.obj
 0001:0001b6b0       ?MoveObject@CClientMgr@@QAEXPAVLTObject@@PBU?$TVector3@M@@_N@Z 0041c6b0 f   cutil.obj
 0001:0001b740       ?RelocateObject@CClientMgr@@QAEXPAVLTObject@@@Z 0041c740 f   cutil.obj
 0001:0001b790       ?RotateObject@CClientMgr@@QAEXPAVLTObject@@PBULTRotation@@@Z 0041c790 f   cutil.obj
 0001:0001b850       ?MoveAndRotateObject@CClientMgr@@QAEXPAVLTObject@@PBU?$TVector3@M@@PBULTRotation@@@Z 0041c850 f   cutil.obj
 0001:0001b8c0       ?AddSharedTexture3@CClientMgr@@QAEIPAUFileIdentifier@@AAPAVSharedTexture@@@Z 0041c8c0 f   cutil.obj
 0001:0001b950       ?AddSharedTexture2@CClientMgr@@QAEIPAVFileRef@@AAPAVSharedTexture@@@Z 0041c950 f   cutil.obj
 0001:0001b990       ?AddSharedTexture@CClientMgr@@QAEPAVSharedTexture@@PAVFileRef@@@Z 0041c990 f   cutil.obj
 0001:0001b9e0       ?TagAndFreeTextures@CClientMgr@@QAEXXZ 0041c9e0 f   cutil.obj
 0001:0001ba40       ?UpdateModelDims@CClientMgr@@QAEXPAVModelInstance@@@Z 0041ca40 f   cutil.obj
 0001:0001bb40       ?ScaleObject@CClientMgr@@QAEXPAVLTObject@@PBU?$TVector3@M@@@Z 0041cb40 f   cutil.obj
 0001:0001bbe0       ??_ECRenderObject@@UAEPAXI@Z 0041cbe0 f i d3d_model_load.obj
 0001:0001bbe0       ??_GCRenderObject@@UAEPAXI@Z 0041cbe0 f i d3d_model_load.obj
 0001:0001bc00       ??_ECDIModelDrawable@@UAEPAXI@Z 0041cc00 f i d3d_model_load.obj
 0001:0001bc00       ??_GCDIModelDrawable@@UAEPAXI@Z 0041cc00 f i d3d_model_load.obj
 0001:0001bc20       ??1CDISkelMesh@@UAE@XZ     0041cc20 f i LIB_D3DRender:d3dmeshrendobj_skel.obj
 0001:0001bc20       ??1CDIVAMesh@@UAE@XZ       0041cc20 f i LIB_D3DRender:d3dmeshrendobj_vertanim.obj
 0001:0001bc20       ??1CDIModelDrawable@@UAE@XZ 0041cc20 f i d3d_model_load.obj
 0001:0001bc20       ??1CDIRigidMesh@@UAE@XZ    0041cc20 f i LIB_D3DRender:d3dmeshrendobj_rigid.obj
 0001:0001bc50       ?CreateModelRenderObject@ModelPiece@@SAPAVCDIModelDrawable@@I@Z 0041cc50 f   d3d_model_load.obj
 0001:0001bc90       ?SetTransform@CD3DRenderStateMgr@@QAEXW4_D3DTRANSFORMSTATETYPE@@PBU_D3DMATRIX@@@Z 0041cc90 f i d3ddrawprim.obj
 0001:0001bcb0       ??1CAutoDrawPrimBlock@@QAE@XZ 0041ccb0 f i d3ddrawprim.obj
 0001:0001bcc0       ?SaveStates@CD3DDrawPrim@@AAEXPAUIDirect3DDevice9@@@Z 0041ccc0 f   d3ddrawprim.obj
 0001:0001bdf0       ?SetClipMode@CD3DDrawPrim@@AAEXPAUIDirect3DDevice9@@@Z 0041cdf0 f   d3ddrawprim.obj
 0001:0001be50       ?SetTexture@CD3DDrawPrim@@AAEXPAUIDirect3DDevice9@@@Z 0041ce50 f   d3ddrawprim.obj
 0001:0001beb0       ?SetEffectShaderID@CD3DDrawPrim@@UAEII@Z 0041ceb0 f   d3ddrawprim.obj
 0001:0001beb0       ?StartupClient@CClientShell@@QAEIPAVCBaseDriver@@@Z 0041ceb0 f   clientshell.obj
 0001:0001bec0       ?SetCamera@CD3DDrawPrim@@AAEXPAUIDirect3DDevice9@@@Z 0041cec0 f   d3ddrawprim.obj
 0001:0001c020       ?SetColorOp@CD3DDrawPrim@@AAEXPAUIDirect3DDevice9@@@Z 0041d020 f   d3ddrawprim.obj
 0001:0001c0e0       ?SetBlendMode@CD3DDrawPrim@@AAEXPAUIDirect3DDevice9@@@Z 0041d0e0 f   d3ddrawprim.obj
 0001:0001c300       ?SetZBufferMode@CD3DDrawPrim@@AAEXPAUIDirect3DDevice9@@@Z 0041d300 f   d3ddrawprim.obj
 0001:0001c380       ?SetTestMode@CD3DDrawPrim@@AAEXPAUIDirect3DDevice9@@@Z 0041d380 f   d3ddrawprim.obj
 0001:0001c4a0       ?SetCullMode@CD3DDrawPrim@@AAEXPAUIDirect3DDevice9@@@Z 0041d4a0 f   d3ddrawprim.obj
 0001:0001c4f0       ?PopRenderStates@CD3DDrawPrim@@AAEXPAUIDirect3DDevice9@@@Z 0041d4f0 f   d3ddrawprim.obj
 0001:0001c690       ?SetUVWH@CD3DDrawPrim@@UAEXPAULT_POLYGT4@@PAVSharedTexture@@MMMM@Z 0041d690 f   d3ddrawprim.obj
 0001:0001c7b0       ?SaveViewport@CD3DDrawPrim@@UAEXXZ 0041d7b0 f   d3ddrawprim.obj
 0001:0001c7d0       ?RestoreViewport@CD3DDrawPrim@@UAEXXZ 0041d7d0 f   d3ddrawprim.obj
 0001:0001c7f0       ?DrawPrim@CD3DDrawPrim@@UAEIPAULT_POLYGT3@@I@Z 0041d7f0 f   d3ddrawprim.obj
 0001:0001cc20       ?DrawPrim@CD3DDrawPrim@@UAEIPAULT_POLYFT3@@I@Z 0041dc20 f   d3ddrawprim.obj
 0001:0001d130       ?DrawPrim@CD3DDrawPrim@@UAEIPAULT_POLYG3@@I@Z 0041e130 f   d3ddrawprim.obj
 0001:0001d540       ?DrawPrim@CD3DDrawPrim@@UAEIPAULT_POLYF3@@I@Z 0041e540 f   d3ddrawprim.obj
 0001:0001d9e0       ?DrawPrim@CD3DDrawPrim@@UAEIPAULT_POLYGT4@@I@Z 0041e9e0 f   d3ddrawprim.obj
 0001:0001e060       ?DrawPrim@CD3DDrawPrim@@UAEIPAPAULT_POLYGT4@@I@Z 0041f060 f   d3ddrawprim.obj
 0001:0001e720       ?DrawPrim@CD3DDrawPrim@@UAEIPAULT_POLYFT4@@I@Z 0041f720 f   d3ddrawprim.obj
 0001:0001eb60       ?DrawPrim@CD3DDrawPrim@@UAEIPAULT_POLYG4@@I@Z 0041fb60 f   d3ddrawprim.obj
 0001:0001eeb0       ?DrawPrim@CD3DDrawPrim@@UAEIPAULT_POLYF4@@I@Z 0041feb0 f   d3ddrawprim.obj
 0001:0001f2e0       ?DrawPrim@CD3DDrawPrim@@UAEIPAULT_LINEGT@@I@Z 004202e0 f   d3ddrawprim.obj
 0001:0001f6a0       ?DrawPrim@CD3DDrawPrim@@UAEIPAULT_LINEFT@@I@Z 004206a0 f   d3ddrawprim.obj
 0001:0001fb10       ?DrawPrim@CD3DDrawPrim@@UAEIPAULT_LINEG@@I@Z 00420b10 f   d3ddrawprim.obj
 0001:0001fec0       ?DrawPrim@CD3DDrawPrim@@UAEIPAULT_LINEF@@I@Z 00420ec0 f   d3ddrawprim.obj
 0001:00020320       ?DrawPrimPoint@CD3DDrawPrim@@UAEIPAULT_VERTGT@@I@Z 00421320 f   d3ddrawprim.obj
 0001:00020690       ?DrawPrimPoint@CD3DDrawPrim@@UAEIPAULT_VERTG@@I@Z 00421690 f   d3ddrawprim.obj
 0001:000209f0       ?DrawPrimFan@CD3DDrawPrim@@UAEIPAULT_VERTGT@@I@Z 004219f0 f   d3ddrawprim.obj
 0001:00020e40       ?DrawPrimFan@CD3DDrawPrim@@UAEIPAULT_VERTFT@@IULT_VERTRGBA@@@Z 00421e40 f   d3ddrawprim.obj
 0001:00021370       ?DrawPrimFan@CD3DDrawPrim@@UAEIPAULT_VERTG@@I@Z 00422370 f   d3ddrawprim.obj
 0001:000217a0       ?DrawPrimFan@CD3DDrawPrim@@UAEIPAULT_VERTF@@IULT_VERTRGBA@@@Z 004227a0 f   d3ddrawprim.obj
 0001:00021ca0       ?DrawPrimStrip@CD3DDrawPrim@@UAEIPAULT_VERTGT@@I@Z 00422ca0 f   d3ddrawprim.obj
 0001:00022050       ?DrawPrimStrip@CD3DDrawPrim@@UAEIPAULT_VERTFT@@IULT_VERTRGBA@@@Z 00423050 f   d3ddrawprim.obj
 0001:00022480       ?DrawPrimStrip@CD3DDrawPrim@@UAEIPAULT_VERTG@@I@Z 00423480 f   d3ddrawprim.obj
 0001:00022810       ?DrawPrimStrip@CD3DDrawPrim@@UAEIPAULT_VERTF@@IULT_VERTRGBA@@@Z 00423810 f   d3ddrawprim.obj
 0001:00022c30       ?EndDrawPrim@CD3DDrawPrim@@UAEIXZ 00423c30 f   d3ddrawprim.obj
 0001:00022c70       ?SetCamera@CD3DDrawPrim@@UAEIQAVLTObject@@@Z 00423c70 f   d3ddrawprim.obj
 0001:00022ca0       ?SetTexture@CD3DDrawPrim@@UAEIQAVSharedTexture@@@Z 00423ca0 f   d3ddrawprim.obj
 0001:00022cd0       ?SetColorOp@CD3DDrawPrim@@UAEIW4ELTColorOp@@@Z 00423cd0 f   d3ddrawprim.obj
 0001:00022d00       ?SetAlphaBlendMode@CD3DDrawPrim@@UAEIW4ELTBlendMode@@@Z 00423d00 f   d3ddrawprim.obj
 0001:00022d30       ?SetZBufferMode@CD3DDrawPrim@@UAEIW4ELTZBufferMode@@@Z 00423d30 f   d3ddrawprim.obj
 0001:00022d60       ?SetAlphaTestMode@CD3DDrawPrim@@UAEIW4ELTTestMode@@@Z 00423d60 f   d3ddrawprim.obj
 0001:00022d90       ?SetClipMode@CD3DDrawPrim@@UAEIW4ELTClipMode@@@Z 00423d90 f   d3ddrawprim.obj
 0001:00022dc0       ?SetFillMode@CD3DDrawPrim@@UAEIW4ELTDPFillMode@@@Z 00423dc0 f   d3ddrawprim.obj
 0001:00022e10       ?SetCullMode@CD3DDrawPrim@@UAEIW4ELTDPCullMode@@@Z 00423e10 f   d3ddrawprim.obj
 0001:00022e40       ?SetFogEnable@CD3DDrawPrim@@UAEI_N@Z 00423e40 f   d3ddrawprim.obj
 0001:00022e80       ?SetXY4@CGenDrawPrim@@UAEXPAULT_POLYGT4@@MMMMMMMM@Z 00423e80 f i d3ddrawprim.obj
 0001:00022ed0       ?SetXY4@CGenDrawPrim@@UAEXPAULT_POLYFT4@@MMMMMMMM@Z 00423ed0 f i d3ddrawprim.obj
 0001:00022f20       ?SetXY4@CGenDrawPrim@@UAEXPAULT_POLYG4@@MMMMMMMM@Z 00423f20 f i d3ddrawprim.obj
 0001:00022f70       ?SetXY4@CGenDrawPrim@@UAEXPAULT_POLYF4@@MMMMMMMM@Z 00423f70 f i d3ddrawprim.obj
 0001:00022fc0       ?SetXYWH@CGenDrawPrim@@UAEXPAULT_POLYGT4@@MMMM@Z 00423fc0 f i d3ddrawprim.obj
 0001:00023000       ?SetXYWH@CGenDrawPrim@@UAEXPAULT_POLYFT4@@MMMM@Z 00424000 f i d3ddrawprim.obj
 0001:00023040       ?SetXYWH@CGenDrawPrim@@UAEXPAULT_POLYG4@@MMMM@Z 00424040 f i d3ddrawprim.obj
 0001:00023080       ?SetXYWH@CGenDrawPrim@@UAEXPAULT_POLYF4@@MMMM@Z 00424080 f i d3ddrawprim.obj
 0001:000230c0       ?SetUV4@CGenDrawPrim@@UAEXPAULT_POLYGT4@@MMMMMMMM@Z 004240c0 f i d3ddrawprim.obj
 0001:00023110       ?SetUV4@CGenDrawPrim@@UAEXPAULT_POLYFT4@@MMMMMMMM@Z 00424110 f i d3ddrawprim.obj
 0001:00023160       ?SetUVWH@CGenDrawPrim@@UAEXPAULT_POLYGT4@@MMMM@Z 00424160 f i d3ddrawprim.obj
 0001:000231b0       ?SetUVWH@CGenDrawPrim@@UAEXPAULT_POLYFT4@@MMMM@Z 004241b0 f i d3ddrawprim.obj
 0001:00023200       ?SetRGB@CGenDrawPrim@@UAEXPAULT_POLYGT4@@I@Z 00424200 f i d3ddrawprim.obj
 0001:00023240       ?SetRGB@CGenDrawPrim@@UAEXPAULT_POLYG4@@I@Z 00424240 f i d3ddrawprim.obj
 0001:00023280       ?SetRGB@CGenDrawPrim@@UAEXPAULT_POLYFT4@@I@Z 00424280 f i d3ddrawprim.obj
 0001:000232b0       ?SetRGB@CGenDrawPrim@@UAEXPAULT_POLYF4@@I@Z 004242b0 f i d3ddrawprim.obj
 0001:000232e0       ?SetRGBA@CGenDrawPrim@@UAEXPAULT_POLYGT4@@I@Z 004242e0 f i d3ddrawprim.obj
 0001:00023330       ?SetRGBA@CGenDrawPrim@@UAEXPAULT_POLYG4@@I@Z 00424330 f i d3ddrawprim.obj
 0001:00023380       ?SetRGBA@CGenDrawPrim@@UAEXPAULT_POLYFT4@@I@Z 00424380 f i d3ddrawprim.obj
 0001:000233b0       ?SetRGBA@CGenDrawPrim@@UAEXPAULT_POLYF4@@I@Z 004243b0 f i d3ddrawprim.obj
 0001:000233e0       ?SetRGB4@CGenDrawPrim@@UAEXPAULT_POLYGT4@@IIII@Z 004243e0 f i d3ddrawprim.obj
 0001:00023460       ?SetRGB4@CGenDrawPrim@@UAEXPAULT_POLYG4@@IIII@Z 00424460 f i d3ddrawprim.obj
 0001:000234e0       ?SetRGBA4@CGenDrawPrim@@UAEXPAULT_POLYGT4@@IIII@Z 004244e0 f i d3ddrawprim.obj
 0001:00023580       ?SetRGBA4@CGenDrawPrim@@UAEXPAULT_POLYG4@@IIII@Z 00424580 f i d3ddrawprim.obj
 0001:00023620       ?SetALPHA@CGenDrawPrim@@UAEXPAULT_POLYGT4@@E@Z 00424620 f i d3ddrawprim.obj
 0001:00023640       ?SetALPHA@CGenDrawPrim@@UAEXPAULT_POLYG4@@E@Z 00424640 f i d3ddrawprim.obj
 0001:00023660       ?SetALPHA@CGenDrawPrim@@UAEXPAULT_POLYFT4@@E@Z 00424660 f i d3ddrawprim.obj
 0001:00023680       ?SetALPHA@CGenDrawPrim@@UAEXPAULT_POLYF4@@E@Z 00424680 f i d3ddrawprim.obj
 0001:000236a0       ?SetALPHA4@CGenDrawPrim@@UAEXPAULT_POLYGT4@@EEEE@Z 004246a0 f i d3ddrawprim.obj
 0001:000236d0       ?SetALPHA4@CGenDrawPrim@@UAEXPAULT_POLYG4@@EEEE@Z 004246d0 f i d3ddrawprim.obj
 0001:00023700       ?_InterfaceImplementation@CD3DDrawPrim@@UAEPBDXZ 00424700 f i d3ddrawprim.obj
 0001:00023710       ?SetTransformMode@CD3DDrawPrim@@AAEXPAUIDirect3DDevice9@@@Z 00424710 f   d3ddrawprim.obj
 0001:00023a20       ?PushRenderStates@CD3DDrawPrim@@AAEXPAUIDirect3DDevice9@@@Z 00424a20 f   d3ddrawprim.obj
 0001:00023be0       ?BeginDrawPrim@CD3DDrawPrim@@UAEIXZ 00424be0 f   d3ddrawprim.obj
 0001:00023c10       ?SetTransformType@CD3DDrawPrim@@UAEIW4ELTTransformType@@@Z 00424c10 f   d3ddrawprim.obj
 0001:00023c40       ?SetReallyClose@CD3DDrawPrim@@UAEI_N@Z 00424c40 f   d3ddrawprim.obj
 0001:00023c80       ?GetBPPIdent@DtxHeader@@QAE?AW4BPPIdent@@XZ 00424c80 f i d3dtexinterface.obj
 0001:00023ca0       ??4PFormat@@QAEAAV0@ABV0@@Z 00424ca0 f i d3dtexinterface.obj
 0001:00023d00       ?SetTextureInfo@SharedTexture@@QAEXIIABVPFormat@@@Z 00424d00 f i d3dtexinterface.obj
 0001:00023e20       ?FindTextureFromName@CSysTexInterface@@UAEIAAPAVSharedTexture@@PBD@Z 00424e20 f   d3dtexinterface.obj
 0001:00023e80       ?GetTextureData@CSysTexInterface@@UAEIQAVSharedTexture@@AAPBEAAI22AAW4ETextureType@@@Z 00424e80 f   d3dtexinterface.obj
 0001:00023f00       ?FlushTextureData@CSysTexInterface@@UAEIQAVSharedTexture@@W4ETextureMod@@I@Z 00424f00 f   d3dtexinterface.obj
 0001:00023f20       ?GetTextureType@CSysTexInterface@@UAEIQAVSharedTexture@@AAW4ETextureType@@@Z 00424f20 f   d3dtexinterface.obj
 0001:00023f80       ?GetTextureDims@CSysTexInterface@@UAEIQAVSharedTexture@@AAI1@Z 00424f80 f   d3dtexinterface.obj
 0001:00023fc0       ?ReleaseTextureHandle@CSysTexInterface@@UAE_NQAVSharedTexture@@@Z 00424fc0 f   d3dtexinterface.obj
 0001:00024010       ?AddRefTextureHandle@CSysTexInterface@@UAEIQAVSharedTexture@@@Z 00425010 f   d3dtexinterface.obj
 0001:00024040       ?_InterfaceImplementation@CSysTexInterface@@UAEPBDXZ 00425040 f i d3dtexinterface.obj
 0001:00024050       ?CreateTextureFromName@CSysTexInterface@@UAEIAAPAVSharedTexture@@PBD@Z 00425050 f   d3dtexinterface.obj
 0001:000241a0       ?CreateTextureFromData@CSysTexInterface@@UAEIAAPAVSharedTexture@@W4ETextureType@@IPAEIII@Z 004251a0 f   d3dtexinterface.obj
 0001:00024490       ?Lock@CSysSerialVar@@UAE?AW4ESyncResult@@XZ 00425490 f i de_file.obj
 0001:000244a0       ?Unlock@CSysSerialVar@@UAE?AW4ESyncResult@@XZ 004254a0 f i de_file.obj
 0001:000244b0       ??_EILTStream@@MAEPAXI@Z   004254b0 f i de_file.obj
 0001:000244b0       ??_GILTStream@@MAEPAXI@Z   004254b0 f i de_file.obj
 0001:000244d0       ??1CGenLTStream@@UAE@XZ    004254d0 f i de_file.obj
 0001:000244d0       ??1SSBufStream@@UAE@XZ     004254d0 f i streamsim.obj
 0001:000244e0       ?df_Init@@YAXXZ            004254e0 f   de_file.obj
 0001:000244f0       ?df_CloseTree@@YAXPAPAX@Z  004254f0 f   de_file.obj
 0001:00024550       ?df_GetTreeType@@YA?AW4TreeType@@PAPAX@Z 00425550 f   de_file.obj
 0001:00024570       ?df_Save@@YAHPAVILTStream@@PBD@Z 00425570 f   de_file.obj
 0001:00024670       ??1LCriticalSection@@QAE@XZ 00425670 f i de_file.obj
 0001:00024690       ??0LCriticalSection@@QAE@XZ 00425690 f i de_file.obj
 0001:000246b0       ??1BaseFileStream@@UAE@XZ  004256b0 f i de_file.obj
 0001:00024730       ?GetSessionList@CBaseDriver@@UAEIAAPAVNetSession@@PBD@Z 00425730 f i localdriver.obj
 0001:00024730       ?GetSessionName@CBaseDriver@@UAEIPADI@Z 00425730 f i localdriver.obj
 0001:00024730       ?Write@BaseFileStream@@UAEIPBXI@Z 00425730 f i de_file.obj
 0001:00024740       ??_GBaseFileStream@@UAEPAXI@Z 00425740 f i de_file.obj
 0001:00024740       ??_EBaseFileStream@@UAEPAXI@Z 00425740 f i de_file.obj
 0001:00024760       ?df_OpenTree@@YAHPBDAAPAPAX@Z 00425760 f   de_file.obj
 0001:000248d0       ?df_GetFileInfo@@YA_NPAPAXPBDPAULTFindInfo@@@Z 004258d0 f   de_file.obj
 0001:00024a30       ?df_GetFullFilename@@YAHPAPAXPAD1H@Z 00425a30 f   de_file.obj
 0001:00024a70       ?df_FindNext@@YAHPAPAXPBDPAULTFindInfo@@@Z 00425a70 f   de_file.obj
 0001:00024e80       ?df_GetRawInfo@@YAHPAPAXPBDPADIPAI3@Z 00425e80 f   de_file.obj
 0001:00024ff0       ??0?$ObjectBank@VDosFileStream@@VLCriticalSection@@@@QAE@II@Z 00425ff0 f i de_file.obj
 0001:00025070       ?Term@?$ObjectBank@VDosFileStream@@VLCriticalSection@@@@UAEXXZ 00426070 f i de_file.obj
 0001:000250a0       ??1?$ObjectBank@VDosFileStream@@VLCriticalSection@@@@UAE@XZ 004260a0 f i de_file.obj
 0001:00025100       ??0?$ObjectBank@VRezFileStream@@VLCriticalSection@@@@QAE@II@Z 00426100 f i de_file.obj
 0001:00025180       ?Term@?$ObjectBank@VRezFileStream@@VLCriticalSection@@@@UAEXXZ 00426180 f i de_file.obj
 0001:000251b0       ??1?$ObjectBank@VRezFileStream@@VLCriticalSection@@@@UAE@XZ 004261b0 f i de_file.obj
 0001:00025210       ??_G?$ObjectBank@VDosFileStream@@VLCriticalSection@@@@UAEPAXI@Z 00426210 f i de_file.obj
 0001:00025210       ??_E?$ObjectBank@VDosFileStream@@VLCriticalSection@@@@UAEPAXI@Z 00426210 f i de_file.obj
 0001:00025230       ??_E?$ObjectBank@VRezFileStream@@VLCriticalSection@@@@UAEPAXI@Z 00426230 f i de_file.obj
 0001:00025230       ??_G?$ObjectBank@VRezFileStream@@VLCriticalSection@@@@UAEPAXI@Z 00426230 f i de_file.obj
 0001:00025250       ?SeekTo@RezFileStream@@UAEII@Z 00426250 f i de_file.obj
 0001:00025280       ?Read@RezFileStream@@UAEIPAXI@Z 00426280 f i de_file.obj
 0001:00025320       ?Release@DosFileStream@@UAEXXZ 00426320 f   de_file.obj
 0001:00025350       ?Release@RezFileStream@@UAEXXZ 00426350 f   de_file.obj
 0001:00025380       ?FreeVoid@?$ObjectBank@VRezFileStream@@VLCriticalSection@@@@UAEXPAX@Z 00426380 f i de_file.obj
 0001:00025380       ?FreeVoid@?$ObjectBank@VDosFileStream@@VLCriticalSection@@@@UAEXPAX@Z 00426380 f i de_file.obj
 0001:000253b0       ?Allocate@?$ObjectBank@VRezFileStream@@VLCriticalSection@@@@QAEPAVRezFileStream@@XZ 004263b0 f i de_file.obj
 0001:00025420       ?GetPos@DosFileStream@@UAEIPAI@Z 00426420 f i de_file.obj
 0001:00025440       ?SeekTo@DosFileStream@@UAEII@Z 00426440 f i de_file.obj
 0001:00025470       ?Read@DosFileStream@@UAEIPAXI@Z 00426470 f i de_file.obj
 0001:000254d0       ??_GDosFileStream@@UAEPAXI@Z 004264d0 f i de_file.obj
 0001:000254d0       ??_GRezFileStream@@UAEPAXI@Z 004264d0 f i de_file.obj
 0001:000254d0       ??_EDosFileStream@@UAEPAXI@Z 004264d0 f i de_file.obj
 0001:000254d0       ??_ERezFileStream@@UAEPAXI@Z 004264d0 f i de_file.obj
 0001:000254f0       ??1RezFileStream@@UAE@XZ   004264f0 f i de_file.obj
 0001:000254f0       ??1DosFileStream@@UAE@XZ   004264f0 f i de_file.obj
 0001:00025500       ?AllocVoid@?$ObjectBank@VRezFileStream@@VLCriticalSection@@@@UAEPAXXZ 00426500 f i de_file.obj
 0001:00025510       ?Allocate@?$ObjectBank@VDosFileStream@@VLCriticalSection@@@@QAEPAVDosFileStream@@XZ 00426510 f i de_file.obj
 0001:00025580       ?df_Open@@YAPAVILTStream@@PAPAXPBDH@Z 00426580 f   de_file.obj
 0001:000256f0       ?AllocVoid@?$ObjectBank@VDosFileStream@@VLCriticalSection@@@@UAEPAXXZ 004266f0 f i de_file.obj
 0001:00025700       ?MatVMul@@YAXPAU?$TVector3@M@@PBULTMatrix@@PBU1@@Z 00426700 f i de_mainworld.obj
 0001:00025760       ?MatVMul_3x3@@YAXPAU?$TVector3@M@@PBULTMatrix@@PBU1@@Z 00426760 f i de_mainworld.obj
 0001:000257c0       ?w_SetPlaneTypes@@YAXPAVNode@@I_N@Z 004267c0 f   de_mainworld.obj
 0001:00025af0       ?InheritTo@WorldData@@QAE_NPAV1@@Z 00426af0 f   de_mainworld.obj
 0001:00025b10       ?MakeHPoly@WorldBsp@@QBE?AUHPOLY@@PBVNode@@@Z 00426b10 f   de_mainworld.obj
 0001:00025b70       ?GetPolyFromHPoly@WorldBsp@@QAEPAVWorldPoly@@UHPOLY@@@Z 00426b70 f   de_mainworld.obj
 0001:00025b90       ?w_TransformWorldModel@@YAXPAVWorldModelInstance@@PAULTMatrix@@_N@Z 00426b90 f   de_mainworld.obj
 0001:00025d70       ??0WorldData@@QAE@XZ       00426d70 f   de_mainworld.obj
 0001:00025d80       ?Clear@WorldBsp@@QAEXXZ    00426d80 f   de_mainworld.obj
 0001:00025de0       ?Term@WorldBsp@@QAEXXZ     00426de0 f   de_mainworld.obj
 0001:00025e50       ?w_DoLightLookup@@YAXAAVCLightTable@@PBU?$TVector3@M@@PATLTRGBColor@@@Z 00426e50 f   de_mainworld.obj
 0001:00025ec0       ?Load@WorldBsp@@QAE?AW4ELoadWorldStatus@@PAVILTStream@@_N@Z 00426ec0 f   de_mainworld.obj
 0001:00026540       ?DistSqr@?$TVector3@M@@QBEMABU1@@Z 00427540 f i de_mainworld.obj
 0001:00026570       ??0WorldBsp@@QAE@XZ        00427570 f   de_mainworld.obj
 0001:00026580       ??1WorldBsp@@QAE@XZ        00427580 f   de_mainworld.obj
 0001:00026590       ?CalcBoundingSpheres@WorldBsp@@QAEXXZ 00427590 f   de_mainworld.obj
 0001:00026760       ?TermInherited@WorldData@@QAEXXZ 00427760 f   de_mainworld.obj
 0001:000267a0       ?Term@WorldData@@QAEXXZ    004277a0 f   de_mainworld.obj
 0001:00026800       ??1WorldData@@QAE@XZ       00427800 f   de_mainworld.obj
 0001:00026810       ?dm_HeapCompact@@YAXXZ     00427810 f   de_memory.obj
 0001:00026840       ?dm_Init@@YAXXZ            00427840 f   de_memory.obj
 0001:00026880       ?dm_Term@@YAXXZ            00427880 f   de_memory.obj
 0001:000268b0       ?dm_GetBytesAllocated@@YAIXZ 004278b0 f   de_memory.obj
 0001:000268c0       ?dm_GetNumAllocations@@YAIXZ 004278c0 f   de_memory.obj
 0001:000268d0       ?dalloc@@YAPAXI@Z          004278d0 f   de_memory.obj
 0001:00026970       ?dalloc_z@@YAPAXI@Z        00427970 f   de_memory.obj
 0001:000269a0       ?dfree@@YAXPAX@Z           004279a0 f   de_memory.obj
 0001:00026a40       ?DefStdlithAlloc@@YAPAXI@Z 00427a40 f   de_memory.obj
 0001:00026a40       ??2@YAPAXI@Z               00427a40 f   de_memory.obj
 0001:00026a50       ?DefStdlithFree@@YAXPAX@Z  00427a50 f   de_memory.obj
 0001:00026a50       ??3@YAXPAX@Z               00427a50 f   de_memory.obj
 0001:00026a60       ?obj_SetupWorldModelTransform@@YAXPAVWorldModelInstance@@@Z 00427a60 f   de_objects.obj
 0001:00026aa0       ??0CDIDebugText@@QAE@XZ    00427aa0 f   debuggeometry.obj
 0001:00026ac0       ??1CDIDebugText@@UAE@XZ    00427ac0 f   debuggeometry.obj
 0001:00026b20       ?Render@CDIDebugText@@UAEXXZ 00427b20 f   debuggeometry.obj
 0001:00026bc0       ?Render@CDIDebugLine@@UAEXXZ 00427bc0 f   debuggeometry.obj
 0001:00026c60       ?Render@CDIDebugPolygon@@UAEXXZ 00427c60 f   debuggeometry.obj
 0001:00026d60       ??_ECDIDebugText@@UAEPAXI@Z 00427d60 f i debuggeometry.obj
 0001:00026d60       ??_GCDIDebugText@@UAEPAXI@Z 00427d60 f i debuggeometry.obj
 0001:00026d80       ??0CDIDebugLine@@QAE@XZ    00427d80 f   debuggeometry.obj
 0001:00026da0       ??0CDIDebugPolygon@@QAE@XZ 00427da0 f   debuggeometry.obj
 0001:00026de0       ??_ECDIDebugLine@@UAEPAXI@Z 00427de0 f i debuggeometry.obj
 0001:00026de0       ??_ECDIDebugPolygon@@UAEPAXI@Z 00427de0 f i debuggeometry.obj
 0001:00026de0       ??_GCDIDebugPolygon@@UAEPAXI@Z 00427de0 f i debuggeometry.obj
 0001:00026de0       ??_GCDIDebugLine@@UAEPAXI@Z 00427de0 f i debuggeometry.obj
 0001:00026e00       ??1CDIDebugLine@@UAE@XZ    00427e00 f i debuggeometry.obj
 0001:00026e00       ??1CRenderObject@@UAE@XZ   00427e00 f i d3d_model_load.obj
 0001:00026e00       ??1CDIDebugPolygon@@UAE@XZ 00427e00 f i debuggeometry.obj
 0001:00026e10       ?clear@?$list@UD3DXMATRIX@@V?$allocator@UD3DXMATRIX@@@std@@@std@@QAEXXZ 00427e10 f i LIB_D3DRender:d3d_renderstatemgr.obj
 0001:00026e10       ?clear@?$list@PAVCDIDebugLine@@V?$allocator@PAVCDIDebugLine@@@std@@@std@@QAEXXZ 00427e10 f i debuggeometry.obj
 0001:00026e10       ?clear@?$list@PAVCDIDebugText@@V?$allocator@PAVCDIDebugText@@@std@@@std@@QAEXXZ 00427e10 f i debuggeometry.obj
 0001:00026e10       ?clear@?$list@VCD3DRenderPass@@V?$allocator@VCD3DRenderPass@@@std@@@std@@QAEXXZ 00427e10 f i LIB_D3DRender:d3d_renderstyle.obj
 0001:00026e10       ?clear@?$list@PAVCDIDebugPolygon@@V?$allocator@PAVCDIDebugPolygon@@@std@@@std@@QAEXXZ 00427e10 f i debuggeometry.obj
 0001:00026e50       ?render@CDebugGeometry@@QAEXXZ 00427e50 f   debuggeometry.obj
 0001:00026eb0       ?_Buynode@?$list@PAVCDIDebugLine@@V?$allocator@PAVCDIDebugLine@@@std@@@std@@IAEPAU_Node@?$_List_nod@PAVCDIDebugLine@@V?$allocator@PAVCDIDebugLine@@@std@@@2@XZ 00427eb0 f i debuggeometry.obj
 0001:00026eb0       ?_Buynode@?$list@PAVCDIDebugPolygon@@V?$allocator@PAVCDIDebugPolygon@@@std@@@std@@IAEPAU_Node@?$_List_nod@PAVCDIDebugPolygon@@V?$allocator@PAVCDIDebugPolygon@@@std@@@2@XZ 00427eb0 f i debuggeometry.obj
 0001:00026eb0       ?_Buynode@?$list@PAVCDIDebugText@@V?$allocator@PAVCDIDebugText@@@std@@@std@@IAEPAU_Node@?$_List_nod@PAVCDIDebugText@@V?$allocator@PAVCDIDebugText@@@std@@@2@XZ 00427eb0 f i debuggeometry.obj
 0001:00026ed0       ?clear@CDebugGeometry@@QAEXXZ 00427ed0 f   debuggeometry.obj
 0001:00026fd0       ??1?$list@VCD3DRenderPass@@V?$allocator@VCD3DRenderPass@@@std@@@std@@QAE@XZ 00427fd0 f i LIB_D3DRender:d3d_renderstyle.obj
 0001:00026fd0       ??1?$list@PAVCDIDebugLine@@V?$allocator@PAVCDIDebugLine@@@std@@@std@@QAE@XZ 00427fd0 f i debuggeometry.obj
 0001:00026fd0       ??1?$list@PAVCDIDebugText@@V?$allocator@PAVCDIDebugText@@@std@@@std@@QAE@XZ 00427fd0 f i debuggeometry.obj
 0001:00026fd0       ??1?$list@UD3DXMATRIX@@V?$allocator@UD3DXMATRIX@@@std@@@std@@QAE@XZ 00427fd0 f i LIB_D3DRender:d3d_renderstatemgr.obj
 0001:00026fd0       ??1?$list@PAVCDIDebugPolygon@@V?$allocator@PAVCDIDebugPolygon@@@std@@@std@@QAE@XZ 00427fd0 f i debuggeometry.obj
 0001:00026ff0       ??0CDebugGeometry@@QAE@XZ  00427ff0 f   debuggeometry.obj
 0001:00027070       ??1CDebugGeometry@@QAE@XZ  00428070 f   debuggeometry.obj
 0001:00027100       ?getDebugGeometry@@YAAAVCDebugGeometry@@XZ 00428100 f   debuggeometry.obj
 0001:00027160       ?drawAllDebugGeometry@@YAXXZ 00428160 f   debuggeometry.obj
 0001:00027170       ?DebugOut@@YAXPBDZZ        00428170 f   debugging.obj
 0001:000271c0       ?GetDGColorTable@@YAPAVDGSample@@II@Z 004281c0 f   debuggraphmgr.obj
 0001:00027220       ?GetDGColorTable@@YAPAVDGSample@@III@Z 00428220 f   debuggraphmgr.obj
 0001:00027290       ?Term@DebugGraph@@QAEIXZ   00428290 f   debuggraphmgr.obj
 0001:000272c0       ?Draw@DebugGraph@@QAEIXZ   004282c0 f   debuggraphmgr.obj
 0001:00027360       ?CalcGraphRect@CDebugGraphMgr@@AAEIAAVLTRect@@I@Z 00428360 f   debuggraphmgr.obj
 0001:000273e0       ?InitLabel@DebugGraph@@QAEIPAD@Z 004283e0 f   debuggraphmgr.obj
 0001:00027500       ?AddSample@DebugGraph@@QAEIAAVDGSample@@I@Z 00428500 f   debuggraphmgr.obj
 0001:00027620       ??$BaseNew@VDGSample@@@@YAPAVDGSample@@PAVLAlloc@@PAV0@I_N@Z 00428620 f i debuggraphmgr.obj
 0001:00027670       ?Init@DebugGraph@@QAEIPAVLTRect@@PADI@Z 00428670 f   debuggraphmgr.obj
 0001:00027850       ?CalcColor@DGSample@@QAEXPAV1@@Z 00428850 f   debuggraphmgr.obj
 0001:00027a20       ?FindGraph@CDebugGraphMgr@@QAEPAVDebugGraph@@PAX@Z 00428a20 f   debuggraphmgr.obj
 0001:00027a90       ?CopyArray2@?$CMoArray@VDGSample@@VDefaultCache@@@@QAEIABV1@PAVLAlloc@@@Z 00428a90 f i debuggraphmgr.obj
 0001:00027b40       ?SetSize2@?$CMoArray@VDGSample@@VDefaultCache@@@@QAEIIPAVLAlloc@@_N@Z 00428b40 f i debuggraphmgr.obj
 0001:00027bc0       ?InternalNiceSetSize@?$CMoArray@VDGSample@@VDefaultCache@@@@AAEIIIPAVLAlloc@@@Z 00428bc0 f i debuggraphmgr.obj
 0001:00027ca0       ?Insert2@?$CMoArray@VDGSample@@VDefaultCache@@@@QAEIIABVDGSample@@PAVLAlloc@@@Z 00428ca0 f i debuggraphmgr.obj
 0001:00027dc0       ?Insert2@?$CMoArray@IVDefaultCache@@@@QAEIIABIPAVLAlloc@@@Z 00428dc0 f i LIB_D3DRender:d3d_surface.obj
 0001:00027dc0       ?Insert2@?$CMoArray@PAVCBaseDriver@@VDefaultCache@@@@QAEIIABQAVCBaseDriver@@PAVLAlloc@@@Z 00428dc0 f i netmgr.obj
 0001:00027dc0       ?Insert2@?$CMoArray@PAVCBaseConn@@VDefaultCache@@@@QAEIIABQAVCBaseConn@@PAVLAlloc@@@Z 00428dc0 f i netmgr.obj
 0001:00027dc0       ?Insert2@?$CMoArray@PAXVDefaultCache@@@@QAEIIABQAXPAVLAlloc@@@Z 00428dc0 f i debuggraphmgr.obj
 0001:00027ec0       ?Insert@?$CMoArray@VDGSample@@VDefaultCache@@@@QAEIIABVDGSample@@@Z 00428ec0 f i debuggraphmgr.obj
 0001:00027ee0       ?Insert@?$CMoArray@PAXVDefaultCache@@@@QAEIIABQAX@Z 00428ee0 f i debuggraphmgr.obj
 0001:00027f00       ?Draw@CDebugGraphMgr@@QAEIXZ 00428f00 f   debuggraphmgr.obj
 0001:00027fa0       ??1?$CMoArray@VDGSample@@VDefaultCache@@@@QAE@XZ 00428fa0 f i debuggraphmgr.obj
 0001:00027fd0       ?GenFindElement@?$CMoArray@ULTRecord@@VDefaultCache@@@@UBEIABULTRecord@@AAVGenListPos@@@Z 00428fd0 f i servermgr.obj
 0001:00027fd0       ?GenFindElement@?$CMoArray@VDGSample@@VDefaultCache@@@@UBEIABVDGSample@@AAVGenListPos@@@Z 00428fd0 f i debuggraphmgr.obj
 0001:00027fd0       ?GenFindElement@?$CMoArray@VSBank@@VDefaultCache@@@@UBEIABVSBank@@AAVGenListPos@@@Z 00428fd0 f i Lib_StdLith:stringholder.obj
 0001:00027fd0       ?GenFindElement@?$CMoArray@VAnimKeyFrame@@VNoCache@@@@UBEIABVAnimKeyFrame@@AAVGenListPos@@@Z 00428fd0 f i model.obj
 0001:00028000       ?GenRemoveAt@?$CMoArray@VDGSample@@VDefaultCache@@@@UAEXVGenListPos@@@Z 00429000 f i debuggraphmgr.obj
 0001:00028020       ?Remove2@?$CMoArray@VDGSample@@VDefaultCache@@@@QAEXIPAVLAlloc@@@Z 00429020 f i debuggraphmgr.obj
 0001:00028110       ?GenCopyList@?$CMoArray@VDGSample@@VDefaultCache@@@@UAEIABV?$GenList@VDGSample@@@@@Z 00429110 f i debuggraphmgr.obj
 0001:00028200       ?GenAppendList@?$CMoArray@VDGSample@@VDefaultCache@@@@UAEIABV?$GenList@VDGSample@@@@@Z 00429200 f i debuggraphmgr.obj
 0001:000282f0       ??1?$CMoArray@PAXVDefaultCache@@@@QAE@XZ 004292f0 f i debuggraphmgr.obj
 0001:00028320       ?GenCopyList@?$CMoArray@PAVCBaseDriver@@VDefaultCache@@@@UAEIABV?$GenList@PAVCBaseDriver@@@@@Z 00429320 f i netmgr.obj
 0001:00028320       ?GenCopyList@?$CMoArray@IVDefaultCache@@@@UAEIABV?$GenList@I@@@Z 00429320 f i LIB_D3DRender:d3d_surface.obj
 0001:00028320       ?GenCopyList@?$CMoArray@PAXVDefaultCache@@@@UAEIABV?$GenList@PAX@@@Z 00429320 f i debuggraphmgr.obj
 0001:00028320       ?GenCopyList@?$CMoArray@PAVCBaseConn@@VDefaultCache@@@@UAEIABV?$GenList@PAVCBaseConn@@@@@Z 00429320 f i netmgr.obj
 0001:000283f0       ?Init@?$CMoArray@PAXVDefaultCache@@@@QAEIII@Z 004293f0 f i debuggraphmgr.obj
 0001:00028440       ??1DGTracker@@QAE@XZ       00429440 f i debuggraphmgr.obj
 0001:00028470       ?GenAppend@?$CMoArray@VDGSample@@VDefaultCache@@@@UAEIAAVDGSample@@@Z 00429470 f i debuggraphmgr.obj
 0001:00028490       ?GenAppend@?$CMoArray@PAXVDefaultCache@@@@UAEIAAPAX@Z 00429490 f i debuggraphmgr.obj
 0001:000284b0       ??0DGTracker@@QAE@PAXPAVDebugGraph@@@Z 004294b0 f i debuggraphmgr.obj
 0001:00028540       ??$BaseNew@VDGTracker@@@@YAPAVDGTracker@@PAVLAlloc@@PAV0@I_N@Z 00429540 f i debuggraphmgr.obj
 0001:000285e0       ?_DeleteAndDestroyArray@?$CMoArray@VDGTracker@@VDefaultCache@@@@AAEXPAVLAlloc@@I@Z 004295e0 f i debuggraphmgr.obj
 0001:00028630       ?SetSize2@?$CMoArray@VDGTracker@@VDefaultCache@@@@QAEIIPAVLAlloc@@_N@Z 00429630 f i debuggraphmgr.obj
 0001:000286b0       ?Insert2@?$CMoArray@VDGTracker@@VDefaultCache@@@@QAEIIABVDGTracker@@PAVLAlloc@@@Z 004296b0 f i debuggraphmgr.obj
 0001:00028870       ?Remove2@?$CMoArray@VDGTracker@@VDefaultCache@@@@QAEXIPAVLAlloc@@@Z 00429870 f i debuggraphmgr.obj
 0001:000289f0       ?Insert@?$CMoArray@VDGTracker@@VDefaultCache@@@@QAEIIABVDGTracker@@@Z 004299f0 f i debuggraphmgr.obj
 0001:00028a10       ?RemoveGraph@CDebugGraphMgr@@AAEXI@Z 00429a10 f   debuggraphmgr.obj
 0001:00028b00       ?FlushGraphs@CDebugGraphMgr@@AAEXXZ 00429b00 f   debuggraphmgr.obj
 0001:00028b50       ?CheckGraph@CDebugGraphMgr@@QAEIPAXI@Z 00429b50 f   debuggraphmgr.obj
 0001:00028b80       ?SetGraphSize@CDebugGraphMgr@@QAEIII@Z 00429b80 f   debuggraphmgr.obj
 0001:00028c30       ?MoveTo@CDebugGraphMgr@@QAEIPAVLTRect@@@Z 00429c30 f   debuggraphmgr.obj
 0001:00028c90       ??1?$CMoArray@VDGTracker@@VDefaultCache@@@@QAE@XZ 00429c90 f i debuggraphmgr.obj
 0001:00028cc0       ?GenFindElement@?$CMoArray@VAnimInfo@@VNoCache@@@@UBEIABVAnimInfo@@AAVGenListPos@@@Z 00429cc0 f i model.obj
 0001:00028cc0       ?GenFindElement@?$CMoArray@VDGTracker@@VDefaultCache@@@@UBEIABVDGTracker@@AAVGenListPos@@@Z 00429cc0 f i debuggraphmgr.obj
 0001:00028cf0       ?GenGetNext@?$CMoArray@VDGTracker@@VDefaultCache@@@@UBE?AVDGTracker@@AAVGenListPos@@@Z 00429cf0 f i debuggraphmgr.obj
 0001:00028d40       ?GenGetAt@?$CMoArray@VDGTracker@@VDefaultCache@@@@UBE?AVDGTracker@@AAVGenListPos@@@Z 00429d40 f i debuggraphmgr.obj
 0001:00028d90       ?GenRemoveAll@?$CMoArray@VDGTracker@@VDefaultCache@@@@UAEXXZ 00429d90 f i debuggraphmgr.obj
 0001:00028dc0       ?GenRemoveAt@?$CMoArray@VDGTracker@@VDefaultCache@@@@UAEXVGenListPos@@@Z 00429dc0 f i debuggraphmgr.obj
 0001:00028de0       ?GenCopyList@?$CMoArray@VDGTracker@@VDefaultCache@@@@UAEIABV?$GenList@VDGTracker@@@@@Z 00429de0 f i debuggraphmgr.obj
 0001:00028f50       ?GenAppendList@?$CMoArray@VDGTracker@@VDefaultCache@@@@UAEIABV?$GenList@VDGTracker@@@@@Z 00429f50 f i debuggraphmgr.obj
 0001:000290b0       ?InternalNiceSetSize@?$CMoArray@VDGTracker@@VDefaultCache@@@@AAEIIIPAVLAlloc@@@Z 0042a0b0 f i debuggraphmgr.obj
 0001:000291d0       ?Init@?$CMoArray@VDGTracker@@VDefaultCache@@@@QAEIII@Z 0042a1d0 f i debuggraphmgr.obj
 0001:00029230       ?Term@CDebugGraphMgr@@QAEIXZ 0042a230 f   debuggraphmgr.obj
 0001:00029290       ?UpdateGraph@CDebugGraphMgr@@QAEIPAXMABUDGParams@@@Z 0042a290 f   debuggraphmgr.obj
 0001:000294a0       ?GenAppend@?$CMoArray@VDGTracker@@VDefaultCache@@@@UAEIAAVDGTracker@@@Z 0042a4a0 f i debuggraphmgr.obj
 0001:000294c0       ??0CDebugGraphMgr@@QAE@XZ  0042a4c0 f   debuggraphmgr.obj
 0001:00029540       ??1CDebugGraphMgr@@QAE@XZ  0042a540 f   debuggraphmgr.obj
 0001:000295e0       ?Init@CDebugGraphMgr@@QAEIPAVLTRect@@@Z 0042a5e0 f   debuggraphmgr.obj
 0001:00029840       ?hs_FindElement@@YAPAVHHashElement@@PAVHHashTable@@PBXI@Z 0042a840 f   dhashtable.obj
 0001:000298d0       ?hs_FindNextElement@@YAPAVHHashElement@@PAVHHashTable@@PAV1@PBXI@Z 0042a8d0 f   dhashtable.obj
 0001:00029940       ?hs_GetElementKey@@YAPAXPAVHHashElement@@PAI@Z 0042a940 f   dhashtable.obj
 0001:00029960       ?hs_GetElementUserData@@YAPAXPAVHHashElement@@@Z 0042a960 f   dhashtable.obj
 0001:00029970       ?hs_GetFirstElement@@YAPAVHHashIterator@@PAVHHashTable@@@Z 0042a970 f   dhashtable.obj
 0001:00029990       ?hs_GetNextElement@@YAPAVHHashElement@@AAPAVHHashIterator@@@Z 0042a990 f   dhashtable.obj
 0001:000299c0       ?hs_CreateHashTable@@YAPAVHHashTable@@IH@Z 0042a9c0 f   dhashtable.obj
 0001:00029a90       ??0?$ObjectBank@UHashElement@@VNullCS@@@@QAE@II@Z 0042aa90 f i dhashtable.obj
 0001:00029af0       ??1?$ObjectBank@UHashElement@@VNullCS@@@@UAE@XZ 0042aaf0 f i dhashtable.obj
 0001:00029b40       ?Term@?$ObjectBank@UHashElement@@VNullCS@@@@UAEXXZ 0042ab40 f i dhashtable.obj
 0001:00029b40       ?Term@?$ObjectBank@UUsedFile@@VNullCS@@@@UAEXXZ 0042ab40 f i server_filemgr.obj
 0001:00029b60       ??_E?$ObjectBank@UHashElement@@VNullCS@@@@UAEPAXI@Z 0042ab60 f i dhashtable.obj
 0001:00029b60       ??_G?$ObjectBank@UHashElement@@VNullCS@@@@UAEPAXI@Z 0042ab60 f i dhashtable.obj
 0001:00029b80       ?hs_DestroyHashTable@@YAXPAVHHashTable@@@Z 0042ab80 f   dhashtable.obj
 0001:00029bf0       ?hs_RemoveElement@@YAXPAVHHashTable@@PAVHHashElement@@@Z 0042abf0 f   dhashtable.obj
 0001:00029c40       ?FreeVoid@?$ObjectBank@UServerFile@@VNullCS@@@@UAEXPAX@Z 0042ac40 f i client_filemgr.obj
 0001:00029c40       ?FreeVoid@?$ObjectBank@UFileIdentifier@@VNullCS@@@@UAEXPAX@Z 0042ac40 f i client_filemgr.obj
 0001:00029c40       ?FreeVoid@?$ObjectBank@VSharedTexture@@VNullCS@@@@UAEXPAX@Z 0042ac40 f i clientmgr.obj
 0001:00029c40       ?FreeVoid@?$ObjectBank@UFTFile@@VNullCS@@@@UAEXPAX@Z 0042ac40 f i ftserv.obj
 0001:00029c40       ?FreeVoid@?$ObjectBank@VRTexture@@VNullCS@@@@UAEXPAX@Z 0042ac40 f i LIB_D3DRender:d3d_texture.obj
 0001:00029c40       ?FreeVoid@?$ObjectBank@VLThreadMessage@@VNullCS@@@@UAEXPAX@Z 0042ac40 f i lthread.obj
 0001:00029c40       ?FreeVoid@?$ObjectBank@UUsedFile@@VNullCS@@@@UAEXPAX@Z 0042ac40 f i server_filemgr.obj
 0001:00029c40       ?FreeVoid@?$ObjectBank@VLTLink@@VNullCS@@@@UAEXPAX@Z 0042ac40 f i clientmgr.obj
 0001:00029c40       ?FreeVoid@?$ObjectBank@UHashElement@@VNullCS@@@@UAEXPAX@Z 0042ac40 f i dhashtable.obj
 0001:00029c50       ?hs_AddElement@@YAPAVHHashElement@@PAVHHashTable@@PBXI@Z 0042ac50 f   dhashtable.obj
 0001:00029cf0       ??1VideoInst@@MAE@XZ       0042acf0 f i dshowvideomgrimpl.obj
 0001:00029d00       ??_GVideoInst@@MAEPAXI@Z   0042ad00 f i dshowvideomgrimpl.obj
 0001:00029d00       ??_EVideoInst@@MAEPAXI@Z   0042ad00 f i dshowvideomgrimpl.obj
 0001:00029d20       ?_AtlGetThreadACPFake@ATL@@YGIXZ 0042ad20 f i dshowvideomgrimpl.obj
 0001:00029d80       ?_AtlGetThreadACPReal@ATL@@YGIXZ 0042ad80 f i dshowvideomgrimpl.obj
 0001:00029d80       ?GetType@CUIButton_Impl@@UAE?AW4CUI_WIDGETTYPE@@XZ 0042ad80 f i Lib_UI:cuibutton_impl.obj
 0001:00029d90       ?_AtlGetThreadACPThunk@ATL@@YGIXZ 0042ad90 f i dshowvideomgrimpl.obj
 0001:00029de0       ??0CComCriticalSection@ATL@@QAE@XZ 0042ade0 f i dshowvideomgrimpl.obj
 0001:00029e00       ?Init@CComCriticalSection@ATL@@QAEJXZ 0042ae00 f i dshowvideomgrimpl.obj
 0001:00029e80       ?StringCopyWorkerA@@YGJPADIPBD@Z 0042ae80 f i dshowvideomgrimpl.obj
 0001:00029ed0       ?StringCopyWorkerW@@YGJPAGIPBG@Z 0042aed0 f i dshowvideomgrimpl.obj
 0001:00029f30       ?Init@SVideoVertex@@QAEXMMMM@Z 0042af30 f i dshowvideomgrimpl.obj
 0001:00029f60       ?RenderOutputPins@@YAJPAUIGraphBuilder@@PAUIBaseFilter@@@Z 0042af60 f   dshowvideomgrimpl.obj
 0001:0002a050       ?GetVideoStatus@DShowVideoInst@@UAEIXZ 0042b050 f   dshowvideomgrimpl.obj
 0001:0002a050       ?GetUserCallbackData@CUIWidgetManager@@UAEPAXXZ 0042b050 f   Lib_UI:cuiwidgetmanager.obj
 0001:0002a050       ?GetMediaTypeVersion@CBasePin@@UAEJXZ 0042b050 f   Lib_DShow:amfilter.obj
 0001:0002a060       ??0CTextureRenderer@@QAE@PAUIUnknown@@PAJ@Z 0042b060 f   dshowvideomgrimpl.obj
 0001:0002a0e0       ?QueryInterface@CBaseInputPin@@UAGJABU_GUID@@PAPAX@Z 0042b0e0 f i Lib_DShow:renbase.obj
 0001:0002a0e0       ?QueryInterface@CBaseVideoRenderer@@UAGJABU_GUID@@PAPAX@Z 0042b0e0 f i dshowvideomgrimpl.obj
 0001:0002a0e0       ?QueryInterface@CBaseFilter@@UAGJABU_GUID@@PAPAX@Z 0042b0e0 f i Lib_DShow:renbase.obj
 0001:0002a0f0       ??1CTextureRenderer@@UAE@XZ 0042b0f0 f   dshowvideomgrimpl.obj
 0001:0002a190       ?CheckMediaType@CTextureRenderer@@UAEJPBVCMediaType@@@Z 0042b190 f   dshowvideomgrimpl.obj
 0001:0002a200       ?DoRenderSample@CTextureRenderer@@UAEJPAUIMediaSample@@@Z 0042b200 f   dshowvideomgrimpl.obj
 0001:0002a4c0       ??4?$CComPtr@UIBaseFilter@@@ATL@@QAEPAUIBaseFilter@@PAU2@@Z 0042b4c0 f i dshowvideomgrimpl.obj
 0001:0002a500       ??$QueryInterface@UIMediaControl@@@?$CComPtrBase@UIGraphBuilder@@@ATL@@QBEJPAPAUIMediaControl@@@Z 0042b500 f i dshowvideomgrimpl.obj
 0001:0002a520       ??$QueryInterface@UIMediaPosition@@@?$CComPtrBase@UIGraphBuilder@@@ATL@@QBEJPAPAUIMediaPosition@@@Z 0042b520 f i dshowvideomgrimpl.obj
 0001:0002a540       ??$QueryInterface@UIMediaEvent@@@?$CComPtrBase@UIGraphBuilder@@@ATL@@QBEJPAPAUIMediaEvent@@@Z 0042b540 f i dshowvideomgrimpl.obj
 0001:0002a560       ?Find@?$CMultiLinkList@PAVVideoInst@@@@QBEPAVCMLLNode@@PAVVideoInst@@PAI@Z 0042b560 f i dshowvideomgrimpl.obj
 0001:0002a5a0       ?QueryInterface@CBaseVideoRenderer@@WNE@AGJABU_GUID@@PAPAX@Z 0042b5a0 f i dshowvideomgrimpl.obj
 0001:0002a5b0       ?AddRef@CBaseVideoRenderer@@WNE@AGKXZ 0042b5b0 f i dshowvideomgrimpl.obj
 0001:0002a5c0       ?Release@CBaseVideoRenderer@@WNE@AGKXZ 0042b5c0 f i dshowvideomgrimpl.obj
 0001:0002a5d0       ?QueryInterface@CBaseVideoRenderer@@WNI@AGJABU_GUID@@PAPAX@Z 0042b5d0 f i dshowvideomgrimpl.obj
 0001:0002a5e0       ?AddRef@CBaseVideoRenderer@@WNI@AGKXZ 0042b5e0 f i dshowvideomgrimpl.obj
 0001:0002a5f0       ?Release@CBaseVideoRenderer@@WNI@AGKXZ 0042b5f0 f i dshowvideomgrimpl.obj
 0001:0002a600       ?IsWindowsMediaFile@@YA_NPAD@Z 0042b600 f   dshowvideomgrimpl.obj
 0001:0002a6a0       ?Term@DShowVideoInst@@QAEXXZ 0042b6a0 f   dshowvideomgrimpl.obj
 0001:0002a730       ?OnRenderTerm@DShowVideoInst@@UAEXXZ 0042b730 f   dshowvideomgrimpl.obj
 0001:0002a740       ?Update@DShowVideoInst@@UAEIXZ 0042b740 f   dshowvideomgrimpl.obj
 0001:0002a7b0       ?UpdateOnScreen@DShowVideoInst@@QAEIXZ 0042b7b0 f   dshowvideomgrimpl.obj
 0001:0002abf0       ??_GCTextureRenderer@@UAEPAXI@Z 0042bbf0 f i dshowvideomgrimpl.obj
 0001:0002abf0       ??_ECTextureRenderer@@UAEPAXI@Z 0042bbf0 f i dshowvideomgrimpl.obj
 0001:0002ac10       ??1?$CComPtr@UIFileSourceFilter@@@ATL@@QAE@XZ 0042bc10 f i dshowvideomgrimpl.obj
 0001:0002ac10       ??1?$CComPtr@UIGraphBuilder@@@ATL@@QAE@XZ 0042bc10 f i dshowvideomgrimpl.obj
 0001:0002ac10       ??1?$CComPtr@UIDirect3DSurface9@@@ATL@@QAE@XZ 0042bc10 f i dshowvideomgrimpl.obj
 0001:0002ac10       ??1?$CComPtr@UIMediaPosition@@@ATL@@QAE@XZ 0042bc10 f i dshowvideomgrimpl.obj
 0001:0002ac10       ??1?$CComPtr@UIPin@@@ATL@@QAE@XZ 0042bc10 f i dshowvideomgrimpl.obj
 0001:0002ac10       ??1?$CComPtr@UIMediaControl@@@ATL@@QAE@XZ 0042bc10 f i dshowvideomgrimpl.obj
 0001:0002ac10       ??1CPauseState@CLTDirectMusicMgr@@QAE@XZ 0042bc10 f i ltdirectmusic_impl.obj
 0001:0002ac10       ??1?$CComPtr@UIBaseFilter@@@ATL@@QAE@XZ 0042bc10 f i dshowvideomgrimpl.obj
 0001:0002ac10       ??1?$CComPtr@UIMediaEvent@@@ATL@@QAE@XZ 0042bc10 f i dshowvideomgrimpl.obj
 0001:0002ac10       ??1CSection_Lightmap@@QAE@XZ 0042bc10 f i LIB_D3DRender:d3d_rendershader_lightmap.obj
 0001:0002ac20       ??0DShowVideoInst@@QAE@PAVDShowVideoMgr@@@Z 0042bc20 f   dshowvideomgrimpl.obj
 0001:0002acf0       ??1DShowVideoInst@@UAE@XZ  0042bcf0 f   dshowvideomgrimpl.obj
 0001:0002ad90       ?InitVideo@DShowVideoInst@@QAEIPBDI@Z 0042bd90 f   dshowvideomgrimpl.obj
 0001:0002b3f0       ?DrawVideo@DShowVideoInst@@UAEIXZ 0042c3f0 f   dshowvideomgrimpl.obj
 0001:0002b410       ?Release@DShowVideoInst@@UAEXXZ 0042c410 f   dshowvideomgrimpl.obj
 0001:0002b470       ?SetMediaType@CTextureRenderer@@UAEJPBVCMediaType@@@Z 0042c470 f   dshowvideomgrimpl.obj
 0001:0002b7f0       ??0DShowVideoMgr@@QAE@XZ   0042c7f0 f   dshowvideomgrimpl.obj
 0001:0002b810       ?CreateScreenVideo@DShowVideoMgr@@UAEIPBDIAAPAVVideoInst@@@Z 0042c810 f   dshowvideomgrimpl.obj
 0001:0002b940       ??_EDShowVideoInst@@UAEPAXI@Z 0042c940 f i dshowvideomgrimpl.obj
 0001:0002b940       ??_GDShowVideoInst@@UAEPAXI@Z 0042c940 f i dshowvideomgrimpl.obj
 0001:0002b960       ?CloseDStream@CDStreamOpenQueueItem@@AAEIXZ 0042c960 f   dstreamopenqueuemgr.obj
 0001:0002b9d0       ?Init@CDStreamOpenQueueMgr@@QAEXH@Z 0042c9d0 f   dstreamopenqueuemgr.obj
 0001:0002b9f0       ?Create@CDStreamOpenQueueMgr@@QAEPAVCDStreamOpenQueueItem@@PBD@Z 0042c9f0 f   dstreamopenqueuemgr.obj
 0001:0002baa0       ?ReduceOpenedItems@CDStreamOpenQueueMgr@@AAEXXZ 0042caa0 f   dstreamopenqueuemgr.obj
 0001:0002bae0       ?Close@CDStreamOpenQueueItem@@QAEIXZ 0042cae0 f   dstreamopenqueuemgr.obj
 0001:0002bb40       ?UnLockDStream@CDStreamOpenQueueItem@@QAEXXZ 0042cb40 f   dstreamopenqueuemgr.obj
 0001:0002bb80       ?OpenDStream@CDStreamOpenQueueItem@@AAEIXZ 0042cb80 f   dstreamopenqueuemgr.obj
 0001:0002bc40       ?CloseAll@CDStreamOpenQueueMgr@@QAEIXZ 0042cc40 f   dstreamopenqueuemgr.obj
 0001:0002bcc0       ?Open@CDStreamOpenQueueItem@@QAEIPBD@Z 0042ccc0 f   dstreamopenqueuemgr.obj
 0001:0002bd70       ?LockDStream@CDStreamOpenQueueItem@@QAEPAVILTStream@@XZ 0042cd70 f   dstreamopenqueuemgr.obj
 0001:0002bde0       ?Destroy@CDStreamOpenQueueMgr@@QAEXPAVCDStreamOpenQueueItem@@@Z 0042cde0 f   dstreamopenqueuemgr.obj
 0001:0002be50       ?DestroyAll@CDStreamOpenQueueMgr@@QAEXXZ 0042ce50 f   dstreamopenqueuemgr.obj
 0001:0002bf50       ?Term@CDStreamOpenQueueMgr@@QAEXXZ 0042cf50 f   dstreamopenqueuemgr.obj
 0001:0002bf70       ?dsi_OnReturnError@@YAXH@Z 0042cf70 f   dsys_interface.obj
 0001:0002bf80       ?dsi_SetupMessage@@YAIPADHI0@Z 0042cf80 f   dsys_interface.obj
 0001:0002c080       ?dsi_Term@@YAXXZ           0042d080 f   dsys_interface.obj
 0001:0002c0d0       ?GetOrCopyFile@@YAIPBDPADHAA_N@Z 0042d0d0 f   dsys_interface.obj
 0001:0002c280       ?dsi_GetRenderModes@@YAPAURMode@@XZ 0042d280 f   dsys_interface.obj
 0001:0002c2a0       ?dsi_RelinquishRenderModes@@YAXPAURMode@@@Z 0042d2a0 f   dsys_interface.obj
 0001:0002c2d0       ?dsi_GetRenderMode@@YAIPAURMode@@@Z 0042d2d0 f   dsys_interface.obj
 0001:0002c2f0       ?dsi_ShutdownRender@@YAII@Z 0042d2f0 f   dsys_interface.obj
 0001:0002c340       ?GetOrCopyClientFile@@YAIPBDPADHAA_N@Z 0042d340 f   dsys_interface.obj
 0001:0002c490       ?dsi_OnMemoryFailure@@YAXXZ 0042d490 f   dsys_interface.obj
 0001:0002c4a0       ?dsi_ClientSleep@@YAXI@Z   0042d4a0 f   dsys_interface.obj
 0001:0002c4b0       ?dsi_IsInputEnabled@@YAIXZ 0042d4b0 f   dsys_interface.obj
 0001:0002c4c0       ?dsi_NumKeyDowns@@YAGXZ    0042d4c0 f   dsys_interface.obj
 0001:0002c4d0       ?dsi_NumKeyUps@@YAGXZ      0042d4d0 f   dsys_interface.obj
 0001:0002c4e0       ?dsi_GetKeyDown@@YAII@Z    0042d4e0 f   dsys_interface.obj
 0001:0002c4f0       ?dsi_GetKeyDownRep@@YAII@Z 0042d4f0 f   dsys_interface.obj
 0001:0002c500       ?dsi_GetKeyUp@@YAII@Z      0042d500 f   dsys_interface.obj
 0001:0002c510       ?dsi_ClearKeyDowns@@YAXXZ  0042d510 f   dsys_interface.obj
 0001:0002c520       ?dsi_ClearKeyUps@@YAXXZ    0042d520 f   dsys_interface.obj
 0001:0002c530       ?dsi_ClearKeyMessages@@YAXXZ 0042d530 f   dsys_interface.obj
 0001:0002c5a0       ?dsi_SetConsoleUp@@YAXI@Z  0042d5a0 f   dsys_interface.obj
 0001:0002c5b0       ?dsi_IsConsoleEnabled@@YA_NXZ 0042d5b0 f   dsys_interface.obj
 0001:0002c5c0       ?dsi_IsClientActive@@YAIXZ 0042d5c0 f   dsys_interface.obj
 0001:0002c5d0       ?dsi_OnClientShutdown@@YAXPAD@Z 0042d5d0 f   dsys_interface.obj
 0001:0002c620       ?dsi_PrintToConsole@@YAXPBDZZ 0042d620 f   dsys_interface.obj
 0001:0002c690       ?dsi_GetInstanceHandle@@YAPAXXZ 0042d690 f   dsys_interface.obj
 0001:0002c6a0       ?dsi_GetMainWindow@@YAPAXXZ 0042d6a0 f   dsys_interface.obj
 0001:0002c6b0       ?dsi_DoErrorMessage@@YAIPBD@Z 0042d6b0 f   dsys_interface.obj
 0001:0002c6f0       ?dsi_MessageBox@@YAXPBD0@Z 0042d6f0 f   dsys_interface.obj
 0001:0002c710       ?dsi_GetVersionInfo@@YAIAAVLTVersionInfo@@@Z 0042d710 f   dsys_interface.obj
 0001:0002c730       ??0?$CAPIHolder@VIInstanceHandleClient@@@@QAE@PBDAAPAVIInstanceHandleClient@@H@Z 0042d730 f i dsys_interface.obj
 0001:0002c7a0       ??1?$CAPIHolder@VIInstanceHandleClient@@@@UAE@XZ 0042d7a0 f i dsys_interface.obj
 0001:0002c810       ??0?$CAPIHolder@VIInstanceHandleServer@@@@QAE@PBDAAPAVIInstanceHandleServer@@H@Z 0042d810 f i dsys_interface.obj
 0001:0002c880       ??1?$CAPIHolder@VIInstanceHandleServer@@@@UAE@XZ 0042d880 f i dsys_interface.obj
 0001:0002c8f0       ??_G?$CAPIHolder@VIInstanceHandleClient@@@@UAEPAXI@Z 0042d8f0 f i dsys_interface.obj
 0001:0002c8f0       ??_E?$CAPIHolder@VIInstanceHandleClient@@@@UAEPAXI@Z 0042d8f0 f i dsys_interface.obj
 0001:0002c910       ??_G?$CAPIHolder@VIInstanceHandleServer@@@@UAEPAXI@Z 0042d910 f i dsys_interface.obj
 0001:0002c910       ??_E?$CAPIHolder@VIInstanceHandleServer@@@@UAEPAXI@Z 0042d910 f i dsys_interface.obj
 0001:0002c930       ?dsi_Init@@YAHXZ           0042d930 f   dsys_interface.obj
 0001:0002c980       ?dsi_LoadServerObjects@@YAIPAVCClassMgr@@@Z 0042d980 f   dsys_interface.obj
 0001:0002cbe0       ?dsi_SetRenderMode@@YAIPAURMode@@@Z 0042dbe0 f   dsys_interface.obj
 0001:0002cd30       ?dsi_InitClientShellDE@@YAIXZ 0042dd30 f   dsys_interface.obj
 0001:0002cfe0       ?dsi_IsConsoleUp@@YAIXZ    0042dfe0 f   dsys_interface.obj
 0001:0002d000       ??1TextureData@@QAE@XZ     0042e000 f   dtxmgr.obj
 0001:0002d080       ?dtx_Destroy@@YAXPAVTextureData@@@Z 0042e080 f   dtxmgr.obj
 0001:0002d0a0       ?dtx_SetupDTXFormat2@@YAXW4BPPIdent@@PAVPFormat@@@Z 0042e0a0 f   dtxmgr.obj
 0001:0002d0c0       ?SetupPFormat@TextureData@@UAEXPAVPFormat@@@Z 0042e0c0 f i dtxmgr.obj
 0001:0002d0e0       ??0TextureData@@QAE@XZ     0042e0e0 f   dtxmgr.obj
 0001:0002d180       ?dtx_Alloc@@YAPAVTextureData@@W4BPPIdent@@IIIPAI1I@Z 0042e180 f   dtxmgr.obj
 0001:0002d380       ?dtx_Create@@YAIPAVILTStream@@PAPAVTextureData@@AAI2@Z 0042e380 f   dtxmgr.obj
 0001:0002d9a0       ?du_UpperStrcmp@@YAHPBD0@Z 0042e9a0 f   dutil.obj
 0001:0002d9a0       ?cc_UpperStrcmp@@YAHPBD0@Z 0042e9a0 f   concommand.obj
 0001:0002d9f0       ?GetEngineVars@@YAPAULTEngineVar@@XZ 0042e9f0 f   engine_vars.obj
 0001:0002da00       ?GetNumEngineVars@@YAHXZ   0042ea00 f   engine_vars.obj
 0001:0002da10       ?PrintToErrorLog@@YAXPBD@Z 0042ea10 f   errorlog.obj
 0001:0002da80       ?InitErrorLog@@YAXXZ       0042ea80 f   errorlog.obj
 0001:0002dad0       ?TermErrorLog@@YAXXZ       0042ead0 f   errorlog.obj
 0001:0002db00       ?FindObjectClient@CFindObj@@UAEPAVLTObject@@G@Z 0042eb00 f   findobj.obj
 0001:0002db10       ?FindObjectServer@CFindObj@@UAEPAVLTObject@@G@Z 0042eb10 f   findobj.obj
 0001:0002db20       ?_InterfaceImplementation@CFindObj@@UAEPBDXZ 0042eb20 f i findobj.obj
 0001:0002db30       ?ftc_Init@@YAPAUFTClient@@PAUFTCInitStruct@@@Z 0042eb30 f   ftclient.obj
 0001:0002db70       ?ftc_Term@@YAXPAUFTClient@@@Z 0042eb70 f   ftclient.obj
 0001:0002db90       ?hs_SetElementUserData@@YAXPAVHHashElement@@PAX@Z 0042eb90 f   dhashtable.obj
 0001:0002db90       ?ftc_SetUserData1@@YAXPAUFTClient@@PAX@Z 0042eb90 f   ftclient.obj
 0001:0002dba0       ?ftc_ProcessPacket@@YAXPAUFTClient@@ABVCPacket_Read@@@Z 0042eba0 f   ftclient.obj
 0001:0002ddd0       ?Empty@CPacket_Write@@QBE_NXZ 0042edd0 f i ftserv.obj
 0001:0002de00       ?fts_GetNumNeededFiles@@YAIPAUFTServ@@@Z 0042ee00 f   ftserv.obj
 0001:0002de10       ?fts_GetNumTotalFiles@@YAIPAUFTServ@@@Z 0042ee10 f   ftserv.obj
 0001:0002de20       ??0?$ObjectBank@UFTFile@@VNullCS@@@@QAE@XZ 0042ee20 f i ftserv.obj
 0001:0002de70       ??1?$ObjectBank@UFTFile@@VNullCS@@@@UAE@XZ 0042ee70 f i ftserv.obj
 0001:0002dec0       ?Term@?$ObjectBank@UFTFile@@VNullCS@@@@UAEXXZ 0042eec0 f i ftserv.obj
 0001:0002dee0       ??_G?$ObjectBank@UFTFile@@VNullCS@@@@UAEPAXI@Z 0042eee0 f i ftserv.obj
 0001:0002dee0       ??_E?$ObjectBank@UFTFile@@VNullCS@@@@UAEPAXI@Z 0042eee0 f i ftserv.obj
 0001:0002df30       ??0FTServ@@QAE@XZ          0042ef30 f i ftserv.obj
 0001:0002df80       ??1FTServ@@QAE@XZ          0042ef80 f i ftserv.obj
 0001:0002dfd0       ?fts_ClearFiles@@YAXPAUFTServ@@@Z 0042efd0 f   ftserv.obj
 0001:0002e190       ?fts_SendFileDesc@@YAXPAUFTServ@@PAUFTFile@@@Z 0042f190 f i ftserv.obj
 0001:0002e290       ?fts_Init@@YAPAUFTServ@@PAUFTSInitStruct@@I@Z 0042f290 f   ftserv.obj
 0001:0002e380       ?fts_AddFile@@YAHPAUFTServ@@PADIIG@Z 0042f380 f   ftserv.obj
 0001:0002e400       ?fts_FlushAddedFiles@@YAXPAUFTServ@@@Z 0042f400 f   ftserv.obj
 0001:0002e550       ?fts_StopTransfer@@YAXPAUFTServ@@@Z 0042f550 f   ftserv.obj
 0001:0002e650       ?fts_ProcessPacket@@YA_NPAUFTServ@@ABVCPacket_Read@@@Z 0042f650 f   ftserv.obj
 0001:0002e7e0       ?fts_Update@@YAXPAUFTServ@@M@Z 0042f7e0 f   ftserv.obj
 0001:0002e8b0       ?fts_Term@@YAXPAUFTServ@@@Z 0042f8b0 f   ftserv.obj
 0001:0002e8e0       ?Apply@LTMatrix@@QBEXAAU?$TVector3@M@@@Z 0042f8e0 f i fullintersectline.obj
 0001:0002e940       ?GetBasisVectors@LTMatrix@@QBEXPAU?$TVector3@M@@00@Z 0042f940 f i fullintersectline.obj
 0001:0002e990       ?MatMul@@YAXPAULTMatrix@@PBU1@1@Z 0042f990 f i fullintersectline.obj
 0001:0002ebb0       ??DLTMatrix@@QBE?AU0@ABU0@@Z 0042fbb0 f i fullintersectline.obj
 0001:0002ebf0       ?Init@LTPlane@@QAEXABU?$TVector3@M@@0@Z 0042fbf0 f i fullintersectline.obj
 0001:0002ec30       ?Identity@LTMatrix@@QAEXXZ 0042fc30 f i fullintersectline.obj
 0001:0002ec70       ?MatVMul_InPlace_H@@YAMPBULTMatrix@@PAU?$TVector3@M@@@Z 0042fc70 f i fullintersectline.obj
 0001:0002ed00       ?UseThisObject@@YA_NPAVLTObject@@MABULTPlane@@ABU?$TVector3@M@@ABUHPOLY@@I@Z 0042fd00 f i fullintersectline.obj
 0001:0002eda0       ?i_BoundingBoxTest@@YA_NABU?$TVector3@M@@0PBVLTObject@@PAU1@PAULTPlane@@@Z 0042fda0 f i fullintersectline.obj
 0001:0002f2d0       ?i_QuickSphereTest@@YA_NPBVLTObject@@@Z 004302d0 f i fullintersectline.obj
 0001:0002f3e0       ?i_QuickSphereTest2@@YA_NABU?$TVector3@M@@M@Z 004303e0 f i fullintersectline.obj
 0001:0002f4d0       ?i_OrientedBoundingBoxTest@@YA_NABUModelOBB@@ABVLTransform@@ABU?$TVector3@M@@2AAM@Z 004304d0 f i fullintersectline.obj
 0001:0002fdb0       ?i_HandlePossibleIntersection@@YA_NABU?$TVector3@M@@0PAVLTObject@@@Z 00430db0 f i fullintersectline.obj
 0001:000300c0       ?Unit@?$TVector3@M@@QBE?BU1@XZ 004310c0 f i fullintersectline.obj
 0001:00030110       ?i_IntersectSegment@@YA_NPAVIntersectQuery@@PAUIntersectInfo@@PAVWorldTree@@@Z 00431110 f   fullintersectline.obj
 0001:00030460       ??1ILTMessage_Read@@UAE@XZ 00431460 f i game_serialize.obj
 0001:00030460       ??1ILTMessage_Write@@UAE@XZ 00431460 f i game_serialize.obj
 0001:00030460       ??1ILTRefCount@@UAE@XZ     00431460 f i game_serialize.obj
 0001:00030470       ?IncRef@ILTRefCount@@UAEXXZ 00431470 f i game_serialize.obj
 0001:00030480       ?DecRef@ILTRefCount@@UAEXXZ 00431480 f i game_serialize.obj
 0001:00030490       ?StaticDecRef@ILTRefCount@@UAEXXZ 00431490 f i game_serialize.obj
 0001:000304a0       ??_GILTRefCount@@UAEPAXI@Z 004314a0 f i game_serialize.obj
 0001:000304a0       ??_EILTRefCount@@UAEPAXI@Z 004314a0 f i game_serialize.obj
 0001:000304c0       ??1CLTMessage_Write@@UAE@XZ 004314c0 f i game_serialize.obj
 0001:00030520       ?Size@CLTMessage_Write@@UBEIXZ 00431520 f i game_serialize.obj
 0001:00030520       ?Size@CLTMessage_Save@@UBEIXZ 00431520 f i game_serialize.obj
 0001:00030540       ??1CLTMessage_Write_Server@@UAE@XZ 00431540 f i game_serialize.obj
 0001:00030540       ??1CLTMessage_Save@@UAE@XZ 00431540 f i game_serialize.obj
 0001:00030540       ??1CLTMessage_Write_Client@@UAE@XZ 00431540 f i ltmessage_client.obj
 0001:00030890       ?sm_RestoreConsoleVars@@YAIPAVILTStream@@@Z 00431890 f   game_serialize.obj
 0001:000309a0       ??0?$CAPIHolder@VIServerConsoleState@@@@QAE@PBDAAPAVIServerConsoleState@@H@Z 004319a0 f i game_serialize.obj
 0001:00030a10       ??1?$CAPIHolder@VIServerConsoleState@@@@UAE@XZ 00431a10 f i game_serialize.obj
 0001:00030a80       ??0?$CAPIHolder@VIWorldServerBSP@@@@QAE@PBDAAPAVIWorldServerBSP@@H@Z 00431a80 f i game_serialize.obj
 0001:00030af0       ??1?$CAPIHolder@VIWorldServerBSP@@@@UAE@XZ 00431af0 f i game_serialize.obj
 0001:00030b60       ??_G?$CAPIHolder@VIServerConsoleState@@@@UAEPAXI@Z 00431b60 f i game_serialize.obj
 0001:00030b60       ??_E?$CAPIHolder@VIServerConsoleState@@@@UAEPAXI@Z 00431b60 f i game_serialize.obj
 0001:00030b80       ??_G?$CAPIHolder@VIWorldServerBSP@@@@UAEPAXI@Z 00431b80 f i game_serialize.obj
 0001:00030b80       ??_E?$CAPIHolder@VIWorldServerBSP@@@@UAEPAXI@Z 00431b80 f i game_serialize.obj
 0001:00030ba0       ?SetDims@LTObject@@QAEXABU?$TVector3@M@@@Z 00431ba0 f i game_serialize.obj
 0001:00030c70       ?Reset@CLTMessage_Write@@UAEXXZ 00431c70 f i game_serialize.obj
 0001:00030ca0       ?WriteBits@CLTMessage_Write@@UAEXII@Z 00431ca0 f i game_serialize.obj
 0001:00030ca0       ?WriteBits@CLTMessage_Save@@UAEXII@Z 00431ca0 f i game_serialize.obj
 0001:00030cb0       ?WriteData@CLTMessage_Save@@UAEXPBXI@Z 00431cb0 f i game_serialize.obj
 0001:00030cb0       ?WriteData@CLTMessage_Write@@UAEXPBXI@Z 00431cb0 f i game_serialize.obj
 0001:00030cc0       ?WriteString@CLTMessage_Write@@UAEXPBD@Z 00431cc0 f i game_serialize.obj
 0001:00030cc0       ?WriteString@CLTMessage_Save@@UAEXPBD@Z 00431cc0 f i game_serialize.obj
 0001:00030cd0       ?WriteCompLTVector@CLTMessage_Save@@UAEXABU?$TVector3@M@@@Z 00431cd0 f i game_serialize.obj
 0001:00030cd0       ?WriteCompLTVector@CLTMessage_Write@@UAEXABU?$TVector3@M@@@Z 00431cd0 f i game_serialize.obj
 0001:00030cf0       ?WriteCompLTRotation@CLTMessage_Save@@UAEXABULTRotation@@@Z 00431cf0 f i game_serialize.obj
 0001:00030cf0       ?WriteCompLTRotation@CLTMessage_Write@@UAEXABULTRotation@@@Z 00431cf0 f i game_serialize.obj
 0001:00030d10       ?WriteObject@CLTMessage_Write@@UAEXPAVLTObject@@@Z 00431d10 f i game_serialize.obj
 0001:00030d30       ?WriteYRotation@CLTMessage_Write@@UAEXABULTRotation@@@Z 00431d30 f i game_serialize.obj
 0001:00030d30       ?WriteYRotation@CLTMessage_Save@@UAEXABULTRotation@@@Z 00431d30 f i game_serialize.obj
 0001:00030d50       ??1CLTMessage_Read@@MAE@XZ 00431d50 f i game_serialize.obj
 0001:00030db0       ?Clone@CLTMessage_Read@@UBEPAVILTMessage_Read@@XZ 00431db0 f i game_serialize.obj
 0001:00030dc0       ?GetFileName@CRezFileSingleFile@@UAEPADXZ 00431dc0 f i Lib_RezMgr:rezfile.obj
 0001:00030dc0       ?Size@CLTMessage_Load@@UBEIXZ 00431dc0 f i game_serialize.obj
 0001:00030dc0       ?GetTexture@CUIFont_Impl@@UAEPAVSharedTexture@@XZ 00431dc0 f i Lib_UI:cuibitmapfont.obj
 0001:00030dc0       ?GetParent@CUIBase_Impl@@QAEPAVCUIBase@@XZ 00431dc0 f i Lib_UI:cuibase_impl.obj
 0001:00030dc0       ?Size@CLTMessage_Read@@UBEIXZ 00431dc0 f i game_serialize.obj
 0001:00030dd0       ?Tell@CLTMessage_Read@@UBEIXZ 00431dd0 f i game_serialize.obj
 0001:00030dd0       ?GetNoGlowRenderStyle@CRenderStyleMap@@QBEPAVCRenderStyle@@XZ 00431dd0 f i LIB_D3DRender:renderstylemap.obj
 0001:00030dd0       ?GetChildList@CUIBase_Impl@@QAEPAVCUILinkList@@XZ 00431dd0 f i Lib_UI:cuibase_impl.obj
 0001:00030dd0       ?GetFileName@CRezFile@@UAEPADXZ 00431dd0 f i Lib_RezMgr:rezfile.obj
 0001:00030dd0       ?Tell@CLTMessage_Load@@UBEIXZ 00431dd0 f i game_serialize.obj
 0001:00030dd0       ?GetFontTable@CUIFont_Impl@@UAEPAGXZ 00431dd0 f i Lib_UI:cuibitmapfont.obj
 0001:00030de0       ?TellEnd@CLTMessage_Read@@UBEIXZ 00431de0 f i game_serialize.obj
 0001:00030df0       ?EOM@CLTMessage_Read@@UBE_NXZ 00431df0 f i game_serialize.obj
 0001:00030e00       ?ReadBits@CLTMessage_Read@@UAEII@Z 00431e00 f i game_serialize.obj
 0001:00030e00       ?ReadBits@CLTMessage_Load@@UAEII@Z 00431e00 f i game_serialize.obj
 0001:00030e10       ?ReadBits64@CLTMessage_Read@@UAE_KI@Z 00431e10 f i game_serialize.obj
 0001:00030e10       ?ReadBits64@CLTMessage_Load@@UAE_KI@Z 00431e10 f i game_serialize.obj
 0001:00030e20       ?ReadData@CLTMessage_Read@@UAEXPAXI@Z 00431e20 f i game_serialize.obj
 0001:00030e20       ?ReadData@CLTMessage_Load@@UAEXPAXI@Z 00431e20 f i game_serialize.obj
 0001:00030e30       ?ReadString@CLTMessage_Load@@UAEIPADI@Z 00431e30 f i game_serialize.obj
 0001:00030e30       ?ReadString@CLTMessage_Read@@UAEIPADI@Z 00431e30 f i game_serialize.obj
 0001:00030e40       ?ReadCompLTVector@CLTMessage_Read@@UAE?AU?$TVector3@M@@XZ 00431e40 f i game_serialize.obj
 0001:00030e60       ?ReadCompLTRotation@CLTMessage_Read@@UAE?AULTRotation@@XZ 00431e60 f i game_serialize.obj
 0001:00030e80       ?ReadYRotation@CLTMessage_Read@@UAE?AULTRotation@@XZ 00431e80 f i game_serialize.obj
 0001:00030ea0       ?PeekCompLTVector@CLTMessage_Read@@UBE?AU?$TVector3@M@@XZ 00431ea0 f i game_serialize.obj
 0001:00030ec0       ?PeekCompLTRotation@CLTMessage_Read@@UBE?AULTRotation@@XZ 00431ec0 f i game_serialize.obj
 0001:00030ee0       ?PeekYRotation@CLTMessage_Read@@UBE?AULTRotation@@XZ 00431ee0 f i game_serialize.obj
 0001:00030f00       ??_GCLTMessage_Read@@MAEPAXI@Z 00431f00 f i game_serialize.obj
 0001:00030f00       ??_ECLTMessage_Read@@MAEPAXI@Z 00431f00 f i game_serialize.obj
 0001:00030f20       ?WriteCompPos@CLTMessage_Write_Server@@UAEXABU?$TVector3@M@@@Z 00431f20 f i game_serialize.obj
 0001:00030f20       ?WriteCompPos@CLTMessage_Save@@UAEXABU?$TVector3@M@@@Z 00431f20 f i game_serialize.obj
 0001:00030f40       ??1CLTMessage_Read_Server@@UAE@XZ 00431f40 f i game_serialize.obj
 0001:00030f40       ??1CLTMessage_Read_Client@@UAE@XZ 00431f40 f i ltmessage_client.obj
 0001:00030f40       ??1CLTMessage_Load@@UAE@XZ 00431f40 f i game_serialize.obj
 0001:00030f50       ?WriteBits64@CLTMessage_Write@@UAEX_KI@Z 00431f50 f i game_serialize.obj
 0001:00030f50       ?WriteBits64@CLTMessage_Save@@UAEX_KI@Z 00431f50 f i game_serialize.obj
 0001:00030f70       ?WriteMessage@CLTMessage_Save@@UAEXPBVILTMessage_Read@@@Z 00431f70 f i game_serialize.obj
 0001:00030f80       ?WriteHString@CLTMessage_Save@@UAEXPAUHSTRING_t@@@Z 00431f80 f i game_serialize.obj
 0001:00030f90       ?WriteHStringArgList@CLTMessage_Save@@UAEXHPAPAD@Z 00431f90 f i game_serialize.obj
 0001:00030fa0       ?WriteStringAsHString@CLTMessage_Save@@UAEXPBD@Z 00431fa0 f i game_serialize.obj
 0001:00030fb0       ?WriteObject@CLTMessage_Save@@UAEXPAVLTObject@@@Z 00431fb0 f i game_serialize.obj
 0001:00031010       ?Seek@CLTMessage_Read@@UAEXH@Z 00432010 f i game_serialize.obj
 0001:00031020       ?Seek@CPacket_Read@@QAEXH@Z 00432020 f i game_serialize.obj
 0001:00031050       ?SeekTo@CLTMessage_Read@@UAEXI@Z 00432050 f i game_serialize.obj
 0001:00031050       ?SeekTo@CLTMessage_Load@@UAEXI@Z 00432050 f i game_serialize.obj
 0001:00031070       ??4CPacket_Read@@QAEAAV0@ABV0@@Z 00432070 f i game_serialize.obj
 0001:000310e0       ?PeekData@CPacket_Read@@QBEXPAXI@Z 004320e0 f i game_serialize.obj
 0001:00031180       ?SubMsg@CLTMessage_Read@@UBEPAVILTMessage_Read@@I@Z 00432180 f i game_serialize.obj
 0001:00031230       ?SubMsg@CLTMessage_Read@@UBEPAVILTMessage_Read@@II@Z 00432230 f i game_serialize.obj
 0001:000312e0       ?PeekBits@CLTMessage_Read@@UBEII@Z 004322e0 f i game_serialize.obj
 0001:000312f0       ?PeekBits@CPacket_Read@@QBEII@Z 004322f0 f i game_serialize.obj
 0001:00031390       ?PeekBits64@CLTMessage_Read@@UBE_KI@Z 00432390 f i game_serialize.obj
 0001:000313a0       ?PeekBits64@CPacket_Read@@QBE_KI@Z 004323a0 f i game_serialize.obj
 0001:00031440       ?PeekData@CLTMessage_Read@@UBEXPAXI@Z 00432440 f i game_serialize.obj
 0001:00031450       ?PeekString@CLTMessage_Read@@UBEIPADI@Z 00432450 f i game_serialize.obj
 0001:00031460       ?PeekString@CPacket_Read@@QBEIPADI@Z 00432460 f i game_serialize.obj
 0001:00031500       ?ReadCompPos@CLTMessage_Read_Server@@UAE?AU?$TVector3@M@@XZ 00432500 f i game_serialize.obj
 0001:00031520       ?ReadObject@CLTMessage_Read_Server@@UAEPAVLTObject@@XZ 00432520 f i game_serialize.obj
 0001:00031530       ?PeekCompPos@CLTMessage_Read_Server@@UBE?AU?$TVector3@M@@XZ 00432530 f i game_serialize.obj
 0001:00031550       ?PeekObject@CLTMessage_Read_Server@@UBEPAVLTObject@@XZ 00432550 f i game_serialize.obj
 0001:00031560       ?Allocate@CLTMessage_Read_Server@@MBEPAVILTMessage_Read@@ABVCPacket_Read@@@Z 00432560 f i game_serialize.obj
 0001:00031570       ?Read@CLTMessage_Write_Server@@UAEPAVILTMessage_Read@@XZ 00432570 f i game_serialize.obj
 0001:00031600       ?Release@SSBufStream@@UAEXXZ 00432600 f i streamsim.obj
 0001:00031600       ?Free@CLTMessage_Save@@UAEXXZ 00432600 f i game_serialize.obj
 0001:00031600       ?Release@SSFile@@UAEXXZ    00432600 f i streamsim.obj
 0001:00031600       ?Release@SSMemStream@@UAEXXZ 00432600 f i streamsim.obj
 0001:00031600       ?Free@CLTMessage_Load@@UAEXXZ 00432600 f i game_serialize.obj
 0001:00031600       ?Free@CTextureString@@EAEXXZ 00432600 f i texturestring.obj
 0001:00031610       ?ReadMessage@CLTMessage_Load@@UAEPAVILTMessage_Read@@XZ 00432610 f i game_serialize.obj
 0001:00031620       ?ReadHString@CLTMessage_Load@@UAEPAUHSTRING_t@@XZ 00432620 f i game_serialize.obj
 0001:00031630       ?ReadCompLTVector@CLTMessage_Load@@UAE?AU?$TVector3@M@@XZ 00432630 f i game_serialize.obj
 0001:00031670       ?ReadCompPos@CLTMessage_Load@@UAE?AU?$TVector3@M@@XZ 00432670 f i game_serialize.obj
 0001:000316b0       ?ReadCompLTRotation@CLTMessage_Load@@UAE?AULTRotation@@XZ 004326b0 f i game_serialize.obj
 0001:000316f0       ?ReadHStringAsString@CLTMessage_Load@@UAEIPADI@Z 004326f0 f i game_serialize.obj
 0001:00031700       ?ReadObject@CLTMessage_Load@@UAEPAVLTObject@@XZ 00432700 f i game_serialize.obj
 0001:00031770       ?ReadYRotation@CLTMessage_Load@@UAE?AULTRotation@@XZ 00432770 f i game_serialize.obj
 0001:000317b0       ?Seek@CLTMessage_Load@@UAEXH@Z 004327b0 f i game_serialize.obj
 0001:000317e0       ?Clone@CLTMessage_Load@@UBEPAVILTMessage_Read@@XZ 004327e0 f i game_serialize.obj
 0001:00031840       ?Read@CLTMessage_Save@@UAEPAVILTMessage_Read@@XZ 00432840 f i game_serialize.obj
 0001:00033010       ?sm_SaveObjects@@YAXPAVILTStream@@PAUObjectList@@II@Z 00434010 f   game_serialize.obj
 0001:00033320       ?sm_RestoreObjects@@YAIPAVILTStream@@II@Z 00434320 f   game_serialize.obj
 0001:00033670       ?ReadString@CGenLTStream@@UAEIPADI@Z 00434670 f   genltstream.obj
 0001:00033750       ?WriteStream@CGenLTStream@@UAEIAAVILTStream@@II@Z 00434750 f   genltstream.obj
 0001:00033820       ?WriteString@CGenLTStream@@UAEIPBD@Z 00434820 f   genltstream.obj
 0001:00033860       ?RotationToMatrix@@YAXPAULTRotation@@PAULTMatrix@@@Z 00434860 f   geomroutines.obj
 0001:00033870       ?gr_GetRotationVectors@@YAXPAULTRotation@@PAU?$TVector3@M@@11@Z 00434870 f   geomroutines.obj
 0001:00033880       ?Inverse@LTMatrix@@QAE_NXZ 00434880 f i geomroutines.obj
 0001:00033b20       ?SetupRot@LTMatrix@@QAEXABU?$TVector3@M@@M@Z 00434b20 f i geomroutines.obj
 0001:00033bf0       ?gr_SetupMatrixEuler@@YAXU?$TVector3@M@@QAY03M@Z 00434bf0 f   geomroutines.obj
 0001:00033cb0       ?gr_EulerToRotation@@YAXU?$TVector3@M@@PAULTRotation@@@Z 00434cb0 f   geomroutines.obj
 0001:00033d00       ?gr_EulerToRotation@@YAXMMMPAULTRotation@@@Z 00434d00 f   geomroutines.obj
 0001:00033d50       ?gr_GetEulerVectors@@YAXU?$TVector3@M@@AAU1@11@Z 00434d50 f   geomroutines.obj
 0001:00033dd0       ?Mat_InverseTransformation@@YAXPBULTMatrix@@PAU1@@Z 00434dd0 f i geomroutines.obj
 0001:00033e90       ?gr_SetupTransformation@@YAXPAU?$TVector3@M@@PAULTRotation@@0PAULTMatrix@@@Z 00434e90 f   geomroutines.obj
 0001:00033f50       ?gr_SetupWMTransform@@YAXPAU?$TVector3@M@@PBU1@PAULTRotation@@PAULTMatrix@@3@Z 00434f50 f   geomroutines.obj
 0001:00034130       ?ic_StartCounter@@YAXPAULTCounter@@@Z 00435130 f   impl_common.obj
 0001:00034140       ?ic_EndCounter@@YAIPAULTCounter@@@Z 00435140 f   impl_common.obj
 0001:00034150       ?ic_UpperStrcmp@@YA_NPBD0@Z 00435150 f   impl_common.obj
 0001:00034170       ?ic_GetAnimIndex@@YAIPAVLTObject@@PBD@Z 00435170 f   impl_common.obj
 0001:000341b0       ?ic_FreeString@@YAXPAUHSTRING_t@@@Z 004351b0 f   impl_common.obj
 0001:000341d0       ?ic_FreeFileList@@YAXPAUFileEntry@@@Z 004351d0 f   impl_common.obj
 0001:00034200       ?ic_Random@@YAMMM@Z        00435200 f   impl_common.obj
 0001:00034230       ??0?$CAPIHolder@VICompress@@@@QAE@PBDAAPAVICompress@@H@Z 00435230 f i impl_common.obj
 0001:000342a0       ??1?$CAPIHolder@VICompress@@@@UAE@XZ 004352a0 f i impl_common.obj
 0001:00034310       ??_E?$CAPIHolder@VICompress@@@@UAEPAXI@Z 00435310 f i impl_common.obj
 0001:00034310       ??_G?$CAPIHolder@VICompress@@@@UAEPAXI@Z 00435310 f i impl_common.obj
 0001:00034330       ?ci_IsPointInsideBSP@@YA_NPBVNode@@ABU?$TVector3@M@@@Z 00435330 f   impl_common.obj
 0001:00034390       ?ic_PointInsideWorldCB@@YAXPAVWorldTreeObj@@PAX@Z 00435390 f   impl_common.obj
 0001:000343f0       ?ic_GetFileList@@YAPAUFileEntry@@PAPAPAXHPBD@Z 004353f0 f   impl_common.obj
 0001:000345d0       ?ic_IsPointInsideWorld@@YA_NPAVWorldTree@@PBU?$TVector3@M@@@Z 004355d0 f   impl_common.obj
 0001:00034620       ?ic_GetAnimName@@YAPBDPAVLTObject@@I@Z 00435620 f   impl_common.obj
 0001:00034650       ??0TriggerObject@@QAE@XZ   00435650 f i input.obj
 0001:00034690       ??1CTriggerActionConsoleVar@@QAE@XZ 00435690 f i input.obj
 0001:00034ac0       ?input_IsInitted@@YA_NPAVInputMgr@@@Z 00435ac0 f   input.obj
 0001:00034ad0       ?input_ListDevices@@YAXPAVInputMgr@@@Z 00435ad0 f   input.obj
 0001:00034b10       ?input_EnableDevice@@YA_NPAVInputMgr@@PBD@Z 00435b10 f   input.obj
 0001:00034cd0       ?input_FlushInputBuffers@@YA_NPAVInputMgr@@@Z 00435cd0 f   input.obj
 0001:00034e70       ?input_GetManager@@YAIPAPAVInputMgr@@@Z 00435e70 f   input.obj
 0001:00034e80       ?RemoveAt@?$CGLinkedList@PAVCisSurface@@@@QAEXPAVCGLLNode@@@Z 00435e80 f i winclientde_impl.obj
 0001:00034e80       ?RemoveAt@?$CGLinkedList@PAVTriggerObject@@@@QAEXPAVCGLLNode@@@Z 00435e80 f i input.obj
 0001:00035270       ?input_ReadInput@@YAXPAVInputMgr@@PAEQAM@Z 00436270 f   input.obj
 0001:00035bd0       ?input_AddAction@@YAXPAVInputMgr@@PBDH@Z 00436bd0 f   input.obj
 0001:00035c60       ?input_ScaleTrigger@@YA_NPAVInputMgr@@PBD1MMMM@Z 00436c60 f   input.obj
 0001:00035e40       ?input_SaveBindings@@YAXPAU_iobuf@@@Z 00436e40 f   input.obj
 0001:000370f0       ??1?$CGLinkedList@PAVTriggerObject@@@@QAE@XZ 004380f0 f i input.obj
 0001:00037100       ?GenRemoveAt@?$CGLinkedList@PAVCisSurface@@@@UAEXVGenListPos@@@Z 00438100 f i winclientde_impl.obj
 0001:00037100       ?GenRemoveAt@?$CGLinkedList@PAVLatentPacket@@@@UAEXVGenListPos@@@Z 00438100 f i netmgr.obj
 0001:00037100       ?GenRemoveAt@?$CGLinkedList@PAVCConTextLine@@@@UAEXVGenListPos@@@Z 00438100 f i winconsole_impl.obj
 0001:00037100       ?GenRemoveAt@?$CGLinkedList@PAVTriggerObject@@@@UAEXVGenListPos@@@Z 00438100 f i input.obj
 0001:00037100       ?GenRemoveAt@?$CGLinkedList@PAVLTFont@@@@UAEXVGenListPos@@@Z 00438100 f i text_mgr.obj
 0001:00037140       ?GenCopyList@?$CGLinkedList@PAVLTFont@@@@UAEIABV?$GenList@PAVLTFont@@@@@Z 00438140 f i text_mgr.obj
 0001:00037140       ?GenCopyList@?$CGLinkedList@PAVTriggerObject@@@@UAEIABV?$GenList@PAVTriggerObject@@@@@Z 00438140 f i input.obj
 0001:00037140       ?GenCopyList@?$CGLinkedList@PAVCisSurface@@@@UAEIABV?$GenList@PAVCisSurface@@@@@Z 00438140 f i winclientde_impl.obj
 0001:00037140       ?GenCopyList@?$CGLinkedList@PAVLatentPacket@@@@UAEIABV?$GenList@PAVLatentPacket@@@@@Z 00438140 f i netmgr.obj
 0001:00037140       ?GenCopyList@?$CGLinkedList@PAVCConTextLine@@@@UAEIABV?$GenList@PAVCConTextLine@@@@@Z 00438140 f i winconsole_impl.obj
 0001:00037150       ??_GTriggerAction@@QAEPAXI@Z 00438150 f i input.obj
 0001:000371a0       ??0DeviceDef@@QAE@XZ       004381a0 f i input.obj
 0001:00037890       ?input_Init@@YA_NPAVInputMgr@@PAUConsoleState@@@Z 00438890 f   input.obj
 0001:000378e0       ?input_AddBinding@@YA_NPAVInputMgr@@PBD11MM@Z 004388e0 f   input.obj
 0001:00037ad0       ??1TriggerObject@@QAE@XZ   00438ad0 f i input.obj
 0001:00037b50       ?input_ClearBindings@@YA_NPAVInputMgr@@PBD1@Z 00438b50 f   input.obj
 0001:00037bd0       ?GenAppend@?$CGLinkedList@PAVTriggerObject@@@@UAEIAAPAVTriggerObject@@@Z 00438bd0 f i input.obj
 0001:00037bd0       ?GenAppend@?$CGLinkedList@PAVCisSurface@@@@UAEIAAPAVCisSurface@@@Z 00438bd0 f i winclientde_impl.obj
 0001:00037bd0       ?GenAppend@?$CGLinkedList@PAVLatentPacket@@@@UAEIAAPAVLatentPacket@@@Z 00438bd0 f i netmgr.obj
 0001:00037bd0       ?GenAppend@?$CGLinkedList@PAVCConTextLine@@@@UAEIAAPAVCConTextLine@@@Z 00438bd0 f i winconsole_impl.obj
 0001:00037bd0       ?GenAppend@?$CGLinkedList@PAVLTFont@@@@UAEIAAPAVLTFont@@@Z 00438bd0 f i text_mgr.obj
 0001:00037bf0       ?AddTail@?$CGLinkedList@PAVCConTextLine@@@@QAEPAVCGLLNode@@PAVCConTextLine@@@Z 00438bf0 f i winconsole_impl.obj
 0001:00037bf0       ?AddTail@?$CGLinkedList@PAVLTFont@@@@QAEPAVCGLLNode@@PAVLTFont@@@Z 00438bf0 f i text_mgr.obj
 0001:00037bf0       ?AddTail@?$CGLinkedList@PAVTriggerObject@@@@QAEPAVCGLLNode@@PAVTriggerObject@@@Z 00438bf0 f i input.obj
 0001:00037bf0       ?AddTail@?$CGLinkedList@PAVLatentPacket@@@@QAEPAVCGLLNode@@PAVLatentPacket@@@Z 00438bf0 f i netmgr.obj
 0001:00037bf0       ?AddTail@?$CGLinkedList@PAVCisSurface@@@@QAEPAVCGLLNode@@PAVCisSurface@@@Z 00438bf0 f i winclientde_impl.obj
 0001:00037c30       ??1DeviceDef@@QAE@XZ       00438c30 f i input.obj
 0001:00037cc0       ?input_Term@@YAXPAVInputMgr@@@Z 00438cc0 f   input.obj
 0001:00037da0       ?cis_LockSurface@@YAPAXPAVCisSurface@@AAJI@Z 00438da0 f i interface_helpers.obj
 0001:00037e40       ?cis_UnlockSurface@@YAXPAVCisSurface@@@Z 00438e40 f i interface_helpers.obj
 0001:00037e70       ?cis_ClipRectsScaled@@YAIHHHHHHHHHHHHPAVLTRect@@0@Z 00438e70 f   interface_helpers.obj
 0001:00037ff0       ?cis_ClipRectsNonScaled@@YAIHHHHHHHHHHPAVLTRect@@0@Z 00438ff0 f   interface_helpers.obj
 0001:000380d0       ?cis_GetWarpCoordinates@@YAXPAUWarpCoords@@0PAULTWarpPt@@HAAI2@Z 004390d0 f   interface_helpers.obj
 0001:00038230       ??$WarpPolyClip@VCLeftWarpTest@@VCLeftWarpClip@@@@YAIVCLeftWarpTest@@VCLeftWarpClip@@AAPAULTWarpPt@@AAH@Z 00439230 f i interface_helpers.obj
 0001:000383c0       ??$WarpPolyClip@VCTopWarpTest@@VCTopWarpClip@@@@YAIVCTopWarpTest@@VCTopWarpClip@@AAPAULTWarpPt@@AAH@Z 004393c0 f i interface_helpers.obj
 0001:00038550       ??$WarpPolyClip@VCRightWarpTest@@VCRightWarpClip@@@@YAIVCRightWarpTest@@VCRightWarpClip@@AAPAULTWarpPt@@AAH@Z 00439550 f i interface_helpers.obj
 0001:000386e0       ??$WarpPolyClip@VCBottomWarpTest@@VCBottomWarpClip@@@@YAIVCBottomWarpTest@@VCBottomWarpClip@@AAPAULTWarpPt@@AAH@Z 004396e0 f i interface_helpers.obj
 0001:00038870       ?cis_RectIntersection@@YAIPAVLTRect@@00@Z 00439870 f   interface_helpers.obj
 0001:000388d0       ?cis_Clip2dPoly@@YAIAAPAULTWarpPt@@AAHMMMM@Z 004398d0 f   interface_helpers.obj
 0001:000389a0       ??$cis_DrawWarp_T@VPixel16@@V?$DrawerCopy@VPixel16@@@@@@YAIPAVCisSurface@@0PAUWarpCoords@@1IIPAVPixel16@@PAV?$DrawerCopy@VPixel16@@@@@Z 004399a0 f i interface_helpers.obj
 0001:00038b90       ??$cis_DrawWarp_T@VPixel32@@V?$DrawerCopy@VPixel32@@@@@@YAIPAVCisSurface@@0PAUWarpCoords@@1IIPAVPixel32@@PAV?$DrawerCopy@VPixel32@@@@@Z 00439b90 f i interface_helpers.obj
 0001:00038d80       ??$cis_DrawWarp_T@VPixel16@@V?$DrawerTransparent@VPixel16@@@@@@YAIPAVCisSurface@@0PAUWarpCoords@@1IIPAVPixel16@@PAV?$DrawerTransparent@VPixel16@@@@@Z 00439d80 f i interface_helpers.obj
 0001:00038f80       ??$cis_DrawWarp_T@VPixel32@@V?$DrawerTransparent@VPixel32@@@@@@YAIPAVCisSurface@@0PAUWarpCoords@@1IIPAVPixel32@@PAV?$DrawerTransparent@VPixel32@@@@@Z 00439f80 f i interface_helpers.obj
 0001:00039180       ??$cis_DrawWarp_T@VPixel16@@V?$DrawerTransparentSolidColor@VPixel16@@@@@@YAIPAVCisSurface@@0PAUWarpCoords@@1IIPAVPixel16@@PAV?$DrawerTransparentSolidColor@VPixel16@@@@@Z 0043a180 f i interface_helpers.obj
 0001:00039380       ??$cis_DrawWarp_T@VPixel32@@V?$DrawerTransparentSolidColor@VPixel32@@@@@@YAIPAVCisSurface@@0PAUWarpCoords@@1IIPAVPixel32@@PAV?$DrawerTransparentSolidColor@VPixel32@@@@@Z 0043a380 f i interface_helpers.obj
 0001:00039580       ?cis_DrawWarp@@YAIPAVCisSurface@@0PAUWarpCoords@@1II@Z 0043a580 f   interface_helpers.obj
 0001:000395f0       ?cis_DrawWarpTransparent@@YAIPAVCisSurface@@0PAUWarpCoords@@1II@Z 0043a5f0 f   interface_helpers.obj
 0001:00039660       ?cis_DrawWarpSolidColor@@YAIPAVCisSurface@@0PAUWarpCoords@@1II@Z 0043a660 f   interface_helpers.obj
 0001:000396d0       ?DisconnectLinks@@YAXPAVLTObject@@PAXII@Z 0043a6d0 f   interlink.obj
 0001:000397d0       ?BreakInterLinks@@YAXPAVLTObject@@II@Z 0043a7d0 f   interlink.obj
 0001:000398c0       ?CreateInterLink@@YAIPAVLTObject@@PAXI@Z 0043a8c0 f   interlink.obj
 0001:000399c0       ?InsideConvex@@YAIPAVWorldPoly@@PAU?$TVector3@M@@@Z 0043a9c0 f i intersect_line.obj
 0001:00039b40       ?InternalIntersectLineNode@@YAIPBVNode@@PAVIntersectRequest@@U?$TVector3@M@@ABU3@@Z 0043ab40 f   intersect_line.obj
 0001:00039e90       ?IntersectLineNode@@YAIPBVNode@@PAVIntersectRequest@@@Z 0043ae90 f   intersect_line.obj
 0001:00039ec0       ?IntersectLine@@YAPBVNode@@PBV1@PAU?$TVector3@M@@11PAULTPlane@@@Z 0043aec0 f   intersect_line.obj
 0001:00039f50       ?InsideConvex@@YA_NPBVWorldPoly@@ABU?$TVector3@M@@@Z 0043af50 f i intersectsweptsphere.obj
 0001:0003a5f0       ?SweptSphereToBSP_R@@YA_NPBVNode@@ABU?$TVector3@M@@11M1MPAM@Z 0043b5f0 f   intersectsweptsphere.obj
 0001:0003a980       ?i_IntersectSweptSphere@@YA_NABU?$TVector3@M@@0MAAU1@1PAVWorldTree@@@Z 0043b980 f   intersectsweptsphere.obj
 0001:0003aca0       ??1CSAccess@@QAE@XZ        0043bca0 f i leech.obj
 0001:0003acb0       ??0?$ObjectBank@VLeech@@VLCriticalSection@@@@QAE@II@Z 0043bcb0 f i leech.obj
 0001:0003ad30       ?Term@?$ObjectBank@VLeech@@VLCriticalSection@@@@UAEXXZ 0043bd30 f i leech.obj
 0001:0003ad60       ??1?$ObjectBank@VLeech@@VLCriticalSection@@@@UAE@XZ 0043bd60 f i leech.obj
 0001:0003adc0       ??_E?$ObjectBank@VLeech@@VLCriticalSection@@@@UAEPAXI@Z 0043bdc0 f i leech.obj
 0001:0003adc0       ??_G?$ObjectBank@VLeech@@VLCriticalSection@@@@UAEPAXI@Z 0043bdc0 f i leech.obj
 0001:0003ade0       ?BaseLeechFn@@YAIPAVNexus@@PAVLeech@@HPAX@Z 0043bde0 f   leech.obj
 0001:0003ae30       ?FreeVoid@?$ObjectBank@VLeech@@VLCriticalSection@@@@UAEXPAX@Z 0043be30 f i leech.obj
 0001:0003ae60       ?Allocate@?$ObjectBank@VLeech@@VLCriticalSection@@@@QAEPAVLeech@@XZ 0043be60 f i leech.obj
 0001:0003aed0       ?AllocVoid@?$ObjectBank@VLeech@@VLCriticalSection@@@@UAEPAXXZ 0043bed0 f i leech.obj
 0001:0003aee0       ??1SLightGroup@CLightTable@@QAE@XZ 0043bee0 f i light_table.obj
 0001:0003aef0       ?Load_RLE_DeCompress@CLightTable@@AAE_NPAVILTStream@@PAEI@Z 0043bef0 f   light_table.obj
 0001:0003af70       ??G?$TVector3@H@@QBE?BU0@ABU0@@Z 0043bf70 f i light_table.obj
 0001:0003afa0       ??1_Node@?$_List_nod@USLightGroup@CLightTable@@V?$allocator@USLightGroup@CLightTable@@@std@@@std@@QAE@XZ 0043bfa0 f i light_table.obj
 0001:0003afb0       ?GetSample@SLightGroup@CLightTable@@QBE?AU?$TVector3@M@@HHH@Z 0043bfb0 f i light_table.obj
 0001:0003b000       ?InternalCopy@SLightGroup@CLightTable@@AAEXABU12@@Z 0043c000 f i light_table.obj
 0001:0003b080       ?Reset@CLightTable@@QAEXXZ 0043c080 f   light_table.obj
 0001:0003b0a0       ?Load@CLightTable@@QAE_NPAVILTStream@@@Z 0043c0a0 f   light_table.obj
 0001:0003b150       ?AddLightGroupSamples@CLightTable@@ABEXQAU?$TVector3@M@@ABU?$TVector3@H@@@Z 0043c150 f   light_table.obj
 0001:0003b430       ?_Incsize@?$list@USLightGroup@CLightTable@@V?$allocator@USLightGroup@CLightTable@@@std@@@std@@IAEXI@Z 0043c430 f i light_table.obj
 0001:0003b4d0       ?GetLightVal@CLightTable@@QBEXABU?$TVector3@M@@_NPAULTRGB@@@Z 0043c4d0 f   light_table.obj
 0001:0003bac0       ?_Buynode@?$list@USLightGroup@CLightTable@@V?$allocator@USLightGroup@CLightTable@@@std@@@std@@IAEPAU_Node@?$_List_nod@USLightGroup@CLightTable@@V?$allocator@USLightGroup@CLightTable@@@std@@@2@XZ 0043cac0 f i light_table.obj
 0001:0003bae0       ?_Buynode@?$list@USLightGroup@CLightTable@@V?$allocator@USLightGroup@CLightTable@@@std@@@std@@IAEPAU_Node@?$_List_nod@USLightGroup@CLightTable@@V?$allocator@USLightGroup@CLightTable@@@std@@@2@PAU342@0ABUSLightGroup@CLightTable@@@Z 0043cae0 f i light_table.obj
 0001:0003bb70       ?clear@?$list@USLightGroup@CLightTable@@V?$allocator@USLightGroup@CLightTable@@@std@@@std@@QAEXXZ 0043cb70 f i light_table.obj
 0001:0003bbb0       ?FreeAll@CLightTable@@QAEXXZ 0043cbb0 f   light_table.obj
 0001:0003bbf0       ??0CLightTable@@QAE@XZ     0043cbf0 f   light_table.obj
 0001:0003bc30       ??1CLightTable@@QAE@XZ     0043cc30 f   light_table.obj
 0001:0003bc90       ?LoadLightGroup@CLightTable@@QAE_NPAVILTStream@@IABU?$TVector3@M@@@Z 0043cc90 f   light_table.obj
 0001:0003be60       ?SetLightGroupColor@CLightTable@@QAEXIABU?$TVector3@M@@@Z 0043ce60 f   light_table.obj
 0001:0003bf30       ?DecompressLMData@@YA_NPAEI0@Z 0043cf30 f   lightmap_compress.obj
 0001:0003bfa0       ?linesystem_GetNextLine@@YAPAUHLTLINE_t@@PAVLTObject@@PAU1@@Z 0043cfa0 f   linesystem.obj
 0001:0003bff0       ?linesystem_CopyLTLineToLSLine@@YAXPAULTLine@@PAULSLine@@@Z 0043cff0 f i linesystem.obj
 0001:0003bff0       ?linesystem_CopyLSLineToLTLine@@YAXPAULSLine@@PAULTLine@@@Z 0043cff0 f i linesystem.obj
 0001:0003c050       ?linesystem_ExtendBounds@@YAXPAVLineSystem@@PAU?$TVector3@M@@@Z 0043d050 f i linesystem.obj
 0001:0003c130       ?linesystem_GetLineInfo@@YAXPAUHLTLINE_t@@PAULTLine@@@Z 0043d130 f   linesystem.obj
 0001:0003c150       ?linesystem_RemoveLine@@YAXPAVLTObject@@PAUHLTLINE_t@@@Z 0043d150 f   linesystem.obj
 0001:0003c190       ?linesystem_CalcExtents@@YAXPAVLineSystem@@@Z 0043d190 f i linesystem.obj
 0001:0003c240       ?linesystem_SetLineInfo@@YAXPAUHLTLINE_t@@PAULTLine@@@Z 0043d240 f   linesystem.obj
 0001:0003c290       ?linesystem_AddLine@@YAPAUHLTLINE_t@@PAVLTObject@@PAULTLine@@@Z 0043d290 f   linesystem.obj
 0001:0003c310       ?SetSize2@?$CMoArray@EVDefaultCache@@@@QAEIIPAVLAlloc@@_N@Z 0043d310 f i load_pcx.obj
 0001:0003c390       ?pcx_Create2@@YAIPAVILTStream@@PAVLoadedBitmap@@@Z 0043d390 f   load_pcx.obj
 0001:0003c760       ?GenFindElement@?$CMoArray@EVDefaultCache@@@@UBEIABEAAVGenListPos@@@Z 0043d760 f i load_pcx.obj
 0001:0003c790       ?GenGetNext@?$CMoArray@EVDefaultCache@@@@UBEEAAVGenListPos@@@Z 0043d790 f i load_pcx.obj
 0001:0003c7b0       ?GenGetAt@?$CMoArray@EVDefaultCache@@@@UBEEAAVGenListPos@@@Z 0043d7b0 f i load_pcx.obj
 0001:0003c7c0       ?GenRemoveAt@?$CMoArray@EVDefaultCache@@@@UAEXVGenListPos@@@Z 0043d7c0 f i load_pcx.obj
 0001:0003c7e0       ?Remove2@?$CMoArray@EVDefaultCache@@@@QAEXIPAVLAlloc@@@Z 0043d7e0 f i load_pcx.obj
 0001:0003c8c0       ?GenCopyList@?$CMoArray@EVDefaultCache@@@@UAEIABV?$GenList@E@@@Z 0043d8c0 f i load_pcx.obj
 0001:0003c9a0       ?GenAppendList@?$CMoArray@EVDefaultCache@@@@UAEIABV?$GenList@E@@@Z 0043d9a0 f i load_pcx.obj
 0001:0003ca80       ?InternalNiceSetSize@?$CMoArray@EVDefaultCache@@@@AAEIIIPAVLAlloc@@@Z 0043da80 f i load_pcx.obj
 0001:0003cb60       ??1LoadedBitmap@@QAE@XZ    0043db60 f i load_pcx.obj
 0001:0003cba0       ?GenAppend@?$CMoArray@EVDefaultCache@@@@UAEIAAE@Z 0043dba0 f i load_pcx.obj
 0001:0003cbc0       ?Insert2@?$CMoArray@EVDefaultCache@@@@QAEIIABEPAVLAlloc@@@Z 0043dbc0 f i load_pcx.obj
 0001:0003ccc0       ??0LoadedBitmap@@QAE@XZ    0043dcc0 f   load_pcx.obj
 0001:0003cd00       ??1CBaseDriver@@UAE@XZ     0043dd00 f i localdriver.obj
 0001:0003cd10       ?GetLocalIpAddress@CBaseDriver@@UAE_NPADIAAG@Z 0043dd10 f i localdriver.obj
 0001:0003cd20       ?SendTcpIp@CBaseDriver@@UAEIABVCPacket_Read@@PBDI@Z 0043dd20 f i localdriver.obj
 0001:0003cd20       ?StartPing@CBaseDriver@@UAEIPBDGPAI@Z 0043dd20 f i localdriver.obj
 0001:0003cd20       ?GetPingStatus@CBaseDriver@@UAEIIPAI0@Z 0043dd20 f i localdriver.obj
 0001:0003cd20       ?ShouldDrawSampleNow@CBaseRenderer@@UAEJPAUIMediaSample@@PA_J1@Z 0043dd20 f i Lib_DShow:renbase.obj
 0001:0003cd30       ??_GCBaseDriver@@UAEPAXI@Z 0043dd30 f i localdriver.obj
 0001:0003cd30       ??_ECBaseDriver@@UAEPAXI@Z 0043dd30 f i localdriver.obj
 0001:0003cd50       ??0CLocalDriver@@QAE@XZ    0043dd50 f   localdriver.obj
 0001:0003cd80       ?FlushWaitingQueue@CLocalDriver@@AAEXXZ 0043dd80 f   localdriver.obj
 0001:0003cdc0       ?Update@CLocalDriver@@UAEXXZ 0043ddc0 f   localdriver.obj
 0001:0003ce20       ?LocalConnect@CLocalDriver@@UAEXPAVCBaseDriver@@@Z 0043de20 f   localdriver.obj
 0001:0003ce40       ?Disconnect@CLocalDriver@@UAEXPAVCBaseConn@@W4EDisconnectReason@@@Z 0043de40 f   localdriver.obj
 0001:0003ce90       ?SendPacket@CLocalDriver@@UAE_NABVCPacket_Read@@PAVCBaseConn@@_N@Z 0043de90 f   localdriver.obj
 0001:0003cec0       ?ConnectToMe@CLocalDriver@@UAEXPAV1@@Z 0043dec0 f   localdriver.obj
 0001:0003ced0       ?DisconnectFromMe@CLocalDriver@@UAEXXZ 0043ded0 f   localdriver.obj
 0001:0003cee0       ?DoConnection@CLocalDriver@@UAEXPAV1@@Z 0043dee0 f   localdriver.obj
 0001:0003cf50       ?Init@CLocalDriver@@UAE_NXZ 0043df50 f   localdriver.obj
 0001:0003cf80       ?EmptyTrash@CLocalDriver@@AAEXXZ 0043df80 f   localdriver.obj
 0001:0003cfc0       ?Term@CLocalDriver@@UAEXXZ 0043dfc0 f   localdriver.obj
 0001:0003d010       ??0CPacket_Read@@QAE@XZ    0043e010 f i localdriver.obj
 0001:0003d090       ?Clear@CPacket_Read@@QAEXXZ 0043e090 f i localdriver.obj
 0001:0003d100       ??1CLocalDriver@@UAE@XZ    0043e100 f   localdriver.obj
 0001:0003d190       ?GetPacket@CLocalDriver@@UAE_NPAVCPacket_Read@@PAPAVCBaseConn@@@Z 0043e190 f   localdriver.obj
 0001:0003d1f0       ?RecvPacket@CLocalDriver@@UAEXABVCPacket_Read@@@Z 0043e1f0 f   localdriver.obj
 0001:0003d2b0       ??_GCLocalDriver@@UAEPAXI@Z 0043e2b0 f i localdriver.obj
 0001:0003d2b0       ??_ECLocalDriver@@UAEPAXI@Z 0043e2b0 f i localdriver.obj
 0001:0003d2d0       ?Clear@CLTBenchmarkMgr@@QAEIXZ 0043e2d0 f   ltbenchmark_impl.obj
 0001:0003d2d0       ?Term@CLTBenchmarkMgr@@UAEIXZ 0043e2d0 f   ltbenchmark_impl.obj
 0001:0003d2d0       ?ClearGraphicsBenchmarkingInfo@CLTBenchmarkMgr@@UAEIXZ 0043e2d0 f   ltbenchmark_impl.obj
 0001:0003d2d0       ?Init@CLTBenchmarkMgr@@UAEIXZ 0043e2d0 f   ltbenchmark_impl.obj
 0001:0003d320       ?DoCPUBenchmarking@CLTBenchmarkMgr@@UAEIPAULTBenchCPUTest_t@@PAULTBenchCPUResult_t@@M_N@Z 0043e320 f   ltbenchmark_impl.obj
 0001:0003d530       ?StartGraphicsBenchmarking@CLTBenchmarkMgr@@UAEIM@Z 0043e530 f   ltbenchmark_impl.obj
 0001:0003d5b0       ?StopGraphicsBenchmarking@CLTBenchmarkMgr@@UAEIPAULTBenchGraphicsInfo_t@@@Z 0043e5b0 f   ltbenchmark_impl.obj
 0001:0003d5e0       ?IsGraphicsBenchmarking@CLTBenchmarkMgr@@UAEIPA_N@Z 0043e5e0 f   ltbenchmark_impl.obj
 0001:0003d600       ?GetGraphicsBenchmarkingInfo@CLTBenchmarkMgr@@UAEIPAULTBenchGraphicsInfo_t@@@Z 0043e600 f   ltbenchmark_impl.obj
 0001:0003d630       ?GraphicsBenchmarkingUpdate@CLTBenchmarkMgr@@QAEIXZ 0043e630 f   ltbenchmark_impl.obj
 0001:0003d7f0       ?GraphicsBenchmarkingUpdate@@YAXXZ 0043e7f0 f   ltbenchmark_impl.obj
 0001:0003d800       ?_InterfaceImplementation@CLTBenchmarkMgr@@UAEPBDXZ 0043e800 f i ltbenchmark_impl.obj
 0001:0003d810       ??0CWinSync_CSAuto@@QAE@ABVCWinSync_CS@@@Z 0043e810 f i ltdirectmusic_impl.obj
 0001:0003d810       ??0CAutoLock@@QAE@PAVCCritSec@@@Z 0043e810 f i Lib_DShow:renbase.obj
 0001:0003d830       ??1CWinSync_PulseEvent@@QAE@XZ 0043e830 f i ltdirectmusic_impl.obj
 0001:0003d830       ??1CWinSync_Event@@QAE@XZ  0043e830 f i ltdirectmusic_impl.obj
 0001:0003d840       ??0CCommandItem@CLTDirectMusicMgr@@QAE@XZ 0043e840 f i ltdirectmusic_impl.obj
 0001:0003d850       ??0CSegment@CLTDirectMusicMgr@@QAE@XZ 0043e850 f i ltdirectmusic_impl.obj
 0001:0003d870       ??1CStyle@CLTDirectMusicMgr@@QAE@XZ 0043e870 f i ltdirectmusic_impl.obj
 0001:0003d870       ??1CSegment@CLTDirectMusicMgr@@QAE@XZ 0043e870 f i ltdirectmusic_impl.obj
 0001:0003d880       ??0CStyle@CLTDirectMusicMgr@@QAE@XZ 0043e880 f i ltdirectmusic_impl.obj
 0001:0003d890       ?SetSegment@CPauseState@CLTDirectMusicMgr@@QAEXPAUIDirectMusicSegment@@@Z 0043e890 f i ltdirectmusic_impl.obj
 0001:0003d8b0       ?Clear@CPauseState@CLTDirectMusicMgr@@QAEXXZ 0043e8b0 f i ltdirectmusic_impl.obj
 0001:0003d8d0       ?LTDMConOutError@@YAXPADZZ 0043e8d0 f   ltdirectmusic_impl.obj
 0001:0003d970       ?LTDMConOutWarning@@YAXPADZZ 0043e970 f   ltdirectmusic_impl.obj
 0001:0003da10       ?LTDMConOutMsg@@YAXHPADZZ  0043ea10 f   ltdirectmusic_impl.obj
 0001:0003dab0       ??0CFrameQueue@CUDPConn@@QAE@XZ 0043eab0 f i udpdriver.obj
 0001:0003dab0       ??0CSegmentList@CLTDirectMusicMgr@@QAE@XZ 0043eab0 f i ltdirectmusic_impl.obj
 0001:0003dab0       ??0CBaseHash@@QAE@XZ       0043eab0 f i Lib_Lith:basehash.obj
 0001:0003dab0       ??0CPacketQueue@CUDPConn@@QAE@XZ 0043eab0 f i udpdriver.obj
 0001:0003dab0       ??0ChildInfo@@QAE@XZ       0043eab0 f i model.obj
 0001:0003dac0       ??1CControlFileMgrDStream@@QAE@XZ 0043eac0 f i ltdirectmusic_impl.obj
 0001:0003dad0       ??0CIntensity@CLTDirectMusicMgr@@QAE@XZ 0043ead0 f i ltdirectmusic_impl.obj
 0001:0003dae0       ?Play@CLTDirectMusicMgr@@UAEIXZ 0043eae0 f   ltdirectmusic_impl.obj
 0001:0003db30       ?UnPause@CLTDirectMusicMgr@@UAEIXZ 0043eb30 f   ltdirectmusic_impl.obj
 0001:0003dbd0       ?SetVolume@CLTDirectMusicMgr@@UAEIJ@Z 0043ebd0 f   ltdirectmusic_impl.obj
 0001:0003dc50       ?PlayMotif@CLTDirectMusicMgr@@UAEIPBD0W4LTDMEnactTypes@@@Z 0043ec50 f   ltdirectmusic_impl.obj
 0001:0003dc70       ?StopMotif@CLTDirectMusicMgr@@UAEIPBD0W4LTDMEnactTypes@@@Z 0043ec70 f   ltdirectmusic_impl.obj
 0001:0003dc90       ?InitPerformance@CLTDirectMusicMgr@@AAE_NXZ 0043ec90 f   ltdirectmusic_impl.obj
 0001:0003ddc0       ?SetWorkingDirectory@CLTDirectMusicMgr@@QAEXPBDW4LTDMFileTypes@@@Z 0043edc0 f   ltdirectmusic_impl.obj
 0001:0003dfc0       ?SetSegmentName@CSegment@CLTDirectMusicMgr@@QAE_NPBD@Z 0043efc0 f   ltdirectmusic_impl.obj
 0001:0003e050       ?Find@CStyleList@CLTDirectMusicMgr@@QAEPAVCStyle@2@PBD@Z 0043f050 f   ltdirectmusic_impl.obj
 0001:0003e050       ?Find@CSegmentList@CLTDirectMusicMgr@@QAEPAVCSegment@2@PBD@Z 0043f050 f   ltdirectmusic_impl.obj
 0001:0003e0b0       ?Find@CSegmentStateList@CLTDirectMusicMgr@@QAEPAVCSegmentState@2@PBD@Z 0043f0b0 f   ltdirectmusic_impl.obj
 0001:0003e110       ?Find@CSegmentStateList@CLTDirectMusicMgr@@QAEPAVCSegmentState@2@PBUIDirectMusicSegmentState8@@@Z 0043f110 f   ltdirectmusic_impl.obj
 0001:0003e130       ?SetStyleName@CStyle@CLTDirectMusicMgr@@QAE_NPBD@Z 0043f130 f   ltdirectmusic_impl.obj
 0001:0003e1c0       ?GetTransition@CLTDirectMusicMgr@@AAEPAVCTransition@1@HH@Z 0043f1c0 f   ltdirectmusic_impl.obj
 0001:0003e220       ?EnactTypeToFlags@CLTDirectMusicMgr@@QAEIW4LTDMEnactTypes@@@Z 0043f220 f   ltdirectmusic_impl.obj
 0001:0003e290       ?EnableReverb@CLTDirectMusicMgr@@AAE_NXZ 0043f290 f   ltdirectmusic_impl.obj
 0001:0003e310       ?DisableReverb@CLTDirectMusicMgr@@AAE_NXZ 0043f310 f   ltdirectmusic_impl.obj
 0001:0003e380       ?InitReverb@CLTDirectMusicMgr@@AAE_NAAVCControlFileMgr@@@Z 0043f380 f   ltdirectmusic_impl.obj
 0001:0003e470       ?EnactTypeToString@CLTDirectMusicMgr@@UAEXW4LTDMEnactTypes@@PAD@Z 0043f470 f   ltdirectmusic_impl.obj
 0001:0003e580       ?StringToEnactType@CLTDirectMusicMgr@@UAE?AW4LTDMEnactTypes@@PBD@Z 0043f580 f   ltdirectmusic_impl.obj
 0001:0003e6d0       ?GetCurIntensity@CLTDirectMusicMgr@@UAEHXZ 0043f6d0 f   ltdirectmusic_impl.obj
 0001:0003e6e0       ?GetSelection@CUIList_Impl@@UAEHXZ 0043f6e0 f   Lib_UI:cuidropdownlist_impl.obj
 0001:0003e6e0       ?GetNumIntensities@CLTDirectMusicMgr@@UAEHXZ 0043f6e0 f   ltdirectmusic_impl.obj
 0001:0003e6f0       ?GetInitialIntensity@CLTDirectMusicMgr@@UAEHXZ 0043f6f0 f   ltdirectmusic_impl.obj
 0001:0003e700       ?GetItemCount@CUIList_Impl@@UAEIXZ 0043f700 f   Lib_UI:cuidropdownlist_impl.obj
 0001:0003e700       ?GetInitialVolume@CLTDirectMusicMgr@@UAEHXZ 0043f700 f   ltdirectmusic_impl.obj
 0001:0003e710       ?GetVolumeOffset@CLTDirectMusicMgr@@UAEHXZ 0043f710 f   ltdirectmusic_impl.obj
 0001:0003e720       ??1CWinSync_CS@@QAE@XZ     0043f720 f i ltdirectmusic_impl.obj
 0001:0003e720       ??1CCritSec@@QAE@XZ        0043f720 f i Lib_DShow:renbase.obj
 0001:0003e730       ?Pause@CLTDirectMusicMgr@@UAEIW4LTDMEnactTypes@@@Z 0043f730 f   ltdirectmusic_impl.obj
 0001:0003e890       ?InitDirectMusic@CLTDirectMusicMgr@@AAE_NXZ 0043f890 f   ltdirectmusic_impl.obj
 0001:0003e9a0       ?TermDirectMusic@CLTDirectMusicMgr@@AAEXXZ 0043f9a0 f   ltdirectmusic_impl.obj
 0001:0003ea30       ??0?$CLithChunkAllocator@VCBand@CLTDirectMusicMgr@@@@QAE@XZ 0043fa30 f i ltdirectmusic_impl.obj
 0001:0003ea30       ??0?$CLithChunkAllocator@VCDLSBank@CLTDirectMusicMgr@@@@QAE@XZ 0043fa30 f i ltdirectmusic_impl.obj
 0001:0003ea30       ??0?$CLithChunkAllocator@VCSegmentState@CLTDirectMusicMgr@@@@QAE@XZ 0043fa30 f i ltdirectmusic_impl.obj
 0001:0003ea30       ??0?$CLithChunkAllocator@VCCommandItem@CLTDirectMusicMgr@@@@QAE@XZ 0043fa30 f i ltdirectmusic_impl.obj
 0001:0003ea30       ??0?$CLithChunkAllocator@VCSegment@CLTDirectMusicMgr@@@@QAE@XZ 0043fa30 f i ltdirectmusic_impl.obj
 0001:0003ea30       ??0?$CLithChunkAllocator@VCStyle@CLTDirectMusicMgr@@@@QAE@XZ 0043fa30 f i ltdirectmusic_impl.obj
 0001:0003ea40       ?FreeAllChunks@?$CLithChunkAllocator@VCDLSBank@CLTDirectMusicMgr@@@@QAEXXZ 0043fa40 f i ltdirectmusic_impl.obj
 0001:0003ea40       ?FreeAllChunks@?$CLithChunkAllocator@VCCommandItem@CLTDirectMusicMgr@@@@QAEXXZ 0043fa40 f i ltdirectmusic_impl.obj
 0001:0003ea40       ?FreeAllChunks@?$CLithChunkAllocator@VCBand@CLTDirectMusicMgr@@@@QAEXXZ 0043fa40 f i ltdirectmusic_impl.obj
 0001:0003eaa0       ??0CLTDirectMusicMgr@@QAE@XZ 0043faa0 f   ltdirectmusic_impl.obj
 0001:0003ec00       ?_InterfaceImplementation@CLTDirectMusicMgr@@UAEPBDXZ 0043fc00 f i ltdirectmusic_impl.obj
 0001:0003ec10       ??1CIntensity@CLTDirectMusicMgr@@QAE@XZ 0043fc10 f   ltdirectmusic_impl.obj
 0001:0003ec70       ?ClearCommands@CLTDirectMusicMgr@@AAEXXZ 0043fc70 f   ltdirectmusic_impl.obj
 0001:0003ece0       ?CleanupSegment@CSegmentList@CLTDirectMusicMgr@@QAEXPAV2@PAVCSegment@2@W4LTDMEnactTypes@@_N@Z 0043fce0 f   ltdirectmusic_impl.obj
 0001:0003ed90       ?AllocChunk@?$CLithChunkAllocator@VCCommandItem@CLTDirectMusicMgr@@@@AAEHXZ 0043fd90 f i ltdirectmusic_impl.obj
 0001:0003ee60       ?AllocChunk@?$CLithChunkAllocator@VCSegment@CLTDirectMusicMgr@@@@AAEHXZ 0043fe60 f i ltdirectmusic_impl.obj
 0001:0003ef40       ?AllocChunk@?$CLithChunkAllocator@VCSegmentState@CLTDirectMusicMgr@@@@AAEHXZ 0043ff40 f i ltdirectmusic_impl.obj
 0001:0003f020       ?AllocChunk@?$CLithChunkAllocator@VCBand@CLTDirectMusicMgr@@@@AAEHXZ 00440020 f i ltdirectmusic_impl.obj
 0001:0003f0a0       ?AllocChunk@?$CLithChunkAllocator@VCStyle@CLTDirectMusicMgr@@@@AAEHXZ 004400a0 f i ltdirectmusic_impl.obj
 0001:0003f180       ?AllocChunk@?$CLithChunkAllocator@VCDLSBank@CLTDirectMusicMgr@@@@AAEHXZ 00440180 f i ltdirectmusic_impl.obj
 0001:0003f210       ?CleanupSegments@CSegmentList@CLTDirectMusicMgr@@QAEXPAV2@_N@Z 00440210 f   ltdirectmusic_impl.obj
 0001:0003f240       ?CleanupSegmentState@CSegmentStateList@CLTDirectMusicMgr@@QAEXPAV2@PAVCSegmentState@2@W4LTDMEnactTypes@@_N@Z 00440240 f   ltdirectmusic_impl.obj
 0001:0003f2c0       ??1?$CLithChunkAllocator@VCDLSBank@CLTDirectMusicMgr@@@@QAE@XZ 004402c0 f i ltdirectmusic_impl.obj
 0001:0003f2c0       ??1?$CLithChunkAllocator@VCBand@CLTDirectMusicMgr@@@@QAE@XZ 004402c0 f i ltdirectmusic_impl.obj
 0001:0003f2c0       ??1?$CLithChunkAllocator@VCCommandItem@CLTDirectMusicMgr@@@@QAE@XZ 004402c0 f i ltdirectmusic_impl.obj
 0001:0003f2e0       ?FreeAllChunks@?$CLithChunkAllocator@VCSegment@CLTDirectMusicMgr@@@@QAEXXZ 004402e0 f i ltdirectmusic_impl.obj
 0001:0003f360       ?FreeAllChunks@?$CLithChunkAllocator@VCSegmentState@CLTDirectMusicMgr@@@@QAEXXZ 00440360 f i ltdirectmusic_impl.obj
 0001:0003f3e0       ?FreeAllChunks@?$CLithChunkAllocator@VCStyle@CLTDirectMusicMgr@@@@QAEXXZ 004403e0 f i ltdirectmusic_impl.obj
 0001:0003f460       ??2CCommandItem@CLTDirectMusicMgr@@SAPAXI@Z 00440460 f i ltdirectmusic_impl.obj
 0001:0003f4a0       ??2CSegment@CLTDirectMusicMgr@@SAPAXI@Z 004404a0 f i ltdirectmusic_impl.obj
 0001:0003f4e0       ?HandleSegmentNotification_SegEnd@CLTDirectMusicMgr@@AAEXPAU_DMUS_NOTIFICATION_PMSG@@PAUIDirectMusicSegmentState8@@PAUIDirectMusicSegment@@@Z 004404e0 f   ltdirectmusic_impl.obj
 0001:0003f5c0       ?StopSecondary@CLTDirectMusicMgr@@UAEIPBDW4LTDMEnactTypes@@@Z 004405c0 f   ltdirectmusic_impl.obj
 0001:0003f700       ?StopMotif@CLTDirectMusicMgr@@UAEIPBDW4LTDMEnactTypes@@@Z 00440700 f   ltdirectmusic_impl.obj
 0001:0003f840       ?LoadSegment@CLTDirectMusicMgr@@AAE_NPBD@Z 00440840 f   ltdirectmusic_impl.obj
 0001:0003f9b0       ?LoadDLSBank@CLTDirectMusicMgr@@AAE_NPBD@Z 004409b0 f   ltdirectmusic_impl.obj
 0001:0003fa60       ?LoadBand@CLTDirectMusicMgr@@AAE_NPAUIDirectMusicStyle8@@PBD@Z 00440a60 f   ltdirectmusic_impl.obj
 0001:0003fbe0       ?ReadDLSBanks@CLTDirectMusicMgr@@AAE_NAAVCControlFileMgr@@@Z 00440be0 f   ltdirectmusic_impl.obj
 0001:0003fc30       ?ReadIntensities@CLTDirectMusicMgr@@AAE_NAAVCControlFileMgr@@@Z 00440c30 f   ltdirectmusic_impl.obj
 0001:0003fdc0       ?ReadSecondarySegments@CLTDirectMusicMgr@@AAE_NAAVCControlFileMgr@@@Z 00440dc0 f   ltdirectmusic_impl.obj
 0001:0003fe40       ?ReadMotifs@CLTDirectMusicMgr@@AAE_NAAVCControlFileMgr@@@Z 00440e40 f   ltdirectmusic_impl.obj
 0001:0003ff70       ?ReadTransitions@CLTDirectMusicMgr@@AAE_NAAVCControlFileMgr@@@Z 00440f70 f   ltdirectmusic_impl.obj
 0001:00040100       ?CreateSegmentState@CSegmentStateList@CLTDirectMusicMgr@@QAEXPAUIDirectMusicSegmentState8@@PAVCSegment@2@@Z 00441100 f   ltdirectmusic_impl.obj
 0001:00040170       ?CleanupSegmentStates@CSegmentStateList@CLTDirectMusicMgr@@QAEXPAV2@_N@Z 00441170 f   ltdirectmusic_impl.obj
 0001:000401f0       ?HandleSegmentNotification_SegAlmostEnd@CLTDirectMusicMgr@@AAEXPAU_DMUS_NOTIFICATION_PMSG@@PAUIDirectMusicSegmentState8@@PAUIDirectMusicSegment@@@Z 004411f0 f   ltdirectmusic_impl.obj
 0001:00040480       ?HandleSegmentNotification@CLTDirectMusicMgr@@AAEXPAU_DMUS_NOTIFICATION_PMSG@@@Z 00441480 f   ltdirectmusic_impl.obj
 0001:00040530       ?CommandThread@CLTDirectMusicMgr@@AAEIXZ 00441530 f   ltdirectmusic_impl.obj
 0001:00040610       ?Term@CLTDirectMusicMgr@@UAEIXZ 00441610 f   ltdirectmusic_impl.obj
 0001:00040740       ?TermLevel@CLTDirectMusicMgr@@UAEIXZ 00441740 f   ltdirectmusic_impl.obj
 0001:00040950       ?Stop@CLTDirectMusicMgr@@UAEIW4LTDMEnactTypes@@@Z 00441950 f   ltdirectmusic_impl.obj
 0001:00040ad0       ?ChangeIntensity@CLTDirectMusicMgr@@UAEIHW4LTDMEnactTypes@@@Z 00441ad0 f   ltdirectmusic_impl.obj
 0001:00040e00       ?PlaySecondary@CLTDirectMusicMgr@@UAEIPBDW4LTDMEnactTypes@@@Z 00441e00 f   ltdirectmusic_impl.obj
 0001:00040f50       ?PlayMotif@CLTDirectMusicMgr@@UAEIPBDW4LTDMEnactTypes@@@Z 00441f50 f   ltdirectmusic_impl.obj
 0001:000410e0       ?LoadStyleAndBands@CLTDirectMusicMgr@@AAE_NPADAAVCControlFileMgr@@@Z 004420e0 f   ltdirectmusic_impl.obj
 0001:000412d0       ?ReadStylesAndBands@CLTDirectMusicMgr@@AAE_NAAVCControlFileMgr@@@Z 004422d0 f   ltdirectmusic_impl.obj
 0001:00041320       ??1?$CLithChunkAllocator@VCSegment@CLTDirectMusicMgr@@@@QAE@XZ 00442320 f i ltdirectmusic_impl.obj
 0001:00041340       ??1?$CLithChunkAllocator@VCSegmentState@CLTDirectMusicMgr@@@@QAE@XZ 00442340 f i ltdirectmusic_impl.obj
 0001:00041360       ??1?$CLithChunkAllocator@VCStyle@CLTDirectMusicMgr@@@@QAE@XZ 00442360 f i ltdirectmusic_impl.obj
 0001:00041380       ?CommandThread_Bootstrap@CLTDirectMusicMgr@@CGKPAX@Z 00442380 f   ltdirectmusic_impl.obj
 0001:00041390       ??1CLTDirectMusicMgr@@QAE@XZ 00442390 f   ltdirectmusic_impl.obj
 0001:00041420       ?Init@CLTDirectMusicMgr@@UAEIXZ 00442420 f   ltdirectmusic_impl.obj
 0001:000415b0       ?InitLevel@CLTDirectMusicMgr@@UAEIPBD0000@Z 004425b0 f   ltdirectmusic_impl.obj
 0001:00041b30       ?FileOpen@CControlFileMgrDStream@@UAEHPBD@Z 00442b30 f   ltdirectmusiccontrolfile.obj
 0001:00041c10       ?FileClose@CControlFileMgrDStream@@UAEXXZ 00442c10 f   ltdirectmusiccontrolfile.obj
 0001:00041c20       ?FileGetChar@CControlFileMgrDStream@@UAEHXZ 00442c20 f   ltdirectmusiccontrolfile.obj
 0001:00041c50       ?FileEOF@CControlFileMgrDStream@@UAEHXZ 00442c50 f   ltdirectmusiccontrolfile.obj
 0001:00041c70       ?Find@CLoadDirByClassList@@QAEPAVCLoadDirByClassItem@@ABU_GUID@@H@Z 00442c70 f   ltdirectmusicloader.obj
 0001:00041d30       ?AddItem@CLoadDirByClassList@@QAEXABU_GUID@@PBG@Z 00442d30 f   ltdirectmusicloader.obj
 0001:00041de0       ?RemoveAllItems@CLoadDirByClassList@@QAEXXZ 00442de0 f   ltdirectmusicloader.obj
 0001:00041e30       ?DeleteItem@CFileStreamList@@QAEXPAVCLTDMFileStream@@@Z 00442e30 f   ltdirectmusicloader.obj
 0001:00041e90       ?RemoveAllItems@CFileStreamList@@QAEXXZ 00442e90 f   ltdirectmusicloader.obj
 0001:00041ed0       ?QueryInterface@CLTDMFileStream@@UAGJABU_GUID@@PAPAX@Z 00442ed0 f   ltdirectmusicloader.obj
 0001:00041ed0       ?QueryInterface@CLTDMMemStream@@UAGJABU_GUID@@PAPAX@Z 00442ed0 f   ltdirectmusicloader.obj
 0001:00041f70       ?GetLoader@CLTDMFileStream@@UAGJPAPAUIDirectMusicLoader@@@Z 00442f70 f   ltdirectmusicloader.obj
 0001:00041fb0       ?AddRef@CLTDMFileStream@@UAGKXZ 00442fb0 f   ltdirectmusicloader.obj
 0001:00041ff0       ?Read@CLTDMFileStream@@UAGJPAXKPAK@Z 00442ff0 f   ltdirectmusicloader.obj
 0001:00042070       ?Write@CLTDMFileStream@@UAGJPBXKPAK@Z 00443070 f   ltdirectmusicloader.obj
 0001:00042080       ?Seek@CLTDMFileStream@@UAGJT_LARGE_INTEGER@@KPAT_ULARGE_INTEGER@@@Z 00443080 f   ltdirectmusicloader.obj
 0001:000421a0       ?GetLoader@CLTDMMemStream@@UAGJPAPAUIDirectMusicLoader@@@Z 004431a0 f   ltdirectmusicloader.obj
 0001:000421e0       ?AddRef@CLTDMMemStream@@UAGKXZ 004431e0 f   ltdirectmusicloader.obj
 0001:00042210       ?Read@CLTDMMemStream@@UAGJPAXKPAK@Z 00443210 f   ltdirectmusicloader.obj
 0001:000422a0       ?Seek@CLTDMMemStream@@UAGJT_LARGE_INTEGER@@KPAT_ULARGE_INTEGER@@@Z 004432a0 f   ltdirectmusicloader.obj
 0001:00042320       ?Revert@CLTDMMemStream@@UAGJXZ 00443320 f   ltdirectmusicloader.obj
 0001:00042320       ?Revert@CLTDMFileStream@@UAGJXZ 00443320 f   ltdirectmusicloader.obj
 0001:00042330       ?LockRegion@CLTDMMemStream@@UAGJT_ULARGE_INTEGER@@0K@Z 00443330 f   ltdirectmusicloader.obj
 0001:00042330       ?CopyTo@CLTDMFileStream@@UAGJPAUIStream@@T_ULARGE_INTEGER@@PAT3@2@Z 00443330 f   ltdirectmusicloader.obj
 0001:00042330       ?LockRegion@CLTDMFileStream@@UAGJT_ULARGE_INTEGER@@0K@Z 00443330 f   ltdirectmusicloader.obj
 0001:00042330       ?UnlockRegion@CLTDMFileStream@@UAGJT_ULARGE_INTEGER@@0K@Z 00443330 f   ltdirectmusicloader.obj
 0001:00042330       ?UnlockRegion@CLTDMMemStream@@UAGJT_ULARGE_INTEGER@@0K@Z 00443330 f   ltdirectmusicloader.obj
 0001:00042330       ?CopyTo@CLTDMMemStream@@UAGJPAUIStream@@T_ULARGE_INTEGER@@PAT3@2@Z 00443330 f   ltdirectmusicloader.obj
 0001:00042340       ?Init@CLTDMLoader@@QAEJXZ  00443340 f   ltdirectmusicloader.obj
 0001:00042380       ?ClearObjectList@CLTDMLoader@@QAEXXZ 00443380 f   ltdirectmusicloader.obj
 0001:000423c0       ?QueryInterface@CLTDMLoader@@UAGJABU_GUID@@PAPAX@Z 004433c0 f   ltdirectmusicloader.obj
 0001:00042420       ?AddRef@CLTDMLoader@@UAGKXZ 00443420 f   ltdirectmusicloader.obj
 0001:00042440       ?SetObject@CLTDMLoader@@UAGJPAU_DMUS_OBJECTDESC@@@Z 00443440 f   ltdirectmusicloader.obj
 0001:00042460       ?SetSearchDirectory@CLTDMLoader@@UAGJABU_GUID@@PAGH@Z 00443460 f   ltdirectmusicloader.obj
 0001:000424f0       ?SetSearchDirectory@CLTDMLoader@@QAGJABU_GUID@@PBDH@Z 004434f0 f   ltdirectmusicloader.obj
 0001:00042570       ?QueryInternalConnections@CBasePin@@UAGJPAPAUIPin@@PAK@Z 00443570 f   Lib_DShow:renbase.obj
 0001:00042570       ?SetSize@CLTDMMemStream@@UAGJT_ULARGE_INTEGER@@@Z 00443570 f   ltdirectmusicloader.obj
 0001:00042570       ?SetSize@CLTDMFileStream@@UAGJT_ULARGE_INTEGER@@@Z 00443570 f   ltdirectmusicloader.obj
 0001:00042570       ?Stat@CLTDMFileStream@@UAGJPAUtagSTATSTG@@K@Z 00443570 f   ltdirectmusicloader.obj
 0001:00042570       ?EnableCache@CLTDMLoader@@UAGJABU_GUID@@H@Z 00443570 f   ltdirectmusicloader.obj
 0001:00042570       ?Stat@CLTDMMemStream@@UAGJPAUtagSTATSTG@@K@Z 00443570 f   ltdirectmusicloader.obj
 0001:00042580       ?Write@CLTDMMemStream@@UAGJPBXKPAK@Z 00443580 f   ltdirectmusicloader.obj
 0001:00042580       ?EnumObject@CLTDMLoader@@UAGJABU_GUID@@KPAU_DMUS_OBJECTDESC@@@Z 00443580 f   ltdirectmusicloader.obj
 0001:00042580       ?ScanDirectory@CLTDMLoader@@UAGJABU_GUID@@PAG1@Z 00443580 f   ltdirectmusicloader.obj
 0001:00042590       ?ReleaseObject@CLTDMLoader@@UAGJPAUIDirectMusicObject@@@Z 00443590 f   ltdirectmusicloader.obj
 0001:00042590       ?ReleaseObjectByUnknown@CLTDMLoader@@UAGJPAUIUnknown@@@Z 00443590 f   ltdirectmusicloader.obj
 0001:00042590       ?Commit@CLTDMFileStream@@UAGJK@Z 00443590 f   ltdirectmusicloader.obj
 0001:00042590       ?Clone@CLTDMMemStream@@UAGJPAPAUIStream@@@Z 00443590 f   ltdirectmusicloader.obj
 0001:00042590       ?GetAllocatorRequirements@CBaseInputPin@@UAGJPAU_AllocatorProperties@@@Z 00443590 f   Lib_DShow:amfilter.obj
 0001:00042590       ?ClearCache@CLTDMLoader@@UAGJABU_GUID@@@Z 00443590 f   ltdirectmusicloader.obj
 0001:00042590       ?QueryVendorInfo@CBaseFilter@@UAGJPAPAG@Z 00443590 f   Lib_DShow:amfilter.obj
 0001:00042590       ?CacheObject@CLTDMLoader@@UAGJPAUIDirectMusicObject@@@Z 00443590 f   ltdirectmusicloader.obj
 0001:00042590       ?Commit@CLTDMMemStream@@UAGJK@Z 00443590 f   ltdirectmusicloader.obj
 0001:000425a0       ?LoadObjectFromFile@CLTDMLoader@@UAGJABU_GUID@@0PAGPAPAX@Z 004435a0 f   ltdirectmusicloader.obj
 0001:000425b0       ??0CDStreamOpenQueueMgr@@QAE@XZ 004435b0 f i ltdirectmusicloader.obj
 0001:000425d0       ??1CDStreamOpenQueueMgr@@QAE@XZ 004435d0 f i ltdirectmusicloader.obj
 0001:000425e0       ??1CLoadDirByClassList@@QAE@XZ 004435e0 f i ltdirectmusicloader.obj
 0001:00042600       ??1CFileStreamList@@QAE@XZ 00443600 f i ltdirectmusicloader.obj
 0001:00042620       ?Open@CLTDMFileStream@@QAEJPAGK@Z 00443620 f   ltdirectmusicloader.obj
 0001:000426f0       ?Open@CLTDMMemStream@@QAEJPAE_J@Z 004436f0 f   ltdirectmusicloader.obj
 0001:00042750       ??0CLTDMMemStream@@QAE@PAVCLTDMLoader@@@Z 00443750 f   ltdirectmusicloader.obj
 0001:000427a0       ?QueryInterface@CLTDMFileStream@@W3AGJABU_GUID@@PAPAX@Z 004437a0 f i ltdirectmusicloader.obj
 0001:000427a0       ?QueryInterface@CLTDMMemStream@@W3AGJABU_GUID@@PAPAX@Z 004437a0 f i ltdirectmusicloader.obj
 0001:000427b0       ?AddRef@CLTDMMemStream@@W3AGKXZ 004437b0 f i ltdirectmusicloader.obj
 0001:000427c0       ??0CLTDMLoader@@QAE@XZ     004437c0 f   ltdirectmusicloader.obj
 0001:00042870       ??1CLTDMLoader@@QAE@XZ     00443870 f   ltdirectmusicloader.obj
 0001:000428e0       ?LoadFromMemory@CLTDMLoader@@AAEJPAU_DMUS_OBJECTDESC@@PAPAUIDirectMusicObject@@@Z 004438e0 f   ltdirectmusicloader.obj
 0001:000429b0       ??0CLTDMFileStream@@QAE@PAVCLTDMLoader@@@Z 004439b0 f   ltdirectmusicloader.obj
 0001:00042a20       ?AddRef@CLTDMFileStream@@W3AGKXZ 00443a20 f i ltdirectmusicloader.obj
 0001:00042a30       ??1CLTDMFileStream@@QAE@XZ 00443a30 f   ltdirectmusicloader.obj
 0001:00042aa0       ?Clone@CLTDMFileStream@@UAGJPAPAUIStream@@@Z 00443aa0 f   ltdirectmusicloader.obj
 0001:00042bc0       ??1CLTDMMemStream@@QAE@XZ  00443bc0 f   ltdirectmusicloader.obj
 0001:00042c20       ?Release@CLTDMLoader@@UAGKXZ 00443c20 f   ltdirectmusicloader.obj
 0001:00042c80       ?LoadFromFile@CLTDMLoader@@AAEJPAU_DMUS_OBJECTDESC@@PAPAUIDirectMusicObject@@@Z 00443c80 f   ltdirectmusicloader.obj
 0001:00042e30       ?Release@CLTDMFileStream@@UAGKXZ 00443e30 f   ltdirectmusicloader.obj
 0001:00042e90       ?Release@CLTDMMemStream@@UAGKXZ 00443e90 f   ltdirectmusicloader.obj
 0001:00042ee0       ?GetObjectA@CLTDMLoader@@UAGJPAU_DMUS_OBJECTDESC@@ABU_GUID@@PAPAX@Z 00443ee0 f   ltdirectmusicloader.obj
 0001:00043050       ?Release@CLTDMMemStream@@W3AGKXZ 00444050 f i ltdirectmusicloader.obj
 0001:00043060       ?Release@CLTDMFileStream@@W3AGKXZ 00444060 f i ltdirectmusicloader.obj
 0001:00043070       ??0?$CAPIHolder@VIErrorPrint@@@@QAE@PBDAAPAVIErrorPrint@@H@Z 00444070 f i lterror.obj
 0001:000430e0       ??1?$CAPIHolder@VIErrorPrint@@@@UAE@XZ 004440e0 f i lterror.obj
 0001:00043150       ??0?$CAPIHolder@VIErrorFilter@@@@QAE@PBDAAPAVIErrorFilter@@H@Z 00444150 f i lterror.obj
 0001:000431c0       ??1?$CAPIHolder@VIErrorFilter@@@@UAE@XZ 004441c0 f i lterror.obj
 0001:00043230       ??0?$CAPIHolder@VICallStack@@@@QAE@PBDAAPAVICallStack@@H@Z 00444230 f i lterror.obj
 0001:000432a0       ??1?$CAPIHolder@VICallStack@@@@UAE@XZ 004442a0 f i lterror.obj
 0001:00043310       ??_G?$CAPIHolder@VIErrorPrint@@@@UAEPAXI@Z 00444310 f i lterror.obj
 0001:00043310       ??_E?$CAPIHolder@VIErrorPrint@@@@UAEPAXI@Z 00444310 f i lterror.obj
 0001:00043330       ??_G?$CAPIHolder@VIErrorFilter@@@@UAEPAXI@Z 00444330 f i lterror.obj
 0001:00043330       ??_E?$CAPIHolder@VIErrorFilter@@@@UAEPAXI@Z 00444330 f i lterror.obj
 0001:00043350       ??_G?$CAPIHolder@VICallStack@@@@UAEPAXI@Z 00444350 f i lterror.obj
 0001:00043350       ??_E?$CAPIHolder@VICallStack@@@@UAEPAXI@Z 00444350 f i lterror.obj
 0001:00043370       ?Enter@LCriticalSection@@QAEXXZ 00444370 f   lthread.obj
 0001:00043380       ?Leave@LCriticalSection@@QAEXXZ 00444380 f   lthread.obj
 0001:00043390       ??0?$ObjectBank@VLThreadMessage@@VNullCS@@@@QAE@XZ 00444390 f i lthread.obj
 0001:000433e0       ??1?$ObjectBank@VLThreadMessage@@VNullCS@@@@UAE@XZ 004443e0 f i lthread.obj
 0001:00043430       ?Allocate@?$ObjectBank@VLThreadMessage@@VNullCS@@@@QAEPAVLThreadMessage@@XZ 00444430 f i lthread.obj
 0001:00043470       ?Term@?$ObjectBank@VLThreadMessage@@VNullCS@@@@UAEXXZ 00444470 f i lthread.obj
 0001:00043470       ?Term@?$ObjectBank@UFileIdentifier@@VNullCS@@@@UAEXXZ 00444470 f i client_filemgr.obj
 0001:00043490       ??_E?$ObjectBank@VLThreadMessage@@VNullCS@@@@UAEPAXI@Z 00444490 f i lthread.obj
 0001:00043490       ??_G?$ObjectBank@VLThreadMessage@@VNullCS@@@@UAEPAXI@Z 00444490 f i lthread.obj
 0001:000434b0       ?AllocVoid@?$ObjectBank@VLThreadMessage@@VNullCS@@@@UAEPAXXZ 004444b0 f i lthread.obj
 0001:000434c0       ?in_GetVersionInfoExt@@YAIPAULTVersionInfoExt_t@@@Z 004444c0 f   ltinfo_impl.obj
 0001:000435a0       ?in_GetPerformanceInfo@@YAIPAULTPerformanceInfo_t@@@Z 004445a0 f   ltinfo_impl.obj
 0001:000436a0       ?OpenLibrary@LTLibraryLoader@@SAPAXPBD@Z 004446a0 f   ltlibraryloader.obj
 0001:000436b0       ?CloseLibrary@LTLibraryLoader@@SAXQAX@Z 004446b0 f   ltlibraryloader.obj
 0001:000436c0       ?IsLibraryLoaded@LTLibraryLoader@@SA_NPBD@Z 004446c0 f   ltlibraryloader.obj
 0001:000436e0       ?GetMainHandle@LTLibraryLoader@@SAPAXXZ 004446e0 f   ltlibraryloader.obj
 0001:000436f0       ?GetProcAddress@LTLibraryLoader@@SAPAXPAXPBD@Z 004446f0 f   ltlibraryloader.obj
 0001:00043710       ?SetAllocInfo@CLTMemory@@UAEXPBDII@Z 00444710 f i ltmemory.obj
 0001:00043720       ?Allocate@CLTMemory@@UAEPAXI@Z 00444720 f i ltmemory.obj
 0001:00043730       ?Free@CLTMemory@@UAEXPAX@Z 00444730 f i ltmemory.obj
 0001:00043740       _LTGetILTMemory            00444740 f   ltmemory.obj
 0001:00043770       ?WriteMessage@CLTMessage_Write@@UAEXPBVILTMessage_Read@@@Z 00444770 f   ltmessage.obj
 0001:000437a0       ?WriteMessageRaw@CLTMessage_Write@@UAEXPBVILTMessage_Read@@@Z 004447a0 f   ltmessage.obj
 0001:000437c0       ?WriteHString@CLTMessage_Write@@UAEXPAUHSTRING_t@@@Z 004447c0 f   ltmessage.obj
 0001:00043820       ?WriteCompLTVector@CLTMessage_Write@@SAXAAVCPacket_Write@@ABU?$TVector3@M@@@Z 00444820 f   ltmessage.obj
 0001:00043890       ?WriteCompLTRotation@CLTMessage_Write@@SAXAAVCPacket_Write@@ABULTRotation@@@Z 00444890 f   ltmessage.obj
 0001:00043920       ?WriteHStringFormatted@CLTMessage_Write@@UAAXHZZ 00444920 f   ltmessage.obj
 0001:00043940       ?WriteHStringArgList@CLTMessage_Write@@UAEXHPAPAD@Z 00444940 f   ltmessage.obj
 0001:000439b0       ?WriteStringAsHString@CLTMessage_Write@@UAEXPBD@Z 004449b0 f   ltmessage.obj
 0001:00043a10       ?WriteObject@CLTMessage_Write@@SAXAAVCPacket_Write@@PAVLTObject@@@Z 00444a10 f   ltmessage.obj
 0001:00043a40       ?ReadHString@CLTMessage_Read@@UAEPAUHSTRING_t@@XZ 00444a40 f   ltmessage.obj
 0001:00043ab0       ?ReadCompLTRotation@CLTMessage_Read@@SA?AULTRotation@@AAVCPacket_Read@@@Z 00444ab0 f   ltmessage.obj
 0001:00043b70       ??0LTRotation@@QAE@MMM@Z   00444b70 f i ltmessage.obj
 0001:00043c70       ?ReadCompLTVector@CLTMessage_Read@@SA?AU?$TVector3@M@@AAVCPacket_Read@@@Z 00444c70 f   ltmessage.obj
 0001:00043cf0       ?ReadYRotation@CLTMessage_Read@@SA?AULTRotation@@AAVCPacket_Read@@@Z 00444cf0 f   ltmessage.obj
 0001:00043d30       ?WriteYRotation@CLTMessage_Write@@SAXAAVCPacket_Write@@ABULTRotation@@@Z 00444d30 f   ltmessage.obj
 0001:00043d90       ?ReadHStringAsString@CLTMessage_Read@@UAEIPADI@Z 00444d90 f   ltmessage.obj
 0001:00043e20       ??0CPacket_Read@@QAE@ABV0@II@Z 00444e20 f i ltmessage.obj
 0001:00043e60       ?Peekuint16@CPacket_Read@@QBEGXZ 00444e60 f i ltmessage.obj
 0001:00043ef0       ?Peekint8@CPacket_Read@@QBEDXZ 00444ef0 f i ltmessage.obj
 0001:00043f80       ?ReadMessage@CLTMessage_Read@@UAEPAVILTMessage_Read@@XZ 00444f80 f   ltmessage.obj
 0001:00044060       ?PeekMessageA@CLTMessage_Read@@UBEPAVILTMessage_Read@@XZ 00445060 f   ltmessage.obj
 0001:00044120       ?PeekHString@CLTMessage_Read@@UBEPAUHSTRING_t@@XZ 00445120 f   ltmessage.obj
 0001:00044200       ?PeekCompLTVector@CLTMessage_Read@@SA?AU?$TVector3@M@@ABVCPacket_Read@@@Z 00445200 f   ltmessage.obj
 0001:00044300       ?PeekCompLTRotation@CLTMessage_Read@@SA?AULTRotation@@ABVCPacket_Read@@@Z 00445300 f   ltmessage.obj
 0001:00044460       ?PeekHStringAsString@CLTMessage_Read@@UBEIPADI@Z 00445460 f   ltmessage.obj
 0001:00044540       ?PeekYRotation@CLTMessage_Read@@SA?AULTRotation@@ABVCPacket_Read@@@Z 00445540 f   ltmessage.obj
 0001:00044580       ?WriteCompPos@CLTMessage_Write_Client@@SAXAAVCPacket_Write@@ABU?$TVector3@M@@@Z 00445580 f   ltmessage_client.obj
 0001:000445d0       ?FormatHString@CLTMessage_Write_Client@@MAEPAEHPAPADPAI@Z 004455d0 f   ltmessage_client.obj
 0001:00044600       ??1?$ObjectBank@VCLTMessage_Write_Client@@VNullCS@@@@UAE@XZ 00445600 f i ltmessage_client.obj
 0001:00044650       ??1?$ObjectBank@VCLTMessage_Read_Client@@VNullCS@@@@UAE@XZ 00445650 f i ltmessage_client.obj
 0001:000446a0       ?Term@?$ObjectBank@VCLTMessage_Read_Server@@VNullCS@@@@UAEXXZ 004456a0 f i ltmessage_server.obj
 0001:000446a0       ?Term@?$ObjectBank@VCLTMessage_Read_Client@@VNullCS@@@@UAEXXZ 004456a0 f i ltmessage_client.obj
 0001:000446c0       ??_E?$ObjectBank@VCLTMessage_Write_Client@@VNullCS@@@@UAEPAXI@Z 004456c0 f i ltmessage_client.obj
 0001:000446c0       ??_G?$ObjectBank@VCLTMessage_Write_Client@@VNullCS@@@@UAEPAXI@Z 004456c0 f i ltmessage_client.obj
 0001:000446e0       ??_G?$ObjectBank@VCLTMessage_Read_Client@@VNullCS@@@@UAEPAXI@Z 004456e0 f i ltmessage_client.obj
 0001:000446e0       ??_E?$ObjectBank@VCLTMessage_Read_Client@@VNullCS@@@@UAEPAXI@Z 004456e0 f i ltmessage_client.obj
 0001:00044700       ?WriteCompPos@CLTMessage_Write_Client@@UAEXABU?$TVector3@M@@@Z 00445700 f i ltmessage_client.obj
 0001:00044720       ??_ECLTMessage_Write_Client@@UAEPAXI@Z 00445720 f i ltmessage_client.obj
 0001:00044720       ??_GCLTMessage_Save@@UAEPAXI@Z 00445720 f i game_serialize.obj
 0001:00044720       ??_ECLTMessage_Write_Server@@UAEPAXI@Z 00445720 f i game_serialize.obj
 0001:00044720       ??_GCLTMessage_Write_Client@@UAEPAXI@Z 00445720 f i ltmessage_client.obj
 0001:00044720       ??_GCLTMessage_Write_Server@@UAEPAXI@Z 00445720 f i game_serialize.obj
 0001:00044720       ??_ECLTMessage_Save@@UAEPAXI@Z 00445720 f i game_serialize.obj
 0001:00044740       ?Free@CLTMessage_Write_Client@@UAEXXZ 00445740 f   ltmessage_client.obj
 0001:00044760       ?Free@CLTMessage_Read_Client@@UAEXXZ 00445760 f   ltmessage_client.obj
 0001:00044780       ?ReadCompPos@CLTMessage_Read_Client@@SA?AU?$TVector3@M@@AAVCPacket_Read@@@Z 00445780 f   ltmessage_client.obj
 0001:000447f0       ??0?$ObjectBank@VCLTMessage_Write_Client@@VNullCS@@@@QAE@XZ 004457f0 f i ltmessage_client.obj
 0001:00044840       ?Allocate@?$ObjectBank@VCLTMessage_Write_Client@@VNullCS@@@@QAEPAVCLTMessage_Write_Client@@XZ 00445840 f i ltmessage_client.obj
 0001:00044890       ??0?$ObjectBank@VCLTMessage_Read_Client@@VNullCS@@@@QAE@XZ 00445890 f i ltmessage_client.obj
 0001:000448e0       ?Allocate_Client@CLTMessage_Write_Client@@SAPAV1@XZ 004458e0 f   ltmessage_client.obj
 0001:000448f0       ?AllocVoid@?$ObjectBank@VCLTMessage_Write_Client@@VNullCS@@@@UAEPAXXZ 004458f0 f i ltmessage_client.obj
 0001:00044900       ?ReadObject@CLTMessage_Read_Client@@UAEPAVLTObject@@XZ 00445900 f i ltmessage_client.obj
 0001:00044930       ?ReadCompPos@CLTMessage_Read_Client@@UAE?AU?$TVector3@M@@XZ 00445930 f i ltmessage_client.obj
 0001:00044950       ??_ECLTMessage_Read_Client@@UAEPAXI@Z 00445950 f i ltmessage_client.obj
 0001:00044950       ??_GCLTMessage_Load@@UAEPAXI@Z 00445950 f i game_serialize.obj
 0001:00044950       ??_ECLTMessage_Load@@UAEPAXI@Z 00445950 f i game_serialize.obj
 0001:00044950       ??_GCLTMessage_Read_Server@@UAEPAXI@Z 00445950 f i game_serialize.obj
 0001:00044950       ??_ECLTMessage_Read_Server@@UAEPAXI@Z 00445950 f i game_serialize.obj
 0001:00044950       ??_GCLTMessage_Read_Client@@UAEPAXI@Z 00445950 f i ltmessage_client.obj
 0001:00044970       ??0CLTMessage_Read_Client@@QAE@XZ 00445970 f i ltmessage_client.obj
 0001:000449c0       ?PeekCompPos@CLTMessage_Read_Client@@SA?AU?$TVector3@M@@ABVCPacket_Read@@@Z 004459c0 f   ltmessage_client.obj
 0001:00044ac0       ?Allocate@?$ObjectBank@VCLTMessage_Read_Client@@VNullCS@@@@QAEPAVCLTMessage_Read_Client@@XZ 00445ac0 f i ltmessage_client.obj
 0001:00044b40       ?PeekCompPos@CLTMessage_Read_Client@@UBE?AU?$TVector3@M@@XZ 00445b40 f i ltmessage_client.obj
 0001:00044b60       ?PeekObject@CLTMessage_Read_Client@@UBEPAVLTObject@@XZ 00445b60 f i ltmessage_client.obj
 0001:00044b90       ?Allocate_Client@CLTMessage_Read_Client@@SAPAV1@ABVCPacket_Read@@@Z 00445b90 f   ltmessage_client.obj
 0001:00044be0       ?AllocVoid@?$ObjectBank@VCLTMessage_Read_Client@@VNullCS@@@@UAEPAXXZ 00445be0 f i ltmessage_client.obj
 0001:00044bf0       ?Allocate@CLTMessage_Read_Client@@MBEPAVILTMessage_Read@@ABVCPacket_Read@@@Z 00445bf0 f i ltmessage_client.obj
 0001:00044c00       ?Read@CLTMessage_Write_Client@@UAEPAVILTMessage_Read@@XZ 00445c00 f i ltmessage_client.obj
 0001:00044c90       ?WriteCompPos@CLTMessage_Write_Server@@SAXAAVCPacket_Write@@ABU?$TVector3@M@@@Z 00445c90 f   ltmessage_server.obj
 0001:00044ce0       ?FormatHString@CLTMessage_Write_Server@@MAEPAEHPAPADPAI@Z 00445ce0 f   ltmessage_server.obj
 0001:00044d10       ??1?$ObjectBank@VCLTMessage_Write_Server@@VNullCS@@@@UAE@XZ 00445d10 f i ltmessage_server.obj
 0001:00044d60       ?Term@?$ObjectBank@VCLTMessage_Write_Server@@VNullCS@@@@UAEXXZ 00445d60 f i ltmessage_server.obj
 0001:00044d60       ?Term@?$ObjectBank@VCLTMessage_Write_Client@@VNullCS@@@@UAEXXZ 00445d60 f i ltmessage_client.obj
 0001:00044d80       ??1?$ObjectBank@VCLTMessage_Read_Server@@VNullCS@@@@UAE@XZ 00445d80 f i ltmessage_server.obj
 0001:00044dd0       ??_E?$ObjectBank@VCLTMessage_Write_Server@@VNullCS@@@@UAEPAXI@Z 00445dd0 f i ltmessage_server.obj
 0001:00044dd0       ??_G?$ObjectBank@VCLTMessage_Write_Server@@VNullCS@@@@UAEPAXI@Z 00445dd0 f i ltmessage_server.obj
 0001:00044df0       ??_G?$ObjectBank@VCLTMessage_Read_Server@@VNullCS@@@@UAEPAXI@Z 00445df0 f i ltmessage_server.obj
 0001:00044df0       ??_E?$ObjectBank@VCLTMessage_Read_Server@@VNullCS@@@@UAEPAXI@Z 00445df0 f i ltmessage_server.obj
 0001:00044e10       ?Free@CLTMessage_Write_Server@@UAEXXZ 00445e10 f   ltmessage_server.obj
 0001:00044e30       ?Free@CLTMessage_Read_Server@@UAEXXZ 00445e30 f   ltmessage_server.obj
 0001:00044e50       ?ReadCompPos@CLTMessage_Read_Server@@SA?AU?$TVector3@M@@AAVCPacket_Read@@@Z 00445e50 f   ltmessage_server.obj
 0001:00044ec0       ??0?$ObjectBank@VCLTMessage_Write_Server@@VNullCS@@@@QAE@XZ 00445ec0 f i ltmessage_server.obj
 0001:00044f10       ?Allocate@?$ObjectBank@VCLTMessage_Write_Server@@VNullCS@@@@QAEPAVCLTMessage_Write_Server@@XZ 00445f10 f i ltmessage_server.obj
 0001:00044f60       ??0?$ObjectBank@VCLTMessage_Read_Server@@VNullCS@@@@QAE@XZ 00445f60 f i ltmessage_server.obj
 0001:00044fb0       ?Allocate_Server@CLTMessage_Write_Server@@SAPAV1@XZ 00445fb0 f   ltmessage_server.obj
 0001:00044fc0       ?ReadObject@CLTMessage_Read_Server@@SAPAVLTObject@@AAVCPacket_Read@@@Z 00445fc0 f   ltmessage_server.obj
 0001:00045000       ?AllocVoid@?$ObjectBank@VCLTMessage_Write_Server@@VNullCS@@@@UAEPAXXZ 00446000 f i ltmessage_server.obj
 0001:00045010       ??0CLTMessage_Read_Server@@QAE@XZ 00446010 f i ltmessage_server.obj
 0001:00045060       ?PeekCompPos@CLTMessage_Read_Server@@SA?AU?$TVector3@M@@ABVCPacket_Read@@@Z 00446060 f   ltmessage_server.obj
 0001:00045160       ?PeekObject@CLTMessage_Read_Server@@SAPAVLTObject@@ABVCPacket_Read@@@Z 00446160 f   ltmessage_server.obj
 0001:000451a0       ?Allocate@?$ObjectBank@VCLTMessage_Read_Server@@VNullCS@@@@QAEPAVCLTMessage_Read_Server@@XZ 004461a0 f i ltmessage_server.obj
 0001:00045220       ?Allocate_Server@CLTMessage_Read_Server@@SAPAV1@ABVCPacket_Read@@@Z 00446220 f   ltmessage_server.obj
 0001:00045270       ?AllocVoid@?$ObjectBank@VCLTMessage_Read_Server@@VNullCS@@@@UAEPAXXZ 00446270 f i ltmessage_server.obj
 0001:00045280       ?LTStrCpyCreate@?A0xc8dc574a@@YAPADPBD@Z 00446280 f i ltmodule.obj
 0001:000452c0       ?VersionError@CInterfaceDatabase@@AAEXPBD@Z 004462c0 f   ltmodule.obj
 0001:00045300       ?SortedArrayCompareIBase@@YA?AW4RELATION@@PAVIBase@@0@Z 00446300 f   ltmodule.obj
 0001:00045360       ?SortedArrayFindNameMgr@@YA?AW4RELATION@@PBDPAVCInterfaceNameMgr@@@Z 00446360 f   ltmodule.obj
 0001:000453c0       ?SortedArrayCompareNameMgr@@YA?AW4RELATION@@PAVCInterfaceNameMgr@@0@Z 004463c0 f   ltmodule.obj
 0001:00045420       ?remove@?$database_array@VCInterfaceNameMgr@@PBD@@QAE_NPAVCInterfaceNameMgr@@@Z 00446420 f i ltmodule.obj
 0001:00045420       ?remove@?$database_array@VIBase@@PBD@@QAE_NPAVIBase@@@Z 00446420 f i ltmodule.obj
 0001:00045420       ?remove_shift@?$database_list@VCInterfaceChooser@@@@QAE_NPAVCInterfaceChooser@@@Z 00446420 f i ltmodule.obj
 0001:00045470       ?remove@?$database_list@VCAPIHolderBase@@@@QAE_NPAVCAPIHolderBase@@@Z 00446470 f i ltmodule.obj
 0001:000454c0       ?index@?$database_array@VCInterfaceNameMgr@@PBD@@IAEHPBDP6A?AW4RELATION@@0PAVCInterfaceNameMgr@@@Z@Z 004464c0 f i ltmodule.obj
 0001:00045550       ?lengthen@?$database_array@VIBase@@PBD@@IAEXXZ 00446550 f i ltmodule.obj
 0001:00045550       ?lengthen@?$database_list@VCAPIHolderBase@@@@IAEXXZ 00446550 f i ltmodule.obj
 0001:00045550       ?lengthen@?$database_list@VCInterfaceChooser@@@@IAEXXZ 00446550 f i ltmodule.obj
 0001:00045550       ?lengthen@?$database_array@VCInterfaceNameMgr@@PBD@@IAEXXZ 00446550 f i ltmodule.obj
 0001:000455a0       ?IsEmpty@CInterfaceDatabase@@EAE_NXZ 004465a0 f   ltmodule.obj
 0001:000455b0       ??0CInterfaceNameMgr@@QAE@PBDH@Z 004465b0 f   ltmodule.obj
 0001:000456c0       ?Run@CInterfaceNameMgr@@QAE?AW4EChooserRun@@PAVCInterfaceChooser@@@Z 004466c0 f   ltmodule.obj
 0001:00045720       ?ConnectHolders@CInterfaceNameMgr@@IAEXPAVIBase@@@Z 00446720 f   ltmodule.obj
 0001:00045770       ?DisconnectHolders@CInterfaceNameMgr@@IAEXXZ 00446770 f   ltmodule.obj
 0001:000457b0       ?insert@?$database_array@VCInterfaceNameMgr@@PBD@@IAEXPAVCInterfaceNameMgr@@I@Z 004467b0 f i ltmodule.obj
 0001:000457b0       ?insert@?$database_array@VIBase@@PBD@@IAEXPAVIBase@@I@Z 004467b0 f i ltmodule.obj
 0001:00045800       ?Remove@CInterfaceDatabase@@EAEXPAVCAPIHolderBase@@@Z 00446800 f   ltmodule.obj
 0001:00045870       ?Remove@CInterfaceDatabase@@EAEXPAVCInterfaceChooser@@@Z 00446870 f   ltmodule.obj
 0001:000458e0       ?Run@CInterfaceDatabase@@EAE?AW4EChooserRun@@PAVCInterfaceChooser@@@Z 004468e0 f   ltmodule.obj
 0001:00045940       ??1CInterfaceNameMgr@@UAE@XZ 00446940 f   ltmodule.obj
 0001:000459e0       ?Add@CInterfaceNameMgr@@QAEXPAVCAPIHolderBase@@@Z 004469e0 f   ltmodule.obj
 0001:00045a20       ?Remove@CInterfaceNameMgr@@QAEXPAVIBase@@@Z 00446a20 f   ltmodule.obj
 0001:00045aa0       ??4?$CPointerTracked@VCInterfaceDatabase@@@@QAEAAV0@AAV0@@Z 00446aa0 f i ltmodule.obj
 0001:00045b10       ??4?$CPointerTracked@VCInterfaceDatabase@@@@QAEAAV0@PAVCInterfaceDatabase@@@Z 00446b10 f i ltmodule.obj
 0001:00045b80       ?add@?$database_array@VIBase@@PBD@@QAEXPAVIBase@@P6A?AW4RELATION@@00@Z@Z 00446b80 f i ltmodule.obj
 0001:00045b80       ?add@?$database_array@VCInterfaceNameMgr@@PBD@@QAEXPAVCInterfaceNameMgr@@P6A?AW4RELATION@@00@Z@Z 00446b80 f i ltmodule.obj
 0001:00045c30       ??1CDatabasePtrs@@QAE@XZ   00446c30 f i ltmodule.obj
 0001:00045ce0       ?RemoveAPI@CInterfaceDatabase@@SAXPAVIBase@@PBD@Z 00446ce0 f   ltmodule.obj
 0001:00045d80       ?RemoveHolder@CInterfaceDatabase@@SAXPAVCAPIHolderBase@@@Z 00446d80 f   ltmodule.obj
 0001:00045e10       ?Remove@CInterfaceDatabase@@EAEXPAVIBase@@PBD@Z 00446e10 f   ltmodule.obj
 0001:00045e80       ?Add@CInterfaceDatabase@@EAEXPAVCAPIHolderBase@@@Z 00446e80 f   ltmodule.obj
 0001:00045f60       ?Add@CInterfaceDatabase@@EAEXPAVCInterfaceChooser@@@Z 00446f60 f   ltmodule.obj
 0001:00046060       ??_ECInterfaceNameMgr@@UAEPAXI@Z 00447060 f i ltmodule.obj
 0001:00046060       ??_GCInterfaceNameMgr@@UAEPAXI@Z 00447060 f i ltmodule.obj
 0001:00046080       ?Add@CInterfaceNameMgr@@QAEXPAVIBase@@@Z 00447080 f   ltmodule.obj
 0001:000460f0       ??1?$CPointerTrackedTarget@VCInterfaceDatabase@@@@QAE@XZ 004470f0 f i ltmodule.obj
 0001:00046150       ?DatabaseItemCountInc@CInterfaceDatabase@@SAXXZ 00447150 f   ltmodule.obj
 0001:00046160       ??0CInterfaceDatabase@@QAE@XZ 00447160 f   ltmodule.obj
 0001:00046200       ??1CInterfaceDatabase@@QAE@XZ 00447200 f   ltmodule.obj
 0001:00046290       ?AddAPI@CInterfaceDatabase@@SAXPAVIBase@@PBDH@Z 00447290 f   ltmodule.obj
 0001:00046330       ?AddHolder@CInterfaceDatabase@@SAXPAVCAPIHolderBase@@@Z 00447330 f   ltmodule.obj
 0001:000463c0       ?AddChooser@CInterfaceDatabase@@SAXPAVCInterfaceChooser@@@Z 004473c0 f   ltmodule.obj
 0001:00046450       ?Add@CInterfaceDatabase@@EAEXPAVIBase@@PBDH@Z 00447450 f   ltmodule.obj
 0001:00046530       ?TransferFrom@CInterfaceNameMgr@@QAEXPAV1@@Z 00447530 f   ltmodule.obj
 0001:00046630       ??0CAPIHolderBase@@QAE@PBDH@Z 00447630 f   ltmodule.obj
 0001:00046660       _SetMasterDatabase         00447660 f   ltmodule.obj
 0001:00046700       ?GetMasterDatabase@@YAPAVCInterfaceDatabase@@XZ 00447700 f   ltmodule.obj
 0001:000467a0       ?DatabaseItemCountDec@CInterfaceDatabase@@SAXXZ 004477a0 f   ltmodule.obj
 0001:000467e0       ?TransferFrom@CInterfaceDatabase@@UAEXPAV1@@Z 004477e0 f   ltmodule.obj
 0001:00046920       ?Destroy@CInterfaceDatabase@@UAEXXZ 00447920 f   ltmodule.obj
 0001:00046940       ??1CAPIHolderBase@@UAE@XZ  00447940 f   ltmodule.obj
 0001:00046990       ??_GCAPIHolderBase@@UAEPAXI@Z 00447990 f i ltmodule.obj
 0001:00046990       ??_ECAPIHolderBase@@UAEPAXI@Z 00447990 f i ltmodule.obj
 0001:000469f0       ?Link@LTObjRef@@AAEXPAVLTObject@@@Z 004479f0 f   ltobjref.obj
 0001:00046a30       ?Unlink@LTObjRef@@AAEXXZ   00447a30 f   ltobjref.obj
 0001:00046a60       ?quat_ConvertToMatrix@@YAXPBMQAY03M@Z 00447a60 f   ltquatbase.obj
 0001:00046b80       ?quat_ConvertFromMatrix@@YAXPAMQAY03$$CBM@Z 00447b80 f   ltquatbase.obj
 0001:00046c90       ?quat_GetVectors@@YAXPBMPAM11@Z 00447c90 f   ltquatbase.obj
 0001:00046cf0       ?quat_Slerp@@YAXPAMPBM1M@Z 00447cf0 f   ltquatbase.obj
 0001:00046e20       ?CreateTexture@CDirect3DDevice9Wrapper@@QAEJIIIKW4_D3DFORMAT@@W4_D3DPOOL@@PAPAUIDirect3DTexture9@@@Z 00447e20 f i ltrendermgr_impl.obj
 0001:00046e50       ?SetRenderTarget@CDirect3DDevice9Wrapper@@QAEJPAUIDirect3DSurface9@@0@Z 00447e50 f i ltrendermgr_impl.obj
 0001:00046e80       ?Term@CLTRenderMgr@@UAEXXZ 00447e80 f   ltrendermgr_impl.obj
 0001:00046ea0       ?AddEffectShader@CLTRenderMgr@@UAEIPBDHPBIII@Z 00447ea0 f   ltrendermgr_impl.obj
 0001:00046fa0       ?GetEffectShader@CLTRenderMgr@@UAEPAVLTEffectShader@@H@Z 00447fa0 f   ltrendermgr_impl.obj
 0001:00046fc0       ?CreateEffectPool@CLTRenderMgr@@UAEII@Z 00447fc0 f   ltrendermgr_impl.obj
 0001:00046fe0       ?CreateRenderTarget@CLTRenderMgr@@UAEIIIW4ERenderTargetFormat@@W4EStencilBufferFormat@@I@Z 00447fe0 f   ltrendermgr_impl.obj
 0001:00047010       ?InstallRenderTarget@CLTRenderMgr@@UAEII@Z 00448010 f   ltrendermgr_impl.obj
 0001:00047050       ?RemoveRenderTarget@CLTRenderMgr@@UAEII@Z 00448050 f   ltrendermgr_impl.obj
 0001:00047070       ?StretchRectRenderTargetToBackBuffer@CLTRenderMgr@@UAEII@Z 00448070 f   ltrendermgr_impl.obj
 0001:000470e0       ?GetRenderTargetDims@CLTRenderMgr@@UAEIIAAII@Z 004480e0 f   ltrendermgr_impl.obj
 0001:00047130       ?StoreDefaultRenderTarget@CLTRenderMgr@@UAEIXZ 00448130 f   ltrendermgr_impl.obj
 0001:00047190       ?RestoreDefaultRenderTarget@CLTRenderMgr@@UAEIXZ 00448190 f   ltrendermgr_impl.obj
 0001:00047220       ?SnapshotCurrentFrame@CLTRenderMgr@@UAEIXZ 00448220 f   ltrendermgr_impl.obj
 0001:000473c0       ?SaveCurrentFrameToPrevious@CLTRenderMgr@@UAEIXZ 004483c0 f   ltrendermgr_impl.obj
 0001:00047550       ?UploadCurrentFrameToEffect@CLTRenderMgr@@UAEIPAVLTEffectShader@@PBD@Z 00448550 f   ltrendermgr_impl.obj
 0001:000475a0       ?UploadPreviousFrameToEffect@CLTRenderMgr@@UAEIPAVLTEffectShader@@PBD@Z 004485a0 f   ltrendermgr_impl.obj
 0001:000475f0       ?_InterfaceImplementation@CLTRenderMgr@@UAEPBDXZ 004485f0 f i ltrendermgr_impl.obj
 0001:00047600       ??_EILTTextureString@@UAEPAXI@Z 00448600 f i lttexturestring.obj
 0001:00047600       ??_GILTTextureString@@UAEPAXI@Z 00448600 f i lttexturestring.obj
 0001:00047620       ??1CLTTextureString@@UAE@XZ 00448620 f   lttexturestring.obj
 0001:00047630       ?RegisterCustomFontFile@CLTTextureString@@UAEPAVCCustomFontFile@@PBD@Z 00448630 f   lttexturestring.obj
 0001:00047650       ?UnregisterCustomFontFile@CLTTextureString@@UAEIPAVCCustomFontFile@@@Z 00448650 f   lttexturestring.obj
 0001:00047670       ?CreateTextureString@CLTTextureString@@UAEPAVCTextureString@@PBGABVCFontInfo@@@Z 00448670 f   lttexturestring.obj
 0001:00047710       ?CreateTextureSubstring@CLTTextureString@@UAEPAVCTextureString@@PBGPAV2@@Z 00448710 f   lttexturestring.obj
 0001:000477c0       ?WordWrapString@CLTTextureString@@UAEIPAVCTextureString@@I@Z 004487c0 f   lttexturestring.obj
 0001:000477f0       ?RecreateTextureString@CLTTextureString@@UAEIPAVCTextureString@@PBGABVCFontInfo@@@Z 004487f0 f   lttexturestring.obj
 0001:00047820       ?RecreateTextureSubstring@CLTTextureString@@UAEIPAVCTextureString@@PBG0@Z 00448820 f   lttexturestring.obj
 0001:00047850       ?GetStringExtents@CLTTextureString@@UAEIPAVCTextureString@@AAV?$TRect2@H@@@Z 00448850 f   lttexturestring.obj
 0001:00047890       ?GetStringLength@CLTTextureString@@UAEIPAVCTextureString@@PAI@Z 00448890 f   lttexturestring.obj
 0001:000478c0       ?GetString@CLTTextureString@@UAEIPAVCTextureString@@PAGI@Z 004488c0 f   lttexturestring.obj
 0001:00047910       ?ReleaseTextureString@CLTTextureString@@UAEXPAVCTextureString@@@Z 00448910 f   lttexturestring.obj
 0001:00047920       ?AddRefTextureString@CLTTextureString@@UAEXPAVCTextureString@@@Z 00448920 f   lttexturestring.obj
 0001:00047930       ?SetupTextRendering@CLTTextureString@@UAEIPAVILTDrawPrim@@@Z 00448930 f   lttexturestring.obj
 0001:00047990       ??0LT_POLYGT4@@QAE@XZ      00448990 f i lttexturestring.obj
 0001:000479b0       ??0CLTTextureString@@QAE@XZ 004489b0 f   lttexturestring.obj
 0001:000479c0       ?_InterfaceImplementation@CLTTextureString@@UAEPBDXZ 004489c0 f i lttexturestring.obj
 0001:000479d0       ??_GCLTTextureString@@UAEPAXI@Z 004489d0 f i lttexturestring.obj
 0001:000479d0       ??_ECLTTextureString@@UAEPAXI@Z 004489d0 f i lttexturestring.obj
 0001:000479f0       ?GetFont@CLTTextureString@@UAEIPAVCTextureString@@AAVCFontInfo@@@Z 004489f0 f   lttexturestring.obj
 0001:00047a20       ?GetTextureImage@CLTTextureString@@UAEIPAVCTextureString@@AAPAVSharedTexture@@@Z 00448a20 f   lttexturestring.obj
 0001:00047a70       ?GetCharRect@CLTTextureString@@UAEIPAVCTextureString@@IAAV?$TRect2@H@@1AAV?$LTVector2@M@@2@Z 00448a70 f   lttexturestring.obj
 0001:00047d80       ?RenderString@CLTTextureString@@UAEIPAVCTextureString@@PAVILTDrawPrim@@ABV?$LTVector2@M@@I2222_N@Z 00448d80 f   lttexturestring.obj
 0001:00047ef0       ?RenderSubString@CLTTextureString@@UAEIPAVCTextureString@@PBGPAVILTDrawPrim@@ABV?$LTVector2@M@@I333@Z 00448ef0 f   lttexturestring.obj
 0001:000480b0       ?GetIntersection@?$TRect2@M@@QBE?AV1@ABV1@@Z 004490b0 f i lttexturestring.obj
 0001:00048360       ?RenderStringClipped@CLTTextureString@@UAEIPAVCTextureString@@PAVILTDrawPrim@@ABV?$TRect2@H@@ABV?$LTVector2@M@@I3_N@Z 00449360 f   lttexturestring.obj
 0001:000484f0       ?RenderSubStringClipped@CLTTextureString@@UAEIPAVCTextureString@@PBGPAVILTDrawPrim@@ABV?$TRect2@H@@ABV?$LTVector2@M@@I@Z 004494f0 f   lttexturestring.obj
 0001:000486d0       ?mw_ResetWatches@@YAXXZ    004496d0 f   memorywatch.obj
 0001:000486e0       ?mw_ShowMemoryWatches@@YAXXZ 004496e0 f   memorywatch.obj
 0001:000487d0       ??_Eout_of_range@std@@UAEPAXI@Z 004497d0 f i model.obj
 0001:000487d0       ??_Gout_of_range@std@@UAEPAXI@Z 004497d0 f i model.obj
 0001:000487f0       ??1out_of_range@std@@UAE@XZ 004497f0 f i model.obj
 0001:00048800       ??_EIAnimPosChannel@@UAEPAXI@Z 00449800 f i model.obj
 0001:00048800       ??_GIAnimPosChannel@@UAEPAXI@Z 00449800 f i model.obj
 0001:00048820       ??_EIAnimQuatChannel@@UAEPAXI@Z 00449820 f i model.obj
 0001:00048820       ??_GIAnimQuatChannel@@UAEPAXI@Z 00449820 f i model.obj
 0001:00048840       ?DefaultLoadChildFn@@YAIPAVModelLoadRequest@@PAPAVModel@@@Z 00449840 f   model.obj
 0001:00048850       ??1POS16Channel@@UAE@XZ    00449850 f i model.obj
 0001:00048850       ??1SinglePOS16Channel@@UAE@XZ 00449850 f i model.obj
 0001:00048850       ??1NULLPOSChannel@@UAE@XZ  00449850 f i model.obj
 0001:00048850       ??1SinglePOSChannel@@UAE@XZ 00449850 f i model.obj
 0001:00048850       ??1POSChannel@@UAE@XZ      00449850 f i model.obj
 0001:00048860       ??1SingleQUATChannel@@UAE@XZ 00449860 f i model.obj
 0001:00048860       ??1QUATChannel@@UAE@XZ     00449860 f i model.obj
 0001:00048860       ??1NULLQUATChannel@@UAE@XZ 00449860 f i model.obj
 0001:00048860       ??1QUAT16Channel@@UAE@XZ   00449860 f i model.obj
 0001:00048860       ??1SingleQUAT16Channel@@UAE@XZ 00449860 f i model.obj
 0001:00048870       ?GetData@POSChannel@@UBEXPBEIAAU?$TVector3@M@@@Z 00449870 f i model.obj
 0001:000488a0       ?GetData@QUATChannel@@UBEXPBEIAAULTRotation@@@Z 004498a0 f i model.obj
 0001:000488d0       ?GetData@SinglePOSChannel@@UBEXPBEIAAU?$TVector3@M@@@Z 004498d0 f i model.obj
 0001:000488f0       ?GetData@SingleQUATChannel@@UBEXPBEIAAULTRotation@@@Z 004498f0 f i model.obj
 0001:00048920       ?GetData@POS16Channel@@UBEXPBEIAAU?$TVector3@M@@@Z 00449920 f i model.obj
 0001:00048980       ?GetData@QUAT16Channel@@UBEXPBEIAAULTRotation@@@Z 00449980 f i model.obj
 0001:000489f0       ?GetData@SinglePOS16Channel@@UBEXPBEIAAU?$TVector3@M@@@Z 004499f0 f i model.obj
 0001:00048a40       ?GetData@SingleQUAT16Channel@@UBEXPBEIAAULTRotation@@@Z 00449a40 f i model.obj
 0001:00048a50       ?SetAlloc@ModelStringList@@QAE_NPAVLAlloc@@@Z 00449a50 f   model.obj
 0001:00048a70       ??0AnimNode@@QAE@XZ        00449a70 f   model.obj
 0001:00048a80       ??0ModelPiece@@QAE@PAVModel@@@Z 00449a80 f   model.obj
 0001:00048aa0       ?GetFilename@Model@@QBEPBDXZ 00449aa0 f   model.obj
 0001:00048aa0       ?GetHead@CUILinkList@@QAEPAVCUIListNode@@XZ 00449aa0 f   Lib_UI:cuilinklist.obj
 0001:00048ab0       ?InitChildInfo@Model@@QAE_NIPAVChildInfo@@PAV1@PBD@Z 00449ab0 f   model.obj
 0001:00048af0       ?FindChildModel@Model@@QAEPAVChildInfo@@PAV1@AAI@Z 00449af0 f   model.obj
 0001:00048b40       ?Load@CDIModelDrawable@@UAE_NAAVILTStream@@AAULTB_Header@@@Z 00449b40 f   model.obj
 0001:00048b80       ?GetNumOBB@Model@@QAEIXZ   00449b80 f   model.obj
 0001:00048b90       ??$BaseNew@VAnimKeyFrame@@@@YAPAVAnimKeyFrame@@PAVLAlloc@@PAV0@I_N@Z 00449b90 f i model.obj
 0001:00048be0       ??_ESinglePOSChannel@@UAEPAXI@Z 00449be0 f i model.obj
 0001:00048be0       ??_GSinglePOSChannel@@UAEPAXI@Z 00449be0 f i model.obj
 0001:00048be0       ??_GNULLPOSChannel@@UAEPAXI@Z 00449be0 f i model.obj
 0001:00048be0       ??_EPOS16Channel@@UAEPAXI@Z 00449be0 f i model.obj
 0001:00048be0       ??_GPOS16Channel@@UAEPAXI@Z 00449be0 f i model.obj
 0001:00048be0       ??_GSinglePOS16Channel@@UAEPAXI@Z 00449be0 f i model.obj
 0001:00048be0       ??_EPOSChannel@@UAEPAXI@Z  00449be0 f i model.obj
 0001:00048be0       ??_GPOSChannel@@UAEPAXI@Z  00449be0 f i model.obj
 0001:00048be0       ??_ESinglePOS16Channel@@UAEPAXI@Z 00449be0 f i model.obj
 0001:00048be0       ??_ENULLPOSChannel@@UAEPAXI@Z 00449be0 f i model.obj
 0001:00048c00       ?GetData@NULLPOSChannel@@UBEXPBEIAAU?$TVector3@M@@@Z 00449c00 f i model.obj
 0001:00048c20       ??_ENULLQUATChannel@@UAEPAXI@Z 00449c20 f i model.obj
 0001:00048c20       ??_EQUAT16Channel@@UAEPAXI@Z 00449c20 f i model.obj
 0001:00048c20       ??_GSingleQUATChannel@@UAEPAXI@Z 00449c20 f i model.obj
 0001:00048c20       ??_GQUAT16Channel@@UAEPAXI@Z 00449c20 f i model.obj
 0001:00048c20       ??_EQUATChannel@@UAEPAXI@Z 00449c20 f i model.obj
 0001:00048c20       ??_GNULLQUATChannel@@UAEPAXI@Z 00449c20 f i model.obj
 0001:00048c20       ??_ESingleQUATChannel@@UAEPAXI@Z 00449c20 f i model.obj
 0001:00048c20       ??_GSingleQUAT16Channel@@UAEPAXI@Z 00449c20 f i model.obj
 0001:00048c20       ??_ESingleQUAT16Channel@@UAEPAXI@Z 00449c20 f i model.obj
 0001:00048c20       ??_GQUATChannel@@UAEPAXI@Z 00449c20 f i model.obj
 0001:00048c40       ?GetData@NULLQUATChannel@@UBEXPBEIAAULTRotation@@@Z 00449c40 f i model.obj
 0001:00048c60       ?AddString@ModelStringList@@QAEPBDPBD@Z 00449c60 f   model.obj
 0001:00048d20       ??1ChildInfo@@QAE@XZ       00449d20 f   model.obj
 0001:00048d30       ?GetAnimTime@ModelAnim@@QBEIXZ 00449d30 f   model.obj
 0001:00048d50       ?Clear@ModelNode@@QAEXXZ   00449d50 f   model.obj
 0001:00048e50       ?Term@ModelPiece@@AAEXXZ   00449e50 f   model.obj
 0001:00048ed0       ?AddString@Model@@QAEPBDPBD@Z 00449ed0 f   model.obj
 0001:00048ee0       ?CalcNumChildModelAnims@Model@@QAEIXZ 00449ee0 f   model.obj
 0001:00048f10       ?ParseCommandString@Model@@QAEXXZ 00449f10 f   model.obj
 0001:00048f80       ?SetFilename@Model@@QAE_NPBD@Z 00449f80 f   model.obj
 0001:00048ff0       ??4AnimInfo@@QAEAAV0@ABV0@@Z 00449ff0 f i model.obj
 0001:00049030       ?_Lrotate@?$_Tree@V?$_Tset_traits@PAVModel@@U?$less@PAVModel@@@std@@V?$allocator@PAVModel@@@3@$0A@@std@@@std@@IAEXPAU_Node@?$_Tree_nod@V?$_Tset_traits@PAVModel@@U?$less@PAVModel@@@std@@V?$allocator@PAVModel@@@3@$0A@@std@@@2@@Z 0044a030 f i model.obj
 0001:00049030       ?_Lrotate@?$_Tree@V?$_Tset_traits@IU?$less@I@std@@V?$allocator@I@2@$0A@@std@@@std@@IAEXPAU_Node@?$_Tree_nod@V?$_Tset_traits@IU?$less@I@std@@V?$allocator@I@2@$0A@@std@@@2@@Z 0044a030 f i LIB_D3DRender:d3dmeshrendobj_skel.obj
 0001:00049090       ?_Rrotate@?$_Tree@V?$_Tset_traits@PAVModel@@U?$less@PAVModel@@@std@@V?$allocator@PAVModel@@@3@$0A@@std@@@std@@IAEXPAU_Node@?$_Tree_nod@V?$_Tset_traits@PAVModel@@U?$less@PAVModel@@@std@@V?$allocator@PAVModel@@@3@$0A@@std@@@2@@Z 0044a090 f i model.obj
 0001:00049090       ?_Rrotate@?$_Tree@V?$_Tset_traits@IU?$less@I@std@@V?$allocator@I@2@$0A@@std@@@std@@IAEXPAU_Node@?$_Tree_nod@V?$_Tset_traits@IU?$less@I@std@@V?$allocator@I@2@$0A@@std@@@2@@Z 0044a090 f i LIB_D3DRender:d3dmeshrendobj_skel.obj
 0001:000490f0       ??$BaseNew@VAnimInfo@@@@YAPAVAnimInfo@@PAVLAlloc@@PAV0@I_N@Z 0044a0f0 f i model.obj
 0001:00049150       ?VerifyChildModel_R@@YA_NPAVModelNode@@0AAPAV1@@Z 0044a150 f   model.obj
 0001:000491c0       ?GetSingleton@NULLPOSChannel@@SAPBVIAnimPosChannel@@XZ 0044a1c0 f   model.obj
 0001:00049200       ?GetSingleton@NULLQUATChannel@@SAPBVIAnimQuatChannel@@XZ 0044a200 f   model.obj
 0001:00049240       ?GetSingleton@POSChannel@@SAPBVIAnimPosChannel@@XZ 0044a240 f   model.obj
 0001:00049280       ?GetSingleton@QUATChannel@@SAPBVIAnimQuatChannel@@XZ 0044a280 f   model.obj
 0001:000492c0       ?GetSingleton@SinglePOSChannel@@SAPBVIAnimPosChannel@@XZ 0044a2c0 f   model.obj
 0001:00049300       ?GetSingleton@SingleQUATChannel@@SAPBVIAnimQuatChannel@@XZ 0044a300 f   model.obj
 0001:00049340       ?GetSingleton@POS16Channel@@SAPBVIAnimPosChannel@@XZ 0044a340 f   model.obj
 0001:00049380       ?GetSingleton@QUAT16Channel@@SAPBVIAnimQuatChannel@@XZ 0044a380 f   model.obj
 0001:000493c0       ?GetSingleton@SinglePOS16Channel@@SAPBVIAnimPosChannel@@XZ 0044a3c0 f   model.obj
 0001:00049400       ?GetSingleton@SingleQUAT16Channel@@SAPBVIAnimQuatChannel@@XZ 0044a400 f   model.obj
 0001:00049440       ??1ModelStringList@@QAE@XZ 0044a440 f   model.obj
 0001:00049470       ?getValue@CDefVertexLst@@QBEPBMI@Z 0044a470 f   model.obj
 0001:00049480       ?CalcNumNodes@ModelNode@@QBEIXZ 0044a480 f   model.obj
 0001:000494b0       ?FillNodeList@ModelNode@@QAE_NAAI@Z 0044a4b0 f   model.obj
 0001:00049520       ?SetParent_R@ModelNode@@QAEXI@Z 0044a520 f   model.obj
 0001:00049560       ??0ModelSocket@@QAE@XZ     0044a560 f   model.obj
 0001:00049590       ?TermChildModels@Model@@QAEXXZ 0044a590 f   model.obj
 0001:00049610       ?FindPiece@Model@@QAEPAVModelPiece@@PBDPAI@Z 0044a610 f   model.obj
 0001:00049660       ?FindWeightSet@Model@@QAEPAVWeightSet@@PBDPAI@Z 0044a660 f   model.obj
 0001:000496b0       ?FindNode@Model@@QAEPAVModelNode@@PBDPAI@Z 0044a6b0 f   model.obj
 0001:00049710       ?FindAnim@Model@@QAEPAVModelAnim@@PBDPAIPAPAVAnimInfo@@@Z 0044a710 f   model.obj
 0001:00049780       ?FindAnimInfo@Model@@QAEPAVAnimInfo@@PBDPAV1@PAI@Z 0044a780 f   model.obj
 0001:000497f0       ?SetNodeParentOffsets@Model@@QAEXXZ 0044a7f0 f   model.obj
 0001:000498b0       ?CalcNumParentAnims@Model@@QBEIXZ 0044a8b0 f   model.obj
 0001:000498e0       ?FindSocket@Model@@QAEPAVModelSocket@@PBDPAI@Z 0044a8e0 f   model.obj
 0001:00049950       ?GetCopyOfOBBSet@Model@@QAEXPAUModelOBB@@@Z 0044a950 f   model.obj
 0001:00049a00       ?erase@?$_Tree@V?$_Tset_traits@PAVModel@@U?$less@PAVModel@@@std@@V?$allocator@PAVModel@@@3@$0A@@std@@@std@@QAE?AViterator@12@V312@@Z 0044aa00 f i model.obj
 0001:00049cd0       ??0out_of_range@std@@QAE@ABV01@@Z 0044acd0 f i model.obj
 0001:00049cf0       ?_Buynode@?$_Tree@V?$_Tset_traits@PAVModel@@U?$less@PAVModel@@@std@@V?$allocator@PAVModel@@@3@$0A@@std@@@std@@IAEPAU_Node@?$_Tree_nod@V?$_Tset_traits@PAVModel@@U?$less@PAVModel@@@std@@V?$allocator@PAVModel@@@3@$0A@@std@@@2@PAU342@00ABQAVModel@@D@Z 0044acf0 f i model.obj
 0001:00049cf0       ?_Buynode@?$_Tree@V?$_Tset_traits@IU?$less@I@std@@V?$allocator@I@2@$0A@@std@@@std@@IAEPAU_Node@?$_Tree_nod@V?$_Tset_traits@IU?$less@I@std@@V?$allocator@I@2@$0A@@std@@@2@PAU342@00ABID@Z 0044acf0 f i LIB_D3DRender:d3dmeshrendobj_skel.obj
 0001:00049d30       ?_Erase@?$_Tree@V?$_Tset_traits@PAVModel@@U?$less@PAVModel@@@std@@V?$allocator@PAVModel@@@3@$0A@@std@@@std@@IAEXPAU_Node@?$_Tree_nod@V?$_Tset_traits@PAVModel@@U?$less@PAVModel@@@std@@V?$allocator@PAVModel@@@3@$0A@@std@@@2@@Z 0044ad30 f i model.obj
 0001:00049d70       ?SetSize2@?$CMoArray@UdefVert@CDefVertexLst@@VNoCache@@@@QAEIIPAVLAlloc@@_N@Z 0044ad70 f i model.obj
 0001:00049de0       ?SetSize2@?$CMoArray@VAnimKeyFrame@@VNoCache@@@@QAEIIPAVLAlloc@@_N@Z 0044ade0 f i model.obj
 0001:00049e50       ?SetSize2@?$CMoArray@PAVWeightSet@@VNoCache@@@@QAEIIPAVLAlloc@@_N@Z 0044ae50 f i model.obj
 0001:00049e50       ?SetSize2@?$CMoArray@PAVModelNode@@VNoCache@@@@QAEIIPAVLAlloc@@_N@Z 0044ae50 f i model.obj
 0001:00049e50       ?SetSize2@?$CMoArray@PAVModelSocket@@VNoCache@@@@QAEIIPAVLAlloc@@_N@Z 0044ae50 f i model.obj
 0001:00049e50       ?SetSize2@?$CMoArray@PAVModelPiece@@VNoCache@@@@QAEIIPAVLAlloc@@_N@Z 0044ae50 f i model.obj
 0001:00049ec0       ?SetSize2@?$CMoArray@MVDefaultCache@@@@QAEIIPAVLAlloc@@_N@Z 0044aec0 f i model.obj
 0001:00049ec0       ?SetSize2@?$CMoArray@IVDefaultCache@@@@QAEIIPAVLAlloc@@_N@Z 0044aec0 f i LIB_D3DRender:d3d_surface.obj
 0001:00049ec0       ?SetSize2@?$CMoArray@PAXVDefaultCache@@@@QAEIIPAVLAlloc@@_N@Z 0044aec0 f i debuggraphmgr.obj
 0001:00049ec0       ?SetSize2@?$CMoArray@PAVCBaseConn@@VDefaultCache@@@@QAEIIPAVLAlloc@@_N@Z 0044aec0 f i netmgr.obj
 0001:00049ec0       ?SetSize2@?$CMoArray@PAVCBaseDriver@@VDefaultCache@@@@QAEIIPAVLAlloc@@_N@Z 0044aec0 f i netmgr.obj
 0001:00049f40       ??$DeleteAndClearArray2@V?$CMoArray@PAVModelSocket@@VNoCache@@@@@@YAXAAV?$CMoArray@PAVModelSocket@@VNoCache@@@@PAVLAlloc@@@Z 0044af40 f i model.obj
 0001:00049f90       ?SetSizeInit3@?$CMoArray@PAVWeightSet@@VNoCache@@@@QAEIIAAPAVWeightSet@@PAVLAlloc@@@Z 0044af90 f i model_load.obj
 0001:00049f90       ?SetSizeInit3@?$CMoArray@PAVModelPiece@@VNoCache@@@@QAEIIAAPAVModelPiece@@PAVLAlloc@@@Z 0044af90 f i model_load.obj
 0001:00049f90       ?SetSizeInit3@?$CMoArray@PAVModelSocket@@VNoCache@@@@QAEIIAAPAVModelSocket@@PAVLAlloc@@@Z 0044af90 f i model_load.obj
 0001:00049f90       ?SetSizeInit3@?$CMoArray@PAVModelNode@@VNoCache@@@@QAEIIAAPAVModelNode@@PAVLAlloc@@@Z 0044af90 f i model.obj
 0001:00049fe0       ?setSize@CDefVertexLst@@QAEXIPAVLAlloc@@@Z 0044afe0 f   model.obj
 0001:0004a000       ?equal_range@?$_Tree@V?$_Tset_traits@PAVModel@@U?$less@PAVModel@@@std@@V?$allocator@PAVModel@@@3@$0A@@std@@@std@@QAE?AU?$pair@Viterator@?$_Tree@V?$_Tset_traits@PAVModel@@U?$less@PAVModel@@@std@@V?$allocator@PAVModel@@@3@$0A@@std@@@std@@V123@@2@ABQAVModel@@@Z 0044b000 f i model.obj
 0001:0004a070       ?_Insert@?$_Tree@V?$_Tset_traits@PAVModel@@U?$less@PAVModel@@@std@@V?$allocator@PAVModel@@@3@$0A@@std@@@std@@IAE?AViterator@12@_NPAU_Node@?$_Tree_nod@V?$_Tset_traits@PAVModel@@U?$less@PAVModel@@@std@@V?$allocator@PAVModel@@@3@$0A@@std@@@2@ABQAVModel@@@Z 0044b070 f i model.obj
 0001:0004a230       ?SetSize2@?$CMoArray@VAnimInfo@@VNoCache@@@@QAEIIPAVLAlloc@@_N@Z 0044b230 f i model.obj
 0001:0004a2a0       ?InternalNiceSetSize@?$CMoArray@VAnimInfo@@VNoCache@@@@AAEIIIPAVLAlloc@@@Z 0044b2a0 f i model.obj
 0001:0004a4e0       ?BuildFlatNodeList@Model@@AAE_N_N@Z 0044b4e0 f   model.obj
 0001:0004a590       ?Find@CModelMgr@@QAEPAVModel@@PBD@Z 0044b590 f   model.obj
 0001:0004a630       ?Find@CModelMgr@@QAEPAVModel@@G@Z 0044b630 f   model.obj
 0001:0004a670       ?ForEach@CModelMgr@@QAEXP6AXABVModel@@PAX@Z1@Z 0044b670 f   model.obj
 0001:0004a6f0       ??1?$CMoArray@UdefVert@CDefVertexLst@@VNoCache@@@@QAE@XZ 0044b6f0 f i model.obj
 0001:0004a720       ?GenGetNext@?$CMoArray@UdefVert@CDefVertexLst@@VNoCache@@@@UBE?AUdefVert@CDefVertexLst@@AAVGenListPos@@@Z 0044b720 f i model.obj
 0001:0004a750       ?GenGetAt@?$CMoArray@UdefVert@CDefVertexLst@@VNoCache@@@@UBE?AUdefVert@CDefVertexLst@@AAVGenListPos@@@Z 0044b750 f i model.obj
 0001:0004a780       ?GenRemoveAt@?$CMoArray@UdefVert@CDefVertexLst@@VNoCache@@@@UAEXVGenListPos@@@Z 0044b780 f i model.obj
 0001:0004a7a0       ?Remove2@?$CMoArray@UdefVert@CDefVertexLst@@VNoCache@@@@QAEXIPAVLAlloc@@@Z 0044b7a0 f i model.obj
 0001:0004a8c0       ?GenCopyList@?$CMoArray@UdefVert@CDefVertexLst@@VNoCache@@@@UAEIABV?$GenList@UdefVert@CDefVertexLst@@@@@Z 0044b8c0 f i model.obj
 0001:0004a9b0       ?GenAppendList@?$CMoArray@UdefVert@CDefVertexLst@@VNoCache@@@@UAEIABV?$GenList@UdefVert@CDefVertexLst@@@@@Z 0044b9b0 f i model.obj
 0001:0004aab0       ?InternalNiceSetSize@?$CMoArray@UdefVert@CDefVertexLst@@VNoCache@@@@AAEIIIPAVLAlloc@@@Z 0044bab0 f i model.obj
 0001:0004ab90       ??1?$CMoArray@VAnimKeyFrame@@VNoCache@@@@QAE@XZ 0044bb90 f i model.obj
 0001:0004abc0       ?GenGetNext@?$CMoArray@VSBank@@VDefaultCache@@@@UBE?AVSBank@@AAVGenListPos@@@Z 0044bbc0 f i Lib_StdLith:stringholder.obj
 0001:0004abc0       ?GenGetNext@?$CMoArray@VDGSample@@VDefaultCache@@@@UBE?AVDGSample@@AAVGenListPos@@@Z 0044bbc0 f i debuggraphmgr.obj
 0001:0004abc0       ?GenGetNext@?$CMoArray@VAnimKeyFrame@@VNoCache@@@@UBE?AVAnimKeyFrame@@AAVGenListPos@@@Z 0044bbc0 f i model.obj
 0001:0004abc0       ?GenGetNext@?$CMoArray@ULTRecord@@VDefaultCache@@@@UBE?AULTRecord@@AAVGenListPos@@@Z 0044bbc0 f i servermgr.obj
 0001:0004abe0       ?GenGetAt@?$CMoArray@ULTRecord@@VDefaultCache@@@@UBE?AULTRecord@@AAVGenListPos@@@Z 0044bbe0 f i servermgr.obj
 0001:0004abe0       ?GenGetAt@?$CMoArray@VDGSample@@VDefaultCache@@@@UBE?AVDGSample@@AAVGenListPos@@@Z 0044bbe0 f i debuggraphmgr.obj
 0001:0004abe0       ?GenGetAt@?$CMoArray@VAnimKeyFrame@@VNoCache@@@@UBE?AVAnimKeyFrame@@AAVGenListPos@@@Z 0044bbe0 f i model.obj
 0001:0004abe0       ?GenGetAt@?$CMoArray@VSBank@@VDefaultCache@@@@UBE?AVSBank@@AAVGenListPos@@@Z 0044bbe0 f i Lib_StdLith:stringholder.obj
 0001:0004ac00       ?GenRemoveAt@?$CMoArray@VAnimKeyFrame@@VNoCache@@@@UAEXVGenListPos@@@Z 0044bc00 f i model.obj
 0001:0004ac20       ?Remove2@?$CMoArray@VAnimKeyFrame@@VNoCache@@@@QAEXIPAVLAlloc@@@Z 0044bc20 f i model.obj
 0001:0004acf0       ?GenCopyList@?$CMoArray@VAnimKeyFrame@@VNoCache@@@@UAEIABV?$GenList@VAnimKeyFrame@@@@@Z 0044bcf0 f i model.obj
 0001:0004ade0       ?GenAppendList@?$CMoArray@VAnimKeyFrame@@VNoCache@@@@UAEIABV?$GenList@VAnimKeyFrame@@@@@Z 0044bde0 f i model.obj
 0001:0004aed0       ?InternalNiceSetSize@?$CMoArray@VAnimKeyFrame@@VNoCache@@@@AAEIIIPAVLAlloc@@@Z 0044bed0 f i model.obj
 0001:0004af90       ??1?$CMoArray@PAVModelNode@@VNoCache@@@@QAE@XZ 0044bf90 f i model.obj
 0001:0004afc0       ?GenFindElement@?$CMoArray@PAVCBaseDriver@@VDefaultCache@@@@UBEIABQAVCBaseDriver@@AAVGenListPos@@@Z 0044bfc0 f i netmgr.obj
 0001:0004afc0       ?GenFindElement@?$CMoArray@PAVCBaseConn@@VDefaultCache@@@@UBEIABQAVCBaseConn@@AAVGenListPos@@@Z 0044bfc0 f i netmgr.obj
 0001:0004afc0       ?GenFindElement@?$CMoArray@PAVModelPiece@@VNoCache@@@@UBEIABQAVModelPiece@@AAVGenListPos@@@Z 0044bfc0 f i model.obj
 0001:0004afc0       ?GenFindElement@?$CMoArray@PAVWeightSet@@VNoCache@@@@UBEIABQAVWeightSet@@AAVGenListPos@@@Z 0044bfc0 f i model.obj
 0001:0004afc0       ?GenFindElement@?$CMoArray@PAVModelNode@@VNoCache@@@@UBEIABQAVModelNode@@AAVGenListPos@@@Z 0044bfc0 f i model.obj
 0001:0004afc0       ?GenFindElement@?$CMoArray@PAVModelSocket@@VNoCache@@@@UBEIABQAVModelSocket@@AAVGenListPos@@@Z 0044bfc0 f i model.obj
 0001:0004afc0       ?GenFindElement@?$CMoArray@MVDefaultCache@@@@UBEIABMAAVGenListPos@@@Z 0044bfc0 f i model.obj
 0001:0004afc0       ?GenFindElement@?$CMoArray@PAXVDefaultCache@@@@UBEIABQAXAAVGenListPos@@@Z 0044bfc0 f i debuggraphmgr.obj
 0001:0004afc0       ?GenFindElement@?$CMoArray@IVDefaultCache@@@@UBEIABIAAVGenListPos@@@Z 0044bfc0 f i LIB_D3DRender:d3d_surface.obj
 0001:0004aff0       ?GenRemoveAll@?$CMoArray@VAnimKeyFrame@@VNoCache@@@@UAEXXZ 0044bff0 f i model.obj
 0001:0004aff0       ?GenRemoveAll@?$CMoArray@PAVModelNode@@VNoCache@@@@UAEXXZ 0044bff0 f i model.obj
 0001:0004aff0       ?GenRemoveAll@?$CMoArray@VAnimInfo@@VNoCache@@@@UAEXXZ 0044bff0 f i model.obj
 0001:0004aff0       ?GenRemoveAll@?$CMoArray@PAVWeightSet@@VNoCache@@@@UAEXXZ 0044bff0 f i model.obj
 0001:0004aff0       ?GenRemoveAll@?$CMoArray@UdefVert@CDefVertexLst@@VNoCache@@@@UAEXXZ 0044bff0 f i model.obj
 0001:0004aff0       ?GenRemoveAll@?$CMoArray@PAVModelSocket@@VNoCache@@@@UAEXXZ 0044bff0 f i model.obj
 0001:0004aff0       ?GenRemoveAll@?$CMoArray@PAVModelPiece@@VNoCache@@@@UAEXXZ 0044bff0 f i model.obj
 0001:0004b020       ?GenCopyList@?$CMoArray@PAVModelPiece@@VNoCache@@@@UAEIABV?$GenList@PAVModelPiece@@@@@Z 0044c020 f i model.obj
 0001:0004b020       ?GenCopyList@?$CMoArray@PAVModelSocket@@VNoCache@@@@UAEIABV?$GenList@PAVModelSocket@@@@@Z 0044c020 f i model.obj
 0001:0004b020       ?GenCopyList@?$CMoArray@PAVWeightSet@@VNoCache@@@@UAEIABV?$GenList@PAVWeightSet@@@@@Z 0044c020 f i model.obj
 0001:0004b020       ?GenCopyList@?$CMoArray@PAVModelNode@@VNoCache@@@@UAEIABV?$GenList@PAVModelNode@@@@@Z 0044c020 f i model.obj
 0001:0004b0f0       ??1?$CMoArray@MVDefaultCache@@@@QAE@XZ 0044c0f0 f i model.obj
 0001:0004b120       ?GenGetNext@?$CMoArray@MVDefaultCache@@@@UBEMAAVGenListPos@@@Z 0044c120 f i model.obj
 0001:0004b140       ?GenGetAt@?$CMoArray@MVDefaultCache@@@@UBEMAAVGenListPos@@@Z 0044c140 f i model.obj
 0001:0004b150       ?GenRemoveAt@?$CMoArray@MVDefaultCache@@@@UAEXVGenListPos@@@Z 0044c150 f i model.obj
 0001:0004b170       ?Remove2@?$CMoArray@MVDefaultCache@@@@QAEXIPAVLAlloc@@@Z 0044c170 f i model.obj
 0001:0004b2e0       ?GenCopyList@?$CMoArray@MVDefaultCache@@@@UAEIABV?$GenList@M@@@Z 0044c2e0 f i model.obj
 0001:0004b3b0       ?GenAppendList@?$CMoArray@MVDefaultCache@@@@UAEIABV?$GenList@M@@@Z 0044c3b0 f i model.obj
 0001:0004b480       ?InternalNiceSetSize@?$CMoArray@MVDefaultCache@@@@AAEIIIPAVLAlloc@@@Z 0044c480 f i model.obj
 0001:0004b5f0       ?insert@?$_Tree@V?$_Tset_traits@PAVModel@@U?$less@PAVModel@@@std@@V?$allocator@PAVModel@@@3@$0A@@std@@@std@@QAE?AU?$pair@Viterator@?$_Tree@V?$_Tset_traits@PAVModel@@U?$less@PAVModel@@@std@@V?$allocator@PAVModel@@@3@$0A@@std@@@std@@_N@2@ABQAVModel@@@Z 0044c5f0 f i model.obj
 0001:0004b6b0       ??1?$CMoArray@PAVModelPiece@@VNoCache@@@@QAE@XZ 0044c6b0 f i model.obj
 0001:0004b6e0       ?GenGetNext@?$CMoArray@IVDefaultCache@@@@UBEIAAVGenListPos@@@Z 0044c6e0 f i LIB_D3DRender:d3d_surface.obj
 0001:0004b6e0       ?GenGetNext@?$CMoArray@PAVModelNode@@VNoCache@@@@UBEPAVModelNode@@AAVGenListPos@@@Z 0044c6e0 f i model.obj
 0001:0004b6e0       ?GenGetNext@?$CMoArray@PAVCBaseConn@@VDefaultCache@@@@UBEPAVCBaseConn@@AAVGenListPos@@@Z 0044c6e0 f i netmgr.obj
 0001:0004b6e0       ?GenGetNext@?$CMoArray@PAVWeightSet@@VNoCache@@@@UBEPAVWeightSet@@AAVGenListPos@@@Z 0044c6e0 f i model.obj
 0001:0004b6e0       ?GenGetNext@?$CMoArray@PAVCBaseDriver@@VDefaultCache@@@@UBEPAVCBaseDriver@@AAVGenListPos@@@Z 0044c6e0 f i netmgr.obj
 0001:0004b6e0       ?GenGetNext@?$CMoArray@PAVModelPiece@@VNoCache@@@@UBEPAVModelPiece@@AAVGenListPos@@@Z 0044c6e0 f i model.obj
 0001:0004b6e0       ?GenGetNext@?$CMoArray@PAVModelSocket@@VNoCache@@@@UBEPAVModelSocket@@AAVGenListPos@@@Z 0044c6e0 f i model.obj
 0001:0004b6e0       ?GenGetNext@?$CMoArray@PAXVDefaultCache@@@@UBEPAXAAVGenListPos@@@Z 0044c6e0 f i debuggraphmgr.obj
 0001:0004b700       ?Remove2@?$CMoArray@PAVModelPiece@@VNoCache@@@@QAEXIPAVLAlloc@@@Z 0044c700 f i model.obj
 0001:0004b700       ?Remove2@?$CMoArray@PAVModelSocket@@VNoCache@@@@QAEXIPAVLAlloc@@@Z 0044c700 f i model.obj
 0001:0004b700       ?Remove2@?$CMoArray@PAVModelNode@@VNoCache@@@@QAEXIPAVLAlloc@@@Z 0044c700 f i model.obj
 0001:0004b700       ?Remove2@?$CMoArray@PAVWeightSet@@VNoCache@@@@QAEXIPAVLAlloc@@@Z 0044c700 f i model.obj
 0001:0004b7d0       ?InternalNiceSetSize@?$CMoArray@PAVWeightSet@@VNoCache@@@@AAEIIIPAVLAlloc@@@Z 0044c7d0 f i model.obj
 0001:0004b7d0       ?InternalNiceSetSize@?$CMoArray@PAVModelSocket@@VNoCache@@@@AAEIIIPAVLAlloc@@@Z 0044c7d0 f i model.obj
 0001:0004b7d0       ?InternalNiceSetSize@?$CMoArray@PAVModelPiece@@VNoCache@@@@AAEIIIPAVLAlloc@@@Z 0044c7d0 f i model.obj
 0001:0004b7d0       ?InternalNiceSetSize@?$CMoArray@PAVModelNode@@VNoCache@@@@AAEIIIPAVLAlloc@@@Z 0044c7d0 f i model.obj
 0001:0004b880       ??1?$CMoArray@PAVWeightSet@@VNoCache@@@@QAE@XZ 0044c880 f i model.obj
 0001:0004b8b0       ?GenBegin@?$CMoArray@VAnimInfo@@VNoCache@@@@UBE?AVGenListPos@@XZ 0044c8b0 f i model.obj
 0001:0004b8b0       ?GenBegin@?$CMoArray@VObjectDrawer@@VDefaultCache@@@@UBE?AVGenListPos@@XZ 0044c8b0 f i LIB_D3DRender:screenglowmgr.obj
 0001:0004b8b0       ?GenBegin@?$CMoArray@PAVModelNode@@VNoCache@@@@UBE?AVGenListPos@@XZ 0044c8b0 f i model.obj
 0001:0004b8b0       ?GenBegin@?$CMoArray@EVDefaultCache@@@@UBE?AVGenListPos@@XZ 0044c8b0 f i load_pcx.obj
 0001:0004b8b0       ?GenBegin@?$CMoArray@PAVModelPiece@@VNoCache@@@@UBE?AVGenListPos@@XZ 0044c8b0 f i model.obj
 0001:0004b8b0       ?GenBegin@?$CMoArray@VAnimKeyFrame@@VNoCache@@@@UBE?AVGenListPos@@XZ 0044c8b0 f i model.obj
 0001:0004b8b0       ?GenBegin@?$CMoArray@VDGSample@@VDefaultCache@@@@UBE?AVGenListPos@@XZ 0044c8b0 f i debuggraphmgr.obj
 0001:0004b8b0       ?GenBegin@?$CMoArray@PAXVDefaultCache@@@@UBE?AVGenListPos@@XZ 0044c8b0 f i debuggraphmgr.obj
 0001:0004b8b0       ?GenBegin@?$CMoArray@PAVModelSocket@@VNoCache@@@@UBE?AVGenListPos@@XZ 0044c8b0 f i model.obj
 0001:0004b8b0       ?GenBegin@?$CMoArray@VSBank@@VDefaultCache@@@@UBE?AVGenListPos@@XZ 0044c8b0 f i Lib_StdLith:stringholder.obj
 0001:0004b8b0       ?GenBegin@?$CMoArray@VDGTracker@@VDefaultCache@@@@UBE?AVGenListPos@@XZ 0044c8b0 f i debuggraphmgr.obj
 0001:0004b8b0       ?GenBegin@?$CMoArray@MVDefaultCache@@@@UBE?AVGenListPos@@XZ 0044c8b0 f i model.obj
 0001:0004b8b0       ?GenBegin@?$CMoArray@PAVCBaseDriver@@VDefaultCache@@@@UBE?AVGenListPos@@XZ 0044c8b0 f i netmgr.obj
 0001:0004b8b0       ?GenBegin@?$CMoArray@UdefVert@CDefVertexLst@@VNoCache@@@@UBE?AVGenListPos@@XZ 0044c8b0 f i model.obj
 0001:0004b8b0       ?GenBegin@?$CMoArray@PAVCBaseConn@@VDefaultCache@@@@UBE?AVGenListPos@@XZ 0044c8b0 f i netmgr.obj
 0001:0004b8b0       ?GenBegin@?$CMoArray@VCUDPQuery@@VDefaultCache@@@@UBE?AVGenListPos@@XZ 0044c8b0 f i udpdriver.obj
 0001:0004b8b0       ?GenBegin@?$CMoArray@ULTRecord@@VDefaultCache@@@@UBE?AVGenListPos@@XZ 0044c8b0 f i servermgr.obj
 0001:0004b8b0       ?GenBegin@?$CMoArray@PAVWeightSet@@VNoCache@@@@UBE?AVGenListPos@@XZ 0044c8b0 f i model.obj
 0001:0004b8b0       ?GenBegin@?$CMoArray@IVDefaultCache@@@@UBE?AVGenListPos@@XZ 0044c8b0 f i LIB_D3DRender:d3d_surface.obj
 0001:0004b8c0       ?GenRemoveAt@?$CMoArray@PAVModelSocket@@VNoCache@@@@UAEXVGenListPos@@@Z 0044c8c0 f i model.obj
 0001:0004b8c0       ?GenRemoveAt@?$CMoArray@PAVWeightSet@@VNoCache@@@@UAEXVGenListPos@@@Z 0044c8c0 f i model.obj
 0001:0004b8c0       ?GenRemoveAt@?$CMoArray@PAVModelNode@@VNoCache@@@@UAEXVGenListPos@@@Z 0044c8c0 f i model.obj
 0001:0004b8c0       ?GenRemoveAt@?$CMoArray@PAVModelPiece@@VNoCache@@@@UAEXVGenListPos@@@Z 0044c8c0 f i model.obj
 0001:0004b8e0       ?GenAppendList@?$CMoArray@PAVModelPiece@@VNoCache@@@@UAEIABV?$GenList@PAVModelPiece@@@@@Z 0044c8e0 f i model.obj
 0001:0004b8e0       ?GenAppendList@?$CMoArray@PAVModelSocket@@VNoCache@@@@UAEIABV?$GenList@PAVModelSocket@@@@@Z 0044c8e0 f i model.obj
 0001:0004b8e0       ?GenAppendList@?$CMoArray@PAVWeightSet@@VNoCache@@@@UAEIABV?$GenList@PAVWeightSet@@@@@Z 0044c8e0 f i model.obj
 0001:0004b8e0       ?GenAppendList@?$CMoArray@PAVModelNode@@VNoCache@@@@UAEIABV?$GenList@PAVModelNode@@@@@Z 0044c8e0 f i model.obj
 0001:0004b9b0       ??1?$CMoArray@PAVModelSocket@@VNoCache@@@@QAE@XZ 0044c9b0 f i model.obj
 0001:0004b9e0       ?GenIsValid@?$CMoArray@VAnimKeyFrame@@VNoCache@@@@UBEIABVGenListPos@@@Z 0044c9e0 f i model.obj
 0001:0004b9e0       ?GenIsValid@?$CMoArray@PAVCBaseConn@@VDefaultCache@@@@UBEIABVGenListPos@@@Z 0044c9e0 f i netmgr.obj
 0001:0004b9e0       ?GenIsValid@?$CMoArray@EVDefaultCache@@@@UBEIABVGenListPos@@@Z 0044c9e0 f i load_pcx.obj
 0001:0004b9e0       ?GenIsValid@?$CMoArray@VObjectDrawer@@VDefaultCache@@@@UBEIABVGenListPos@@@Z 0044c9e0 f i LIB_D3DRender:screenglowmgr.obj
 0001:0004b9e0       ?GenIsValid@?$CMoArray@VCUDPQuery@@VDefaultCache@@@@UBEIABVGenListPos@@@Z 0044c9e0 f i udpdriver.obj
 0001:0004b9e0       ?GenIsValid@?$CMoArray@VDGTracker@@VDefaultCache@@@@UBEIABVGenListPos@@@Z 0044c9e0 f i debuggraphmgr.obj
 0001:0004b9e0       ?GenIsValid@?$CMoArray@VSBank@@VDefaultCache@@@@UBEIABVGenListPos@@@Z 0044c9e0 f i Lib_StdLith:stringholder.obj
 0001:0004b9e0       ?GenIsValid@?$CMoArray@VAnimInfo@@VNoCache@@@@UBEIABVGenListPos@@@Z 0044c9e0 f i model.obj
 0001:0004b9e0       ?GenIsValid@?$CMoArray@UdefVert@CDefVertexLst@@VNoCache@@@@UBEIABVGenListPos@@@Z 0044c9e0 f i model.obj
 0001:0004b9e0       ?GenIsValid@?$CMoArray@VDGSample@@VDefaultCache@@@@UBEIABVGenListPos@@@Z 0044c9e0 f i debuggraphmgr.obj
 0001:0004b9e0       ?GenIsValid@?$CMoArray@IVDefaultCache@@@@UBEIABVGenListPos@@@Z 0044c9e0 f i LIB_D3DRender:d3d_surface.obj
 0001:0004b9e0       ?GenIsValid@?$CMoArray@PAVModelSocket@@VNoCache@@@@UBEIABVGenListPos@@@Z 0044c9e0 f i model.obj
 0001:0004b9e0       ?GenIsValid@?$CMoArray@ULTRecord@@VDefaultCache@@@@UBEIABVGenListPos@@@Z 0044c9e0 f i servermgr.obj
 0001:0004b9e0       ?GenIsValid@?$CMoArray@PAVWeightSet@@VNoCache@@@@UBEIABVGenListPos@@@Z 0044c9e0 f i model.obj
 0001:0004b9e0       ?GenIsValid@?$CMoArray@PAXVDefaultCache@@@@UBEIABVGenListPos@@@Z 0044c9e0 f i debuggraphmgr.obj
 0001:0004b9e0       ?GenIsValid@?$CMoArray@MVDefaultCache@@@@UBEIABVGenListPos@@@Z 0044c9e0 f i model.obj
 0001:0004b9e0       ?GenIsValid@?$CMoArray@PAVModelPiece@@VNoCache@@@@UBEIABVGenListPos@@@Z 0044c9e0 f i model.obj
 0001:0004b9e0       ?GenIsValid@?$CMoArray@PAVModelNode@@VNoCache@@@@UBEIABVGenListPos@@@Z 0044c9e0 f i model.obj
 0001:0004b9e0       ?GenIsValid@?$CMoArray@PAVCBaseDriver@@VDefaultCache@@@@UBEIABVGenListPos@@@Z 0044c9e0 f i netmgr.obj
 0001:0004b9f0       ?erase@?$_Tree@V?$_Tset_traits@PAVModel@@U?$less@PAVModel@@@std@@V?$allocator@PAVModel@@@3@$0A@@std@@@std@@QAE?AViterator@12@V312@0@Z 0044c9f0 f i model.obj
 0001:0004bab0       ??$DeleteAndClearArray2@V?$CMoArray@PAVModelPiece@@VNoCache@@@@@@YAXAAV?$CMoArray@PAVModelPiece@@VNoCache@@@@PAVLAlloc@@@Z 0044cab0 f i model.obj
 0001:0004bb10       ??1CDefVertexLst@@QAE@XZ   0044cb10 f   model.obj
 0001:0004bb90       ??1ModelNode@@QAE@XZ       0044cb90 f   model.obj
 0001:0004bc10       ??1WeightSet@@QAE@XZ       0044cc10 f   model.obj
 0001:0004bc90       ?PrecalcNodeLists@Model@@QAE_N_N@Z 0044cc90 f   model.obj
 0001:0004bca0       ?AddChildModel@Model@@QAEPAVChildInfo@@PAV1@PBDPADI@Z 0044cca0 f   model.obj
 0001:0004be70       ?GenAppend@?$CMoArray@UdefVert@CDefVertexLst@@VNoCache@@@@UAEIAAUdefVert@CDefVertexLst@@@Z 0044ce70 f i model.obj
 0001:0004be90       ?Insert2@?$CMoArray@UdefVert@CDefVertexLst@@VNoCache@@@@QAEIIABUdefVert@CDefVertexLst@@PAVLAlloc@@@Z 0044ce90 f i model.obj
 0001:0004bfa0       ?GenAppend@?$CMoArray@VAnimKeyFrame@@VNoCache@@@@UAEIAAVAnimKeyFrame@@@Z 0044cfa0 f i model.obj
 0001:0004bfc0       ?Insert2@?$CMoArray@VAnimKeyFrame@@VNoCache@@@@QAEIIABVAnimKeyFrame@@PAVLAlloc@@@Z 0044cfc0 f i model.obj
 0001:0004c070       ?GenAppend@?$CMoArray@PAVWeightSet@@VNoCache@@@@UAEIAAPAVWeightSet@@@Z 0044d070 f i model.obj
 0001:0004c070       ?GenAppend@?$CMoArray@PAVModelNode@@VNoCache@@@@UAEIAAPAVModelNode@@@Z 0044d070 f i model.obj
 0001:0004c070       ?GenAppend@?$CMoArray@PAVModelSocket@@VNoCache@@@@UAEIAAPAVModelSocket@@@Z 0044d070 f i model.obj
 0001:0004c070       ?GenAppend@?$CMoArray@PAVModelPiece@@VNoCache@@@@UAEIAAPAVModelPiece@@@Z 0044d070 f i model.obj
 0001:0004c090       ?GenAppend@?$CMoArray@MVDefaultCache@@@@UAEIAAM@Z 0044d090 f i model.obj
 0001:0004c0b0       ?Insert2@?$CMoArray@MVDefaultCache@@@@QAEIIABMPAVLAlloc@@@Z 0044d0b0 f i model.obj
 0001:0004c220       ?Insert2@?$CMoArray@PAVModelNode@@VNoCache@@@@QAEIIABQAVModelNode@@PAVLAlloc@@@Z 0044d220 f i model.obj
 0001:0004c220       ?Insert2@?$CMoArray@PAVWeightSet@@VNoCache@@@@QAEIIABQAVWeightSet@@PAVLAlloc@@@Z 0044d220 f i model.obj
 0001:0004c220       ?Insert2@?$CMoArray@PAVModelPiece@@VNoCache@@@@QAEIIABQAVModelPiece@@PAVLAlloc@@@Z 0044d220 f i model.obj
 0001:0004c220       ?Insert2@?$CMoArray@PAVModelSocket@@VNoCache@@@@QAEIIABQAVModelSocket@@PAVLAlloc@@@Z 0044d220 f i model.obj
 0001:0004c2d0       ??1?$CMoArray@VAnimInfo@@VNoCache@@@@QAE@XZ 0044d2d0 f i model.obj
 0001:0004c300       ?GenGetNext@?$CMoArray@VAnimInfo@@VNoCache@@@@UBE?AVAnimInfo@@AAVGenListPos@@@Z 0044d300 f i model.obj
 0001:0004c330       ?GenGetAt@?$CMoArray@VAnimInfo@@VNoCache@@@@UBE?AVAnimInfo@@AAVGenListPos@@@Z 0044d330 f i model.obj
 0001:0004c360       ?GenAppendList@?$CMoArray@VAnimInfo@@VNoCache@@@@UAEIABV?$GenList@VAnimInfo@@@@@Z 0044d360 f i model.obj
 0001:0004c470       ?GenRemoveAt@?$CMoArray@VAnimInfo@@VNoCache@@@@UAEXVGenListPos@@@Z 0044d470 f i model.obj
 0001:0004c490       ?Remove2@?$CMoArray@VAnimInfo@@VNoCache@@@@QAEXIPAVLAlloc@@@Z 0044d490 f i model.obj
 0001:0004c5f0       ?GenCopyList@?$CMoArray@VAnimInfo@@VNoCache@@@@UAEIABV?$GenList@VAnimInfo@@@@@Z 0044d5f0 f i model.obj
 0001:0004c700       ??0CDefVertexLst@@QAE@XZ   0044d700 f   model.obj
 0001:0004c720       ?Term@AnimNode@@QAEXXZ     0044d720 f   model.obj
 0001:0004c760       ??0ModelAnim@@QAE@PAVModel@@@Z 0044d760 f   model.obj
 0001:0004c790       ??0ModelNode@@QAE@PAVModel@@@Z 0044d790 f   model.obj
 0001:0004c7c0       ??0WeightSet@@QAE@PAVModel@@@Z 0044d7c0 f   model.obj
 0001:0004c7f0       ??1?$set@PAVModel@@U?$less@PAVModel@@@std@@V?$allocator@PAVModel@@@3@@std@@QAE@XZ 0044d7f0 f i model.obj
 0001:0004c820       ??1CModelMgr@@QAE@XZ       0044d820 f   model.obj
 0001:0004c8d0       ?GenAppend@?$CMoArray@VAnimInfo@@VNoCache@@@@UAEIAAVAnimInfo@@@Z 0044d8d0 f i model.obj
 0001:0004c8f0       ?Insert2@?$CMoArray@VAnimInfo@@VNoCache@@@@QAEIIABVAnimInfo@@PAVLAlloc@@@Z 0044d8f0 f i model.obj
 0001:0004cb70       ??$DeleteAndClearArray2@V?$CMoArray@PAVModelNode@@VNoCache@@@@@@YAXAAV?$CMoArray@PAVModelNode@@VNoCache@@@@PAVLAlloc@@@Z 0044db70 f i model.obj
 0001:0004cbd0       ??0Model@@QAE@PAVLAlloc@@0@Z 0044dbd0 f   model.obj
 0001:0004ce00       ??0CModelMgr@@QAE@XZ       0044de00 f   model.obj
 0001:0004ce30       ??$DeleteAndClearArray2@V?$CMoArray@PAVWeightSet@@VNoCache@@@@@@YAXAAV?$CMoArray@PAVWeightSet@@VNoCache@@@@PAVLAlloc@@@Z 0044de30 f i model.obj
 0001:0004ce90       ??$BaseDelete@VAnimNode@@@@YAXPAVLAlloc@@PAVAnimNode@@I@Z 0044de90 f i model.obj
 0001:0004cf00       ?Term@ModelAnim@@QAEXXZ    0044df00 f   model.obj
 0001:0004cf50       ??1ModelAnim@@QAE@XZ       0044df50 f   model.obj
 0001:0004cff0       ?TermAnims@Model@@QAEXXZ   0044dff0 f   model.obj
 0001:0004d060       ?Term@Model@@QAEXXZ        0044e060 f   model.obj
 0001:0004d170       ??1Model@@QAE@XZ           0044e170 f   model.obj
 0001:0004d360       ?UncacheServerModels@CModelMgr@@QAEXXZ 0044e360 f   model.obj
 0001:0004d3f0       ?UncacheClientModels@CModelMgr@@QAEXXZ 0044e3f0 f   model.obj
 0001:0004d470       ?GetLOD@ModelPiece@@QAEPAVCDIModelDrawable@@I@Z 0044e470 f i model_load.obj
 0001:0004d490       ?SetupPosChannel@AnimNode@@AAEXPBVIAnimPosChannel@@AAVILTStream@@IAAPAE@Z 0044e490 f   model_load.obj
 0001:0004d4e0       ?SetupQuatChannel@AnimNode@@AAEXPBVIAnimQuatChannel@@AAVILTStream@@IAAPAE@Z 0044e4e0 f   model_load.obj
 0001:0004d530       ?LoadStringA@Model@@QAE_NAAVILTStream@@AAPBD@Z 0044e530 f   model_load.obj
 0001:0004d590       ??$BaseNew@VAnimNode@@@@YAPAVAnimNode@@PAVLAlloc@@PAV0@I_N@Z 0044e590 f i model_load.obj
 0001:0004d630       ??$?5I@ILTStream@@QAEAAV0@AAI@Z 0044e630 f i game_serialize.obj
 0001:0004d630       ??$?5M@ILTStream@@QAEAAV0@AAM@Z 0044e630 f i model_load.obj
 0001:0004d650       ??$BaseNew_1P@VModelNode@@VModel@@@@YAPAVModelNode@@PAVLAlloc@@PAV0@IPAVModel@@@Z 0044e650 f i model_load.obj
 0001:0004d6f0       ??$BaseNew@VModelSocket@@@@YAPAVModelSocket@@PAVLAlloc@@PAV0@I_N@Z 0044e6f0 f i model_load.obj
 0001:0004d790       ??$BaseNew_1P@VWeightSet@@VModel@@@@YAPAVWeightSet@@PAVLAlloc@@PAV0@IPAVModel@@@Z 0044e790 f i model_load.obj
 0001:0004d830       ??0?$CBuffer@$0BAA@@@QAA@PBDZZ 0044e830 f i model_load.obj
 0001:0004d860       ??$BaseNew_1P@VModelPiece@@VModel@@@@YAPAVModelPiece@@PAVLAlloc@@PAV0@IPAVModel@@@Z 0044e860 f i model_load.obj
 0001:0004d900       ??$BaseNew_1P@VModelAnim@@VModel@@@@YAPAVModelAnim@@PAVLAlloc@@PAV0@IPAVModel@@@Z 0044e900 f i model_load.obj
 0001:0004d9d0       ?Load@AnimNode@@QAE_NAAVILTStream@@PAVModelAnim@@IAAPAE@Z 0044e9d0 f   model_load.obj
 0001:0004dd30       ?Load@ModelPiece@@QAE_NAAVILTStream@@AAULTB_Header@@I@Z 0044ed30 f   model_load.obj
 0001:0004df30       ?LoadAnimBindings@Model@@QAE_NPAVModelLoadRequest@@AAVILTStream@@_N@Z 0044ef30 f   model_load.obj
 0001:0004e090       ?LoadAnimNodesRecurse@ModelAnim@@AAE_NAAVILTStream@@IPBVModelNode@@AAPAE@Z 0044f090 f   model_load.obj
 0001:0004e120       ?Load@ModelAnim@@QAE_NAAVILTStream@@AAPAE@Z 0044f120 f   model_load.obj
 0001:0004e260       ?Load@AnimInfo@@QAE_NAAVILTStream@@AAPAE@Z 0044f260 f   model_load.obj
 0001:0004e290       ?Load@WeightSet@@QAE_NAAVILTStream@@@Z 0044f290 f   model_load.obj
 0001:0004e310       ?Load@ModelNode@@QAE_NAAVILTStream@@ABULTMatrix@@@Z 0044f310 f   model_load.obj
 0001:0004e510       ?LoadSockets@Model@@QAE_NAAVILTStream@@@Z 0044f510 f   model_load.obj
 0001:0004e600       ?LoadWeightSets@Model@@QAE_NAAVILTStream@@@Z 0044f600 f   model_load.obj
 0001:0004e6c0       ?Load@Model@@QAEIPAVModelLoadRequest@@PBD@Z 0044f6c0 f   model_load.obj
 0001:0004ef10       ?CalcAllocationSize@ModelAllocations@@QAEIXZ 0044ff10 f   modelallocations.obj
 0001:0004ef90       ??0ModelAllocations@@QAE@XZ 0044ff90 f   modelallocations.obj
 0001:0004efd0       ?Load@ModelAllocations@@QAE_NAAVILTStream@@I@Z 0044ffd0 f   modelallocations.obj
 0001:0004f0b0       ?CalcMotion@@YAXPAUMotionInfo@@PAVLTObject@@AAU?$TVector3@M@@22_NM@Z 004500b0 f   motion.obj
 0001:0004f730       ?RetransformWorldModel@@YAXPAVWorldModelInstance@@@Z 00450730 f   moveobject.obj
 0001:0004f790       ?IsSolid@@YAIII@Z          00450790 f   moveobject.obj
 0001:0004f7c0       ?SetObjectBoundingBox@@YAXPAVLTObject@@I@Z 004507c0 f i moveobject.obj
 0001:0004f890       ?IsPhysical@@YAIII@Z       00450890 f i moveobject.obj
 0001:0004f8d0       ?ShouldMoveObject@CPlayerMover@@SA_NPBVLTObject@@_N@Z 004508d0 f i moveobject.obj
 0001:0004fa60       ?DoNonsolidCollision@@YAXPAVMoveAbstract@@PAVLTObject@@1@Z 00450a60 f   moveobject.obj
 0001:0004fb10       ?GetMovementBox@@YAXPAU?$TVector3@M@@0000@Z 00450b10 f i moveobject.obj
 0001:0004fc50       ?DetachObjectStanding@@YAXPAVLTObject@@@Z 00450c50 f   moveobject.obj
 0001:0004fc90       ?DetachObjectsStandingOn@@YAXPAVLTObject@@@Z 00450c90 f   moveobject.obj
 0001:0004fd10       ?SetObjectStanding@@YAXPAVLTObject@@0PBVNode@@@Z 00450d10 f   moveobject.obj
 0001:000505e0       ?DoSolidBBoxCollision@@YAIPAVMoveState@@PAVLTObject@@AAU?$TVector3@M@@2@Z 004515e0 f i moveobject.obj
 0001:00050a80       ?CheckIntersectOnMovement@@YAIPAVMoveState@@PAVLTObject@@@Z 00451a80 f i moveobject.obj
 0001:00051250       ?MaybeCollide@@YAIPAVMoveState@@PAVLTObject@@@Z 00452250 f i moveobject.obj
 0001:00051680       ?SetupWorldModelDims@@YAXPAVWorldModelInstance@@PAULTMatrix@@@Z 00452680 f   moveobject.obj
 0001:00051910       ?InitialWorldModelRotate@@YAXPAVWorldModelInstance@@@Z 00452910 f   moveobject.obj
 0001:00051960       ?MoveObject@@YAXPAVMoveState@@U?$TVector3@M@@I@Z 00452960 f   moveobject.obj
 0001:000523f0       ?ChangeObjectDimensions@@YAIPAVMoveState@@AAU?$TVector3@M@@II@Z 004533f0 f   moveobject.obj
 0001:00052740       ?RotateWorldModel@@YAXPAVMoveState@@ABULTRotation@@I@Z 00453740 f   moveobject.obj
 0001:00052d00       ?ShouldCollideWithObject@CPlayerMover@@IBE_NPBVLTObject@@@Z 00453d00 f   moveplayer.obj
 0001:00052d70       ?FindIntersectingObjects_Callback@CPlayerMover@@KAXPAVWorldTreeObj@@PAX@Z 00453d70 f   moveplayer.obj
 0001:00052d90       ?_Xlen@?$deque@PAVNode@@V?$allocator@PAVNode@@@std@@@std@@IBEXXZ 00453d90 f i moveplayer.obj
 0001:00052e10       ??0LTPlane@@QAE@ABU?$TVector3@M@@0@Z 00453e10 f i moveplayer.obj
 0001:00052e50       ?ChangeDims@CPlayerMover@@IAEXABU?$TVector3@M@@@Z 00453e50 f   moveplayer.obj
 0001:00052ee0       ?GetPlaneProjection@CPlayerMover@@IBEMABU?$TVector3@M@@@Z 00453ee0 f   moveplayer.obj
 0001:00052f30       ?GetPlaneSide@CPlayerMover@@IBE?AW4PolySide@@ABULTPlane@@ABU?$TVector3@M@@PAM@Z 00453f30 f   moveplayer.obj
 0001:00052fd0       ?FindIntersectingObjects@CPlayerMover@@IBEXABU?$TVector3@M@@0PAPAVLTObject@@PAII@Z 00453fd0 f   moveplayer.obj
 0001:000530f0       ??0CPlayerMover@@QAE@ABVMoveState@@I@Z 004540f0 f   moveplayer.obj
 0001:00053170       ?CalculateLineCircleIntersect@CPlayerMover@@IBEXABU?$TVector3@M@@00PAUSCollideResult@1@@Z 00454170 f   moveplayer.obj
 0001:00053400       ?CollideWithAABB_GetCornerIntersect@CPlayerMover@@IBEXABU?$TVector3@M@@000PAUSCollideResult@1@@Z 00454400 f   moveplayer.obj
 0001:000534b0       ?CollideWithAABB@CPlayerMover@@IBEXABU?$TVector3@M@@000PAUSCollideResult@1@@Z 004544b0 f   moveplayer.obj
 0001:000539a0       ?_Growmap@?$deque@PAVNode@@V?$allocator@PAVNode@@@std@@@std@@IAEXI@Z 004549a0 f i moveplayer.obj
 0001:00053b00       ?CalculateLineCylinderIntersect@CPlayerMover@@IBEXABU?$TVector3@M@@M00PAUSCollideResult@1@@Z 00454b00 f   moveplayer.obj
 0001:00053d20       ?CWWM_Poly_CalcEdgeIntersect@CPlayerMover@@IBE_NABULTPlane@@ABU?$TVector3@M@@111PAMPAU2@@Z 00454d20 f   moveplayer.obj
 0001:00054ff0       ?CollideWithWorldModel_Poly@CPlayerMover@@IBEXPBVWorldPoly@@ABU?$TVector3@M@@1MPAUSCollideResult@1@@Z 00455ff0 f   moveplayer.obj
 0001:000556b0       ??1?$stack@PAVCD3D_RenderBlock@@V?$deque@PAVCD3D_RenderBlock@@V?$allocator@PAVCD3D_RenderBlock@@@std@@@std@@@std@@QAE@XZ 004566b0 f i LIB_D3DRender:d3d_renderworld.obj
 0001:000556b0       ??1?$stack@PAVNode@@V?$deque@PAVNode@@V?$allocator@PAVNode@@@std@@@std@@@std@@QAE@XZ 004566b0 f i moveplayer.obj
 0001:000556b0       ??1?$deque@PAVCBaseConn@@V?$allocator@PAVCBaseConn@@@std@@@std@@QAE@XZ 004566b0 f i netmgr.obj
 0001:000556b0       ??1?$deque@UCDisconnectRequest@CUDPDriver@@V?$allocator@UCDisconnectRequest@CUDPDriver@@@std@@@std@@QAE@XZ 004566b0 f i udpdriver.obj
 0001:000556b0       ??1?$deque@UCConnectRequest@CUDPDriver@@V?$allocator@UCConnectRequest@CUDPDriver@@@std@@@std@@QAE@XZ 004566b0 f i udpdriver.obj
 0001:000556c0       ?push_back@?$deque@PAVNode@@V?$allocator@PAVNode@@@std@@@std@@QAEXABQAVNode@@@Z 004566c0 f i moveplayer.obj
 0001:00055740       ?CollideWithWorldModel@CPlayerMover@@IBEXPAVLTObject@@ABU?$TVector3@M@@1PAUSCollideResult@1@@Z 00456740 f   moveplayer.obj
 0001:00055a30       ?CollideWithObject@CPlayerMover@@IBEXPAVLTObject@@ABU?$TVector3@M@@1PAUSCollideResult@1@@Z 00456a30 f   moveplayer.obj
 0001:00055ae0       ?Collide@CPlayerMover@@IBEXABU?$TVector3@M@@0PAUSCollideResult@1@@Z 00456ae0 f   moveplayer.obj
 0001:00055e00       ?Slide@CPlayerMover@@IBE_NABU?$TVector3@M@@0PBU2@PAU2@PA_N@Z 00456e00 f   moveplayer.obj
 0001:00056410       ?StairStep@CPlayerMover@@IBEXABU?$TVector3@M@@0PAU2@@Z 00457410 f   moveplayer.obj
 0001:00056910       ?SetStandingOn@CPlayerMover@@IBEXABU?$TVector3@M@@0@Z 00457910 f   moveplayer.obj
 0001:00056b10       ?TouchObjects@CPlayerMover@@IBEXABU?$TVector3@M@@0@Z 00457b10 f   moveplayer.obj
 0001:00056da0       ?MoveTo@CPlayerMover@@QAEXABU?$TVector3@M@@PAU2@@Z 00457da0 f   moveplayer.obj
 0001:00056fe0       ?music_TermDriver@@YAXXZ   00457fe0 f   musicdriver.obj
 0001:00057020       ?music_ConsolePrint@@YAXPBDZZ 00458020 f   musicdriver.obj
 0001:00057070       ?music_InitDriver@@YA?AW4musicdriver_status@@PADPAUSMusicMgr@@@Z 00458070 f   musicdriver.obj
 0001:00057120       ?FreeServiceList@CNetMgr@@QAEIPAVNetService@@@Z 00458120 f   netmgr.obj
 0001:00057150       ?GetSessionList@CNetMgr@@QAEIAAPAVNetSession@@PBD@Z 00458150 f   netmgr.obj
 0001:00057170       ?FreeSessionList@CNetMgr@@QAEIPAVNetSession@@@Z 00458170 f   netmgr.obj
 0001:000571a0       ?GetSessionName@CNetMgr@@QAEIPADI@Z 004581a0 f   netmgr.obj
 0001:000571d0       ?SetSessionName@CNetMgr@@QAEIPBD@Z 004581d0 f   netmgr.obj
 0001:000571f0       ?GetLocalIpAddress@CNetMgr@@QAEIPADIAAG@Z 004581f0 f   netmgr.obj
 0001:00057230       ?GetMaxConnections@CNetMgr@@QAEIAAI@Z 00458230 f   netmgr.obj
 0001:00057250       ?StartGettingPackets@CNetMgr@@QAEXXZ 00458250 f   netmgr.obj
 0001:00057260       ?EndGettingPackets@CNetMgr@@QAEXXZ 00458260 f   netmgr.obj
 0001:00057270       ?IncSendCounter@CNetMgr@@QAEXPAVCBaseConn@@I@Z 00458270 f   netmgr.obj
 0001:000572c0       ?_Xlen@?$deque@PAVCBaseConn@@V?$allocator@PAVCBaseConn@@@std@@@std@@IBEXXZ 004582c0 f i netmgr.obj
 0001:00057340       ??1?$ObjectBank@VLatentPacket@@VNullCS@@@@UAE@XZ 00458340 f i netmgr.obj
 0001:00057390       ?Term@?$ObjectBank@VLatentPacket@@VNullCS@@@@UAEXXZ 00458390 f i netmgr.obj
 0001:000573b0       ??_G?$ObjectBank@VLatentPacket@@VNullCS@@@@UAEPAXI@Z 004583b0 f i netmgr.obj
 0001:000573b0       ??_E?$ObjectBank@VLatentPacket@@VNullCS@@@@UAEPAXI@Z 004583b0 f i netmgr.obj
 0001:000573d0       ??1LatentPacket@@QAE@XZ    004583d0 f i netmgr.obj
 0001:000573f0       ?SelectService@CNetMgr@@QAEIPAUHNETSERVICE_t@@@Z 004583f0 f   netmgr.obj
 0001:00057460       ?NetDebugOut2@CNetMgr@@QAAXPAVCBaseConn@@HPADZZ 00458460 f   netmgr.obj
 0001:000574f0       ??1?$CGLinkedList@PAVLatentPacket@@@@QAE@XZ 004584f0 f i netmgr.obj
 0001:00057500       ?GenGetNext@?$CGLinkedList@PAVCisSurface@@@@UBEPAVCisSurface@@AAVGenListPos@@@Z 00458500 f i winclientde_impl.obj
 0001:00057500       ?GenGetNext@?$CGLinkedList@PAVLTFont@@@@UBEPAVLTFont@@AAVGenListPos@@@Z 00458500 f i text_mgr.obj
 0001:00057500       ?GenGetNext@?$CGLinkedList@PAVLatentPacket@@@@UBEPAVLatentPacket@@AAVGenListPos@@@Z 00458500 f i netmgr.obj
 0001:00057500       ?GenGetNext@?$CGLinkedList@PAVCConTextLine@@@@UBEPAVCConTextLine@@AAVGenListPos@@@Z 00458500 f i winconsole_impl.obj
 0001:00057500       ?GenGetNext@?$CGLinkedList@PAVTriggerObject@@@@UBEPAVTriggerObject@@AAVGenListPos@@@Z 00458500 f i input.obj
 0001:00057530       ?GenGetAt@?$CGLinkedList@PAVCConTextLine@@@@UBEPAVCConTextLine@@AAVGenListPos@@@Z 00458530 f i winconsole_impl.obj
 0001:00057530       ?GenGetAt@?$CGLinkedList@PAVLatentPacket@@@@UBEPAVLatentPacket@@AAVGenListPos@@@Z 00458530 f i netmgr.obj
 0001:00057530       ?GenGetAt@?$CGLinkedList@PAVTriggerObject@@@@UBEPAVTriggerObject@@AAVGenListPos@@@Z 00458530 f i input.obj
 0001:00057530       ?GenGetAt@?$CGLinkedList@PAVLTFont@@@@UBEPAVLTFont@@AAVGenListPos@@@Z 00458530 f i text_mgr.obj
 0001:00057530       ?GenGetAt@?$CGLinkedList@PAVCisSurface@@@@UBEPAVCisSurface@@AAVGenListPos@@@Z 00458530 f i winclientde_impl.obj
 0001:00057540       ?GenGetSize@?$CGLinkedList@PAVLatentPacket@@@@UBEIXZ 00458540 f i netmgr.obj
 0001:00057540       ?GenGetSize@?$CGLinkedList@PAVLTFont@@@@UBEIXZ 00458540 f i text_mgr.obj
 0001:00057540       ?GetRefCount@CRenderStyle@@UAEIXZ 00458540 f i LIB_D3DRender:d3d_renderstyle.obj
 0001:00057540       ?GenGetSize@?$CGLinkedList@PAVCConTextLine@@@@UBEIXZ 00458540 f i winconsole_impl.obj
 0001:00057540       ?GetData@CLTCursorInst@@UAEPAXXZ 00458540 f i lt_cursor_impl.obj
 0001:00057540       ?GetTail@CUILinkList@@QAEPAVCUIListNode@@XZ 00458540 f i Lib_UI:cuilinklist.obj
 0001:00057540       ?GenGetSize@?$CGLinkedList@PAVTriggerObject@@@@UBEIXZ 00458540 f i input.obj
 0001:00057540       ?GetFrameCode@ObjectMgr@@UAEIXZ 00458540 f i objectmgr.obj
 0001:00057540       ?GenGetSize@?$CGLinkedList@PAVCisSurface@@@@UBEIXZ 00458540 f i winclientde_impl.obj
 0001:00057540       ?GetRefCount@ILTRefCount@@UBEIXZ 00458540 f i game_serialize.obj
 0001:00057550       ??0?$ObjectBank@VLatentPacket@@VNullCS@@@@QAE@XZ 00458550 f i netmgr.obj
 0001:000575a0       ??$find@Viterator@?$deque@PAVCBaseConn@@V?$allocator@PAVCBaseConn@@@std@@@std@@PAVCBaseConn@@@std@@YA?AViterator@?$deque@PAVCBaseConn@@V?$allocator@PAVCBaseConn@@@std@@@0@V120@0ABQAVCBaseConn@@@Z 004585a0 f i netmgr.obj
 0001:00057600       ??$_Copy_backward_opt@Viterator@?$deque@PAVCBaseConn@@V?$allocator@PAVCBaseConn@@@std@@@std@@V123@@std@@YA?AViterator@?$deque@PAVCBaseConn@@V?$allocator@PAVCBaseConn@@@std@@@0@V120@00U_Nonscalar_ptr_iterator_tag@0@@Z 00458600 f i netmgr.obj
 0001:00057690       ??$_Copy_opt@Viterator@?$deque@PAVCBaseConn@@V?$allocator@PAVCBaseConn@@@std@@@std@@V123@@std@@YA?AViterator@?$deque@PAVCBaseConn@@V?$allocator@PAVCBaseConn@@@std@@@0@V120@00U_Nonscalar_ptr_iterator_tag@0@@Z 00458690 f i netmgr.obj
 0001:00057720       ??0CBaseConn@@QAE@XZ       00458720 f   netmgr.obj
 0001:00057760       ?JoinLobbyLaunchSession@CBaseDriver@@UAE_NXZ 00458760 f i localdriver.obj
 0001:00057760       ?PrevItem@CConIterator@@MAE_NXZ 00458760 f i consolecommands.obj
 0001:00057760       ?IsLobbyLaunched@CBaseDriver@@UAE_NXZ 00458760 f i localdriver.obj
 0001:00057760       ?Begin@CConIterator@@MAE_NXZ 00458760 f i consolecommands.obj
 0001:00057760       ?NextItem@CConIterator@@MAE_NXZ 00458760 f i consolecommands.obj
 0001:00057760       ?IsInTrouble@CBaseConn@@UAE_NXZ 00458760 f i netmgr.obj
 0001:00057760       ?End@CConIterator@@MAE_NXZ 00458760 f i consolecommands.obj
 0001:00057770       ?GetAvailableBandwidth@CBaseConn@@UBEHM@Z 00458770 f i netmgr.obj
 0001:00057780       ?GetBandwidth@CBaseConn@@UBEIXZ 00458780 f i netmgr.obj
 0001:00057790       ?GetPacketLoss@CBaseConn@@UBEMXZ 00458790 f i netmgr.obj
 0001:00057790       ?GetPing@CBaseConn@@UAEMXZ 00458790 f i netmgr.obj
 0001:000577a0       ?GetServiceList@CNetMgr@@QAEIAAPAVNetService@@@Z 004587a0 f   netmgr.obj
 0001:000577e0       ?Disconnect@CNetMgr@@QAEXPAVCBaseConn@@W4EDisconnectReason@@@Z 004587e0 f   netmgr.obj
 0001:00057810       ?SetAppGuid@CNetMgr@@QAEXPATLTGUID@@@Z 00458810 f   netmgr.obj
 0001:00057870       ?GetDriver@CNetMgr@@QAEPAVCBaseDriver@@PBD@Z 00458870 f   netmgr.obj
 0001:000578c0       ?_Tidy@?$deque@PAVCD3D_RenderBlock@@V?$allocator@PAVCD3D_RenderBlock@@@std@@@std@@IAEXXZ 004588c0 f i LIB_D3DRender:d3d_renderworld.obj
 0001:000578c0       ?_Tidy@?$deque@PAVCBaseConn@@V?$allocator@PAVCBaseConn@@@std@@@std@@IAEXXZ 004588c0 f i netmgr.obj
 0001:000578c0       ?_Tidy@?$deque@UCConnectRequest@CUDPDriver@@V?$allocator@UCConnectRequest@CUDPDriver@@@std@@@std@@IAEXXZ 004588c0 f i udpdriver.obj
 0001:000578c0       ?_Tidy@?$deque@UCDisconnectRequest@CUDPDriver@@V?$allocator@UCDisconnectRequest@CUDPDriver@@@std@@@std@@IAEXXZ 004588c0 f i udpdriver.obj
 0001:000578c0       ?_Tidy@?$deque@PAVNode@@V?$allocator@PAVNode@@@std@@@std@@IAEXXZ 004588c0 f i moveplayer.obj
 0001:00057930       ??$GDeleteAndRemoveElementsOB@PAVLatentPacket@@V?$ObjectBank@VLatentPacket@@VNullCS@@@@@@YAXAAV?$CGLinkedList@PAVLatentPacket@@@@AAV?$ObjectBank@VLatentPacket@@VNullCS@@@@@Z 00458930 f i netmgr.obj
 0001:00057980       ?Remove2@?$CMoArray@PAVCBaseConn@@VDefaultCache@@@@QAEXIPAVLAlloc@@@Z 00458980 f i netmgr.obj
 0001:00057980       ?Remove2@?$CMoArray@IVDefaultCache@@@@QAEXIPAVLAlloc@@@Z 00458980 f i LIB_D3DRender:d3d_surface.obj
 0001:00057980       ?Remove2@?$CMoArray@PAVCBaseDriver@@VDefaultCache@@@@QAEXIPAVLAlloc@@@Z 00458980 f i netmgr.obj
 0001:00057980       ?Remove2@?$CMoArray@PAXVDefaultCache@@@@QAEXIPAVLAlloc@@@Z 00458980 f i debuggraphmgr.obj
 0001:00057a80       ?Peekuint8@CPacket_Read@@QBEEXZ 00458a80 f i netmgr.obj
 0001:00057b10       ?ParsePacket@@YAXABVCPacket_Read@@_NPADIE@Z 00458b10 f   netmgr.obj
 0001:00058b00       ?ParseMsg@@YAXABVCPacket_Read@@IIPAVCBaseConn@@@Z 00459b00 f   netmgr.obj
 0001:00058bc0       ??1CBaseConn@@QAE@XZ       00459bc0 f   netmgr.obj
 0001:00058c40       ?Init@CNetMgr@@QAE_NPAD@Z  00459c40 f   netmgr.obj
 0001:00058ce0       ?ReallySendPacket@CNetMgr@@IAE_NABVCPacket_Read@@PAVCBaseConn@@I@Z 00459ce0 f   netmgr.obj
 0001:00058e40       ?FreeVoid@?$ObjectBank@VLatentPacket@@VNullCS@@@@UAEXPAX@Z 00459e40 f i netmgr.obj
 0001:00058e60       ?erase@?$deque@PAVCBaseConn@@V?$allocator@PAVCBaseConn@@@std@@@std@@QAE?AViterator@12@V312@0@Z 00459e60 f i netmgr.obj
 0001:00058f50       ?_Growmap@?$deque@PAVCBaseConn@@V?$allocator@PAVCBaseConn@@@std@@@std@@IAEXI@Z 00459f50 f i netmgr.obj
 0001:000590b0       ?Update@CNetMgr@@QAEXPADM_N@Z 0045a0b0 f   netmgr.obj
 0001:00059310       ?RemoveDriver@CNetMgr@@QAEXPAVCBaseDriver@@@Z 0045a310 f   netmgr.obj
 0001:00059380       ?GetPacket@CNetMgr@@QAE_NEPAVCPacket_Read@@PAPAVCBaseConn@@@Z 0045a380 f   netmgr.obj
 0001:00059660       ??1?$CMoArray@PAVCBaseConn@@VDefaultCache@@@@QAE@XZ 0045a660 f i netmgr.obj
 0001:00059690       ??1?$CMoArray@PAVCBaseDriver@@VDefaultCache@@@@QAE@XZ 0045a690 f i netmgr.obj
 0001:000596c0       ?GenAppend@?$CMoArray@PAVCBaseConn@@VDefaultCache@@@@UAEIAAPAVCBaseConn@@@Z 0045a6c0 f i netmgr.obj
 0001:000596c0       ?GenAppend@?$CMoArray@IVDefaultCache@@@@UAEIAAI@Z 0045a6c0 f i LIB_D3DRender:d3d_surface.obj
 0001:000596c0       ?GenAppend@?$CMoArray@PAVCBaseDriver@@VDefaultCache@@@@UAEIAAPAVCBaseDriver@@@Z 0045a6c0 f i netmgr.obj
 0001:000596e0       ?GenRemoveAt@?$CMoArray@PAVCBaseDriver@@VDefaultCache@@@@UAEXVGenListPos@@@Z 0045a6e0 f i netmgr.obj
 0001:000596e0       ?GenRemoveAt@?$CMoArray@PAVCBaseConn@@VDefaultCache@@@@UAEXVGenListPos@@@Z 0045a6e0 f i netmgr.obj
 0001:000596e0       ?GenRemoveAt@?$CMoArray@PAXVDefaultCache@@@@UAEXVGenListPos@@@Z 0045a6e0 f i debuggraphmgr.obj
 0001:000596e0       ?GenRemoveAt@?$CMoArray@IVDefaultCache@@@@UAEXVGenListPos@@@Z 0045a6e0 f i LIB_D3DRender:d3d_surface.obj
 0001:00059700       ?GenAppendList@?$CMoArray@IVDefaultCache@@@@UAEIABV?$GenList@I@@@Z 0045a700 f i LIB_D3DRender:d3d_surface.obj
 0001:00059700       ?GenAppendList@?$CMoArray@PAVCBaseDriver@@VDefaultCache@@@@UAEIABV?$GenList@PAVCBaseDriver@@@@@Z 0045a700 f i netmgr.obj
 0001:00059700       ?GenAppendList@?$CMoArray@PAVCBaseConn@@VDefaultCache@@@@UAEIABV?$GenList@PAVCBaseConn@@@@@Z 0045a700 f i netmgr.obj
 0001:00059700       ?GenAppendList@?$CMoArray@PAXVDefaultCache@@@@UAEIABV?$GenList@PAX@@@Z 0045a700 f i debuggraphmgr.obj
 0001:000597d0       ?push_back@?$deque@PAVCBaseConn@@V?$allocator@PAVCBaseConn@@@std@@@std@@QAEXABQAVCBaseConn@@@Z 0045a7d0 f i netmgr.obj
 0001:00059850       ?Allocate@?$ObjectBank@VLatentPacket@@VNullCS@@@@QAEPAVLatentPacket@@XZ 0045a850 f i netmgr.obj
 0001:000598d0       ?AddDriver@CNetMgr@@QAEPAVCBaseDriver@@PBD@Z 0045a8d0 f   netmgr.obj
 0001:000599e0       ?LagOrSend@CNetMgr@@QAE_NABVCPacket_Read@@PAVCBaseConn@@I@Z 0045a9e0 f   netmgr.obj
 0001:00059a90       ?NewConnectionNotify@CNetMgr@@QAE_NPAVCBaseConn@@@Z 0045aa90 f   netmgr.obj
 0001:00059b30       ?DisconnectNotify@CNetMgr@@QAEXPAVCBaseConn@@W4EDisconnectReason@@@Z 0045ab30 f   netmgr.obj
 0001:00059c10       ?AllocVoid@?$ObjectBank@VLatentPacket@@VNullCS@@@@UAEPAXXZ 0045ac10 f i netmgr.obj
 0001:00059c20       ??0CNetMgr@@QAE@XZ         0045ac20 f   netmgr.obj
 0001:00059cd0       ?Term@CNetMgr@@QAEXXZ      0045acd0 f   netmgr.obj
 0001:00059d20       ?InitDrivers@CNetMgr@@QAEIXZ 0045ad20 f   netmgr.obj
 0001:00059d60       ?SetNetHandler@CNetMgr@@QAEXPAVCNetHandler@@@Z 0045ad60 f   netmgr.obj
 0001:00059e00       ?SendPacket@CNetMgr@@QAE_NABVCPacket_Read@@PAVCBaseConn@@I@Z 0045ae00 f   netmgr.obj
 0001:00059ee0       ??1CNetMgr@@QAE@XZ         0045aee0 f   netmgr.obj
 0001:00059f90       ?RemoveLeech@Nexus@@QAEXPAVLeech@@@Z 0045af90 f   nexus.obj
 0001:00059fc0       ?quat_Mul@@YAXPAMPBM1@Z    0045afc0 f i objectmgr.obj
 0001:0005a050       ?quat_RotVec@@YAXPAMPBM1@Z 0045b050 f i objectmgr.obj
 0001:0005a130       ?Apply3x3@LTMatrix@@QBEXABU?$TVector3@M@@AAU2@@Z 0045b130 f i objectmgr.obj
 0001:0005a190       ?Convert_DItoDD@@YAXULTMatrix@@AAU_D3DMATRIX@@@Z 0045b190 f i objectmgr.obj
 0001:0005a210       ??DLTRotation@@QBE?AU0@ABU0@@Z 0045b210 f i objectmgr.obj
 0001:0005a270       ?GetLODIndexFromDist@ModelPiece@@QAEIM@Z 0045b270 f i objectmgr.obj
 0001:0005a2c0       ?IncFrameCode@ObjectMgr@@UAEIXZ 0045b2c0 f   objectmgr.obj
 0001:0005a310       ?Init@LTObject@@UAEXPAVObjectMgr@@PAUObjectCreateStruct@@@Z 0045b310 f   objectmgr.obj
 0001:0005a3c0       ?Clear@LTObject@@QAEXXZ    0045b3c0 f   objectmgr.obj
 0001:0005a590       ?SetupTransform@LTObject@@QAEXAAULTMatrix@@@Z 0045b590 f   objectmgr.obj
 0001:0005a5c0       ?InsertSpecial@LTObject@@UAE_NPAVWorldTree@@@Z 0045b5c0 f   objectmgr.obj
 0001:0005a5e0       ?Init@LTVolumeEffect@@UAEXPAVObjectMgr@@PAUObjectCreateStruct@@@Z 0045b5e0 f   objectmgr.obj
 0001:0005a5e0       ?Init@WorldModelInstance@@UAEXPAVObjectMgr@@PAUObjectCreateStruct@@@Z 0045b5e0 f   objectmgr.obj
 0001:0005a5f0       ?InsertSpecial@WorldModelInstance@@UAE_NPAVWorldTree@@@Z 0045b5f0 f   objectmgr.obj
 0001:0005a630       ?InitWorldData@WorldModelInstance@@QAEXPBVWorldBsp@@0@Z 0045b630 f   objectmgr.obj
 0001:0005a690       ?MakeHPoly@WorldModelInstance@@QAE?AUHPOLY@@PBVNode@@@Z 0045b690 f   objectmgr.obj
 0001:0005a700       ?InitAnimTrackers@ModelInstance@@QAEXG@Z 0045b700 f   objectmgr.obj
 0001:0005a740       ?HasNodeControlFn@ModelInstance@@QAE_NI@Z 0045b740 f   objectmgr.obj
 0001:0005a760       ?AddNodeControlFn@ModelInstance@@QAEXIP6AXABUNodeControlData@@PAX@Z1@Z 0045b760 f   objectmgr.obj
 0001:0005a7a0       ?AddNodeControlFn@ModelInstance@@QAEXP6AXABUNodeControlData@@PAX@Z1@Z 0045b7a0 f   objectmgr.obj
 0001:0005a800       ?RemoveNodeControlFn@ModelInstance@@QAEXIP6AXABUNodeControlData@@PAX@Z1@Z 0045b800 f   objectmgr.obj
 0001:0005a880       ?RemoveNodeControlFn@ModelInstance@@QAEXP6AXABUNodeControlData@@PAX@Z1@Z 0045b880 f   objectmgr.obj
 0001:0005a8c0       ?ApplyNodeControl@ModelInstance@@QAEXABUNodeControlData@@@Z 0045b8c0 f   objectmgr.obj
 0001:0005a8f0       ?NodeGetRootIndex@ModelInstance@@QAEIXZ 0045b8f0 f   objectmgr.obj
 0001:0005a910       ?AddChildModelDB@ModelInstance@@QAE_NPAVModel@@@Z 0045b910 f   objectmgr.obj
 0001:0005a9d0       ?GetNumAnimTrackers@ModelInstance@@QBEIXZ 0045b9d0 f   objectmgr.obj
 0001:0005a9f0       ?FreeNodeInfo@ModelInstance@@QAEXXZ 0045b9f0 f   objectmgr.obj
 0001:0005aa60       ?GetTracker@ModelInstance@@QAEPAVLTAnimTracker@@E@Z 0045ba60 f   objectmgr.obj
 0001:0005aaa0       ?GetTracker@ModelInstance@@QAEPAVLTAnimTracker@@EAAPAPAV2@@Z 0045baa0 f   objectmgr.obj
 0001:0005aaf0       ?SetRenderStyle@ModelInstance@@QAE_NIPAVCRenderStyle@@@Z 0045baf0 f   objectmgr.obj
 0001:0005ab30       ?GetRenderStyle@ModelInstance@@QAE_NIPAPAVCRenderStyle@@@Z 0045bb30 f   objectmgr.obj
 0001:0005ab50       ?Init@LTParticleSystem@@UAEXPAVObjectMgr@@PAUObjectCreateStruct@@@Z 0045bb50 f   objectmgr.obj
 0001:0005ab70       ?Init@LineSystem@@UAEXPAVObjectMgr@@PAUObjectCreateStruct@@@Z 0045bb70 f   objectmgr.obj
 0001:0005ab90       ?Init@ContainerInstance@@UAEXPAVObjectMgr@@PAUObjectCreateStruct@@@Z 0045bb90 f   objectmgr.obj
 0001:0005abb0       ?om_Init@@YAIPAVObjectMgr@@I@Z 0045bbb0 f   objectmgr.obj
 0001:0005ad10       ?om_CreateObject@@YAIPAVObjectMgr@@PAUObjectCreateStruct@@PAPAVLTObject@@@Z 0045bd10 f   objectmgr.obj
 0001:0005ae00       ?om_CreateAttachment@@YAIPAVObjectMgr@@PAVLTObject@@GHPAU?$TVector3@M@@PAULTRotation@@PAPAVAttachment@@@Z 0045be00 f   objectmgr.obj
 0001:0005aef0       ?om_RemoveAttachment@@YAIPAVObjectMgr@@PAVLTObject@@G@Z 0045bef0 f   objectmgr.obj
 0001:0005af70       ?om_ClearSerializeIDs@@YAXPAVObjectMgr@@@Z 0045bf70 f   objectmgr.obj
 0001:0005afb0       ??0?$CAPIHolder@VILTRenderStyles@@@@QAE@PBDAAPAVILTRenderStyles@@H@Z 0045bfb0 f i objectmgr.obj
 0001:0005b020       ??1?$CAPIHolder@VILTRenderStyles@@@@UAE@XZ 0045c020 f i objectmgr.obj
 0001:0005b090       ?Interface@?$CAPIHolder@VILTDirectMusicMgr@@@@UAEPAVIBase@@XZ 0045c090 f i clientde_impl.obj
 0001:0005b090       ?Interface@?$CAPIHolder@VIServerFileMgr@@@@UAEPAVIBase@@XZ 0045c090 f i clientmgr.obj
 0001:0005b090       ?Interface@?$CAPIHolder@VILTWidgetManager@@@@UAEPAVIBase@@XZ 0045c090 f i clientde_impl.obj
 0001:0005b090       ?Interface@?$CAPIHolder@VIClientFileMgr@@@@UAEPAVIBase@@XZ 0045c090 f i clientde_impl.obj
 0001:0005b090       ?Interface@?$CAPIHolder@VIInstanceHandleServer@@@@UAEPAVIBase@@XZ 0045c090 f i dsys_interface.obj
 0001:0005b090       ?Interface@?$CAPIHolder@VIWorldParticleBlockerData@@@@UAEPAVIBase@@XZ 0045c090 f i clientde_impl.obj
 0001:0005b090       ?Interface@?$CAPIHolder@VILTClient@@@@UAEPAVIBase@@XZ 0045c090 f i clientde_impl.obj
 0001:0005b090       ?Interface@?$CAPIHolder@VILTBenchmarkMgr@@@@UAEPAVIBase@@XZ 0045c090 f i clientde_impl.obj
 0001:0005b090       ?Interface@?$CAPIHolder@VIClientDebugGraphMgr@@@@UAEPAVIBase@@XZ 0045c090 f i client_ticks.obj
 0001:0005b090       ?Interface@?$CAPIHolder@VILTTexInterface@@@@UAEPAVIBase@@XZ 0045c090 f i clientde_impl.obj
 0001:0005b090       ?Interface@?$CAPIHolder@VIWorldBlockerData@@@@UAEPAVIBase@@XZ 0045c090 f i collision.obj
 0001:0005b090       ?Interface@?$CAPIHolder@VILTSoundMgr@@@@UAEPAVIBase@@XZ 0045c090 f i clientde_impl.obj
 0001:0005b090       ?Interface@?$CAPIHolder@VILTFontManager@@@@UAEPAVIBase@@XZ 0045c090 f i clientde_impl.obj
 0001:0005b090       ?Interface@?$CAPIHolder@VIClientShell@@@@UAEPAVIBase@@XZ 0045c090 f i client.obj
 0001:0005b090       ?Interface@?$CAPIHolder@VILTVideoMgr@@@@UAEPAVIBase@@XZ 0045c090 f i clientde_impl.obj
 0001:0005b090       ?Interface@?$CAPIHolder@VILTServer@@@@UAEPAVIBase@@XZ 0045c090 f i classbind.obj
 0001:0005b090       ?Interface@?$CAPIHolder@VIWorldSharedBSP@@@@UAEPAVIBase@@XZ 0045c090 f i clientde_impl.obj
 0001:0005b090       ?Interface@?$CAPIHolder@VICompress@@@@UAEPAVIBase@@XZ 0045c090 f i impl_common.obj
 0001:0005b090       ?Interface@?$CAPIHolder@VICallStack@@@@UAEPAVIBase@@XZ 0045c090 f i lterror.obj
 0001:0005b090       ?Interface@?$CAPIHolder@VILTCursor@@@@UAEPAVIBase@@XZ 0045c090 f i client.obj
 0001:0005b090       ?Interface@?$CAPIHolder@VIWorldClientBSP@@@@UAEPAVIBase@@XZ 0045c090 f i clientde_impl.obj
 0001:0005b090       ?Interface@?$CAPIHolder@VIErrorFilter@@@@UAEPAVIBase@@XZ 0045c090 f i lterror.obj
 0001:0005b090       ?Interface@?$CAPIHolder@VILTCollisionMgr@@@@UAEPAVIBase@@XZ 0045c090 f i world_client_bsp.obj
 0001:0005b090       ?Interface@?$CAPIHolder@VIInstanceHandleClient@@@@UAEPAVIBase@@XZ 0045c090 f i dsys_interface.obj
 0001:0005b090       ?Interface@?$CAPIHolder@VIServerShell@@@@UAEPAVIBase@@XZ 0045c090 f i classmgr.obj
 0001:0005b090       ?Interface@?$CAPIHolder@VIFindObj@@@@UAEPAVIBase@@XZ 0045c090 f i LIB_D3DRender:drawvolumeeffects.obj
 0001:0005b090       ?Interface@?$CAPIHolder@VILTTransform@@@@UAEPAVIBase@@XZ 0045c090 f i clientde_impl.obj
 0001:0005b090       ?Interface@?$CAPIHolder@VIServerConsoleState@@@@UAEPAVIBase@@XZ 0045c090 f i game_serialize.obj
 0001:0005b090       ?Interface@?$CAPIHolder@VILTPhysics@@@@UAEPAVIBase@@XZ 0045c090 f i clientde_impl.obj
 0001:0005b090       ?Interface@?$CAPIHolder@VIClientFormatMgr@@@@UAEPAVIBase@@XZ 0045c090 f i text_mgr.obj
 0001:0005b090       ?Interface@?$CAPIHolder@VIWorldServerBSP@@@@UAEPAVIBase@@XZ 0045c090 f i game_serialize.obj
 0001:0005b090       ?Interface@?$CAPIHolder@VIWorldBlindObjectData@@@@UAEPAVIBase@@XZ 0045c090 f i clientde_impl.obj
 0001:0005b090       ?Interface@?$CAPIHolder@VIErrorPrint@@@@UAEPAVIBase@@XZ 0045c090 f i lterror.obj
 0001:0005b090       ?Interface@?$CAPIHolder@VICommandLineArgs@@@@UAEPAVIBase@@XZ 0045c090 f i client.obj
 0001:0005b090       ?Interface@?$CAPIHolder@VILTCommon@@@@UAEPAVIBase@@XZ 0045c090 f i clientde_impl.obj
 0001:0005b090       ?Interface@?$CAPIHolder@VILTModel@@@@UAEPAVIBase@@XZ 0045c090 f i clientde_impl.obj
 0001:0005b090       ?Interface@?$CAPIHolder@VILTDrawPrim@@@@UAEPAVIBase@@XZ 0045c090 f i clientde_impl.obj
 0001:0005b090       ?Interface@?$CAPIHolder@VILTRenderStyles@@@@UAEPAVIBase@@XZ 0045c090 f i objectmgr.obj
 0001:0005b0a0       ??_G?$CAPIHolder@VILTRenderStyles@@@@UAEPAXI@Z 0045c0a0 f i objectmgr.obj
 0001:0005b0a0       ??_E?$CAPIHolder@VILTRenderStyles@@@@UAEPAXI@Z 0045c0a0 f i objectmgr.obj
 0001:0005b0c0       ?Apply3x3@LTMatrix@@QBEXAAU?$TVector3@M@@@Z 0045c0c0 f i objectmgr.obj
 0001:0005b120       ??0TransformMaker@@AAE@XZ  0045c120 f i objectmgr.obj
 0001:0005b270       ?om_RemoveAttachments@@YAXPAVObjectMgr@@PAVLTObject@@@Z 0045c270 f i objectmgr.obj
 0001:0005b2b0       ??0LTObject@@QAE@XZ        0045c2b0 f   objectmgr.obj
 0001:0005b310       ??0LTObject@@QAE@D@Z       0045c310 f   objectmgr.obj
 0001:0005b370       ??1LTObject@@UAE@XZ        0045c370 f   objectmgr.obj
 0001:0005b430       ?NotifyObjRefList_Delete@LTObject@@QAEXXZ 0045c430 f   objectmgr.obj
 0001:0005b4b0       ??1WorldModelInstance@@UAE@XZ 0045c4b0 f   objectmgr.obj
 0001:0005b4b0       ??1ContainerInstance@@UAE@XZ 0045c4b0 f   objectmgr.obj
 0001:0005b4c0       ?Clear@WorldModelInstance@@QAEXXZ 0045c4c0 f   objectmgr.obj
 0001:0005b5b0       ??1ModelInstance@@UAE@XZ   0045c5b0 f   objectmgr.obj
 0001:0005b610       ?GetRadius@ModelInstance@@UAEMXZ 0045c610 f i objectmgr.obj
 0001:0005b690       ?UnbindModelDB@ModelInstance@@QAEXXZ 0045c690 f   objectmgr.obj
 0001:0005b790       ?SetupNodeInfo@ModelInstance@@QAEXXZ 0045c790 f   objectmgr.obj
 0001:0005b7e0       ?ForceUpdateCachedTransforms@ModelInstance@@QAE_NXZ 0045c7e0 f   objectmgr.obj
 0001:0005b900       ?ResetCachedTransformNodeStates@ModelInstance@@QAEXXZ 0045c900 f   objectmgr.obj
 0001:0005b940       ?UpdateCachedTransformsWithPath@ModelInstance@@QAE_NXZ 0045c940 f   objectmgr.obj
 0001:0005ba20       ?EnableCollisionObjects@ModelInstance@@QAEXXZ 0045ca20 f   objectmgr.obj
 0001:0005bae0       ?GetCollisionObjects@ModelInstance@@QAEXPAUModelOBB@@@Z 0045cae0 f   objectmgr.obj
 0001:0005bb90       ??1SpriteInstance@@UAE@XZ  0045cb90 f   objectmgr.obj
 0001:0005bba0       ?GetRadius@SpriteInstance@@UAEMXZ 0045cba0 f i objectmgr.obj
 0001:0005bbd0       ??0DynamicLight@@QAE@XZ    0045cbd0 f   objectmgr.obj
 0001:0005bbf0       ??1DynamicLight@@UAE@XZ    0045cbf0 f   objectmgr.obj
 0001:0005bc00       ??0CameraInstance@@QAE@XZ  0045cc00 f   objectmgr.obj
 0001:0005bc50       ??1CameraInstance@@UAE@XZ  0045cc50 f   objectmgr.obj
 0001:0005bc60       ??0LTParticleSystem@@QAE@XZ 0045cc60 f   objectmgr.obj
 0001:0005bd60       ??1LTParticleSystem@@UAE@XZ 0045cd60 f   objectmgr.obj
 0001:0005be00       ??0LTPolyGrid@@QAE@XZ      0045ce00 f   objectmgr.obj
 0001:0005bea0       ??1LTPolyGrid@@UAE@XZ      0045cea0 f   objectmgr.obj
 0001:0005bf40       ??1LineSystem@@UAE@XZ      0045cf40 f   objectmgr.obj
 0001:0005bfa0       ??0Canvas@@QAE@XZ          0045cfa0 f   objectmgr.obj
 0001:0005bfd0       ?GetRadius@Canvas@@UAEMXZ  0045cfd0 f i objectmgr.obj
 0001:0005bfe0       ??0LTVolumeEffect@@QAE@XZ  0045cfe0 f   objectmgr.obj
 0001:0005c020       ??1LTVolumeEffect@@UAE@XZ  0045d020 f   objectmgr.obj
 0001:0005c030       ?om_Term@@YAIPAVObjectMgr@@@Z 0045d030 f   objectmgr.obj
 0001:0005c0c0       ?om_DestroyObject@@YAIPAVObjectMgr@@PAVLTObject@@@Z 0045d0c0 f   objectmgr.obj
 0001:0005c120       ??0?$ObjectBank@VLTObject@@VNullCS@@@@QAE@II@Z 0045d120 f i objectmgr.obj
 0001:0005c180       ??0?$ObjectBank@VModelInstance@@VNullCS@@@@QAE@II@Z 0045d180 f i objectmgr.obj
 0001:0005c1e0       ??0?$ObjectBank@VWorldModelInstance@@VNullCS@@@@QAE@II@Z 0045d1e0 f i objectmgr.obj
 0001:0005c240       ??0?$ObjectBank@VSpriteInstance@@VNullCS@@@@QAE@II@Z 0045d240 f i objectmgr.obj
 0001:0005c2a0       ??0?$ObjectBank@VDynamicLight@@VNullCS@@@@QAE@II@Z 0045d2a0 f i objectmgr.obj
 0001:0005c300       ??0?$ObjectBank@VCameraInstance@@VNullCS@@@@QAE@II@Z 0045d300 f i objectmgr.obj
 0001:0005c360       ??0?$ObjectBank@VLTParticleSystem@@VNullCS@@@@QAE@II@Z 0045d360 f i objectmgr.obj
 0001:0005c3c0       ??0?$ObjectBank@VLTPolyGrid@@VNullCS@@@@QAE@II@Z 0045d3c0 f i objectmgr.obj
 0001:0005c420       ??0?$ObjectBank@VLineSystem@@VNullCS@@@@QAE@II@Z 0045d420 f i objectmgr.obj
 0001:0005c480       ??0?$ObjectBank@VContainerInstance@@VNullCS@@@@QAE@II@Z 0045d480 f i objectmgr.obj
 0001:0005c4e0       ??0?$ObjectBank@VCanvas@@VNullCS@@@@QAE@II@Z 0045d4e0 f i objectmgr.obj
 0001:0005c540       ??0?$ObjectBank@VLTVolumeEffect@@VNullCS@@@@QAE@II@Z 0045d540 f i objectmgr.obj
 0001:0005c5a0       ??0LTAnimTracker@@QAE@XZ   0045d5a0 f i objectmgr.obj
 0001:0005c600       ??0ObjectMgr@@QAE@XZ       0045d600 f   objectmgr.obj
 0001:0005c760       ??_GLTObject@@UAEPAXI@Z    0045d760 f i objectmgr.obj
 0001:0005c760       ??_ELTObject@@UAEPAXI@Z    0045d760 f i objectmgr.obj
 0001:0005c780       ??0WorldModelInstance@@QAE@XZ 0045d780 f   objectmgr.obj
 0001:0005c7a0       ??0ModelInstance@@QAE@XZ   0045d7a0 f   objectmgr.obj
 0001:0005c8d0       ??_GModelInstance@@UAEPAXI@Z 0045d8d0 f i objectmgr.obj
 0001:0005c8d0       ??_EModelInstance@@UAEPAXI@Z 0045d8d0 f i objectmgr.obj
 0001:0005c8f0       ?ClientUpdate@ModelInstance@@QAEXI@Z 0045d8f0 f   objectmgr.obj
 0001:0005c950       ?NodeGetParent@ModelInstance@@QAEII@Z 0045d950 f   objectmgr.obj
 0001:0005c970       ?NodeGetChild@ModelInstance@@QAEIII@Z 0045d970 f   objectmgr.obj
 0001:0005c9a0       ?NodeGetNumChildren@ModelInstance@@QAEII@Z 0045d9a0 f   objectmgr.obj
 0001:0005c9c0       ?EnableTransformCache@ModelInstance@@IAEXXZ 0045d9c0 f   objectmgr.obj
 0001:0005ca70       ?GetLODValFromDist@ModelInstance@@QAE_NIMAAI@Z 0045da70 f   objectmgr.obj
 0001:0005cab0       ?GetNumLOD@ModelInstance@@QAE_NIAAI@Z 0045dab0 f   objectmgr.obj
 0001:0005caf0       ?GetRenderingTransforms@ModelInstance@@QAEPAU_D3DMATRIX@@XZ 0045daf0 f   objectmgr.obj
 0001:0005cbd0       ?SetupNodePath@ModelInstance@@QAEXI@Z 0045dbd0 f   objectmgr.obj
 0001:0005cc30       ?SetupLODNodePath@ModelInstance@@QAEXPAVCDIModelDrawable@@@Z 0045dc30 f   objectmgr.obj
 0001:0005cc60       ?UpdateCollisionObjects@ModelInstance@@QAEXPAUModelOBB@@@Z 0045dc60 f   objectmgr.obj
 0001:0005ce30       ?UpdateCollisionObject@ModelInstance@@QAEXIAAUModelOBB@@@Z 0045de30 f   objectmgr.obj
 0001:0005cfc0       ??0SpriteInstance@@QAE@XZ  0045dfc0 f   objectmgr.obj
 0001:0005d030       ??_ESpriteInstance@@UAEPAXI@Z 0045e030 f i objectmgr.obj
 0001:0005d030       ??_GSpriteInstance@@UAEPAXI@Z 0045e030 f i objectmgr.obj
 0001:0005d050       ??_EDynamicLight@@UAEPAXI@Z 0045e050 f i objectmgr.obj
 0001:0005d050       ??_GDynamicLight@@UAEPAXI@Z 0045e050 f i objectmgr.obj
 0001:0005d070       ??_GCameraInstance@@UAEPAXI@Z 0045e070 f i objectmgr.obj
 0001:0005d070       ??_ECameraInstance@@UAEPAXI@Z 0045e070 f i objectmgr.obj
 0001:0005d090       ??_GLTParticleSystem@@UAEPAXI@Z 0045e090 f i objectmgr.obj
 0001:0005d090       ??_ELTParticleSystem@@UAEPAXI@Z 0045e090 f i objectmgr.obj
 0001:0005d0b0       ??_GLTPolyGrid@@UAEPAXI@Z  0045e0b0 f i objectmgr.obj
 0001:0005d0b0       ??_ELTPolyGrid@@UAEPAXI@Z  0045e0b0 f i objectmgr.obj
 0001:0005d0d0       ??0LineSystem@@QAE@XZ      0045e0d0 f   objectmgr.obj
 0001:0005d140       ??_GLineSystem@@UAEPAXI@Z  0045e140 f i objectmgr.obj
 0001:0005d140       ??_ELineSystem@@UAEPAXI@Z  0045e140 f i objectmgr.obj
 0001:0005d160       ??0ContainerInstance@@QAE@XZ 0045e160 f   objectmgr.obj
 0001:0005d190       ??_EContainerInstance@@UAEPAXI@Z 0045e190 f i objectmgr.obj
 0001:0005d190       ??_GContainerInstance@@UAEPAXI@Z 0045e190 f i objectmgr.obj
 0001:0005d190       ??_GWorldModelInstance@@UAEPAXI@Z 0045e190 f i objectmgr.obj
 0001:0005d190       ??_EWorldModelInstance@@UAEPAXI@Z 0045e190 f i objectmgr.obj
 0001:0005d1b0       ??_ECanvas@@UAEPAXI@Z      0045e1b0 f i objectmgr.obj
 0001:0005d1b0       ??_GCanvas@@UAEPAXI@Z      0045e1b0 f i objectmgr.obj
 0001:0005d1d0       ??1Canvas@@UAE@XZ          0045e1d0 f i objectmgr.obj
 0001:0005d1e0       ??_GLTVolumeEffect@@UAEPAXI@Z 0045e1e0 f i objectmgr.obj
 0001:0005d1e0       ??_ELTVolumeEffect@@UAEPAXI@Z 0045e1e0 f i objectmgr.obj
 0001:0005d200       ?BindModelDB@ModelInstance@@QAEXPAVModel@@@Z 0045e200 f   objectmgr.obj
 0001:0005d280       ?GetCachedTransform@ModelInstance@@QAE_NIAAULTMatrix@@@Z 0045e280 f   objectmgr.obj
 0001:0005d320       ?GetNodeTransform@ModelInstance@@QAE_NIAAVLTransform@@_N@Z 0045e320 f   objectmgr.obj
 0001:0005d500       ?GetNodeTransform@ModelInstance@@QAE_NIAAULTMatrix@@_N@Z 0045e500 f   objectmgr.obj
 0001:0005d5b0       ?GetSocketTransform@ModelInstance@@QAE_NIAAVLTransform@@_N@Z 0045e5b0 f   objectmgr.obj
 0001:0005d6d0       ?DoMoveHint@ModelInstance@@IAEXPAVLTAnimTracker@@@Z 0045e6d0 f   objectmgr.obj
 0001:0005d870       ?ServerUpdate@ModelInstance@@QAEXI@Z 0045e870 f   objectmgr.obj
 0001:0005d8e0       ?Free@CPacket_Data@@AAEXXZ 0045e8e0 f   packet.obj
 0001:0005d980       ??0CRC32Table@@QAE@XZ      0045e980 f   packet.obj
 0001:0005da20       ?Allocate_Chunk@CPacket_Data@@CAPAUSChunk@1@I@Z 0045ea20 f   packet.obj
 0001:0005daf0       ?Allocate@CPacket_Data@@SAPAV1@XZ 0045eaf0 f   packet.obj
 0001:0005dbb0       ?ReadBits@CPacket_Read@@QAEII@Z 0045ebb0 f   packet.obj
 0001:0005dc50       ?ReadBits64@CPacket_Read@@QAE_KI@Z 0045ec50 f   packet.obj
 0001:0005dc90       ?ReadData@CPacket_Read@@QAEXPAXI@Z 0045ec90 f   packet.obj
 0001:0005dd00       ?ReadDataRaw@CPacket_Read@@QAEXPAXI@Z 0045ed00 f   packet.obj
 0001:0005dd80       ?ReadString@CPacket_Read@@QAEIPADI@Z 0045ed80 f   packet.obj
 0001:0005ddc0       ?CreateWriteRaw@CPacket_Data@@QAE_NPAEI@Z 0045edc0 f i packet.obj
 0001:0005de90       ?WriteBits@CPacket_Write@@QAEXII@Z 0045ee90 f   packet.obj
 0001:0005df20       ?WriteBits64@CPacket_Write@@QAEX_KI@Z 0045ef20 f   packet.obj
 0001:0005df60       ?WriteData@CPacket_Write@@QAEXPBXI@Z 0045ef60 f   packet.obj
 0001:0005e040       ?WriteDataRaw@CPacket_Write@@QAEXPAXI@Z 0045f040 f   packet.obj
 0001:0005e070       ?CalcChecksum@CPacket_Read@@QBEIXZ 0045f070 f   packet.obj
 0001:0005e130       ?WritePacket@CPacket_Write@@QAEXABVCPacket_Read@@@Z 0045f130 f   packet.obj
 0001:0005e370       ?WriteString@CPacket_Write@@QAEXPBD@Z 0045f370 f   packet.obj
 0001:0005e410       ?ParseAmbientLight@@YA_NPBDPAU?$TVector3@M@@@Z 0045f410 f   parse_world_info.obj
 0001:0005e530       ?Apply@LTMatrix@@QBEXABU?$TVector3@M@@AAU2@@Z 0045f530 f i particlesystem.obj
 0001:0005e590       ?ps_SetTexture@@YAIPAVLTParticleSystem@@PBD@Z 0045f590 f   particlesystem.obj
 0001:0005e690       ?ps_AddParticles@@YAXPAVLTParticleSystem@@IPBU?$TVector3@M@@11111MM@Z 0045f690 f   particlesystem.obj
 0001:0005e860       ?ps_StartUpdatingPositions@@YAXPAVLTParticleSystem@@@Z 0045f860 f   particlesystem.obj
 0001:0005e8a0       ?ps_SortParticles@@YAXPAVLTParticleSystem@@ABU?$TVector3@M@@I@Z 0045f8a0 f   particlesystem.obj
 0001:0005ed40       ?ps_UpdateParticles@@YAXPAVLTParticleSystem@@M@Z 0045fd40 f   particlesystem.obj
 0001:0005f010       ?ps_UpdateParticleBoundingBox@@YAXPAVLTParticleSystem@@@Z 00460010 f   particlesystem.obj
 0001:0005f170       ?ps_EndUpdatingPositions@@YAIPAVLTParticleSystem@@@Z 00460170 f   particlesystem.obj
 0001:0005f1e0       ?ps_OptimizeParticles@@YAXPAVLTParticleSystem@@@Z 004601e0 f   particlesystem.obj
 0001:0005f2c0       ?IsCompressed@PFormat@@QBE_NXZ 004602c0 f i pixelformat.obj
 0001:0005f2e0       ?DoConvert@CC_8toBF@@QAEIPAE@Z 004602e0 f i pixelformat.obj
 0001:0005f360       ?DoConvert@CC_16toBF@@QAEIPAE@Z 00460360 f i pixelformat.obj
 0001:0005f3e0       ?Init@PFormat@@UAEXW4BPPIdent@@IIII@Z 004603e0 f   pixelformat.obj
 0001:0005f470       ?InitPValueFormat@PFormat@@QAEXXZ 00460470 f   pixelformat.obj
 0001:0005f490       ?IsValid@FMConvertRequest@@QBEIXZ 00460490 f   pixelformat.obj
 0001:0005f540       ?ConvertPixels@FormatMgr@@QAEIPBVFMConvertRequest@@PAULTRGB@@@Z 00460540 f   pixelformat.obj
 0001:0005f5a0       ?PValueToFormatColor@FormatMgr@@QAEIPAVPFormat@@IAATGenericColor@@@Z 004605a0 f   pixelformat.obj
 0001:0005f5e0       ?PValueFromFormatColor@FormatMgr@@QAEIPAVPFormat@@TGenericColor@@AAI@Z 004605e0 f   pixelformat.obj
 0001:0005f620       ?CalcImageSize@@YAIW4BPPIdent@@II@Z 00460620 f   pixelformat.obj
 0001:0005f660       ??$Convert1Pass@VCC_8PtoBF@@@@YAIPAVFormatMgr@@PBVFMConvertRequest@@PAVCC_8PtoBF@@PAULTRGB@@@Z 00460660 f i pixelformat.obj
 0001:0005f750       ??$CVP_ToPValueTemplate@VCC_8toBF@@@@YAXPAVFormatMgr@@PAVPFormat@@PAE2PAVCC_8toBF@@@Z 00460750 f i pixelformat.obj
 0001:0005f7b0       ??$CVP_ToPValueTemplate@VCC_16toBF@@@@YAXPAVFormatMgr@@PAVPFormat@@PAE2PAVCC_16toBF@@@Z 004607b0 f i pixelformat.obj
 0001:0005f810       ?Convert@CC_BFto8@@QAEXPAE0@Z 00460810 f i pixelformat.obj
 0001:0005f870       ?DoConvert@CC_BFto16@@QAEGPAE@Z 00460870 f i pixelformat.obj
 0001:0005f8d0       ?DoConvert@CC_BFto32@@QAEIPAE@Z 004608d0 f i pixelformat.obj
 0001:0005f930       ?GenericCopy@@YAIPAVFormatMgr@@PBVFMConvertRequest@@PAULTRGB@@@Z 00460930 f   pixelformat.obj
 0001:0005fa30       ?CPV_8toBF@@YAXPAVFormatMgr@@PAVPFormat@@PAE2@Z 00460a30 f   pixelformat.obj
 0001:0005fa50       ?CPV_16toBF@@YAXPAVFormatMgr@@PAVPFormat@@PAE2@Z 00460a50 f   pixelformat.obj
 0001:0005fa70       ?CPV_32toBF@@YAXPAVFormatMgr@@PAVPFormat@@PAE2@Z 00460a70 f   pixelformat.obj
 0001:0005fad0       ??0FMConvertRequest@@QAE@XZ 00460ad0 f   pixelformat.obj
 0001:0005fb10       ??0FMRectRequest@@QAE@XZ   00460b10 f   pixelformat.obj
 0001:0005fb40       ?FillRect@FormatMgr@@QAEIPAVFMRectRequest@@@Z 00460b40 f   pixelformat.obj
 0001:0005fc20       ?InitScaleTables@FormatMgr@@IAEXXZ 00460c20 f   pixelformat.obj
 0001:0005fd20       ??$Convert1Pass@VCC_8toBF@@@@YAIPAVFormatMgr@@PBVFMConvertRequest@@PAVCC_8toBF@@PAULTRGB@@@Z 00460d20 f i pixelformat.obj
 0001:0005ff00       ??$Convert1Pass@VCC_16toBF@@@@YAIPAVFormatMgr@@PBVFMConvertRequest@@PAVCC_16toBF@@PAULTRGB@@@Z 00460f00 f i pixelformat.obj
 0001:000600f0       ??$Convert1Pass@VCC_24toBF@@@@YAIPAVFormatMgr@@PBVFMConvertRequest@@PAVCC_24toBF@@PAULTRGB@@@Z 004610f0 f i pixelformat.obj
 0001:000601f0       ??$ConvertDXTGeneric@VCC_BFto16@@VAbstract_Word@@@@YAIPAVFormatMgr@@PBVFMConvertRequest@@PAVCC_BFto16@@PAVAbstract_Word@@@Z 004611f0 f i pixelformat.obj
 0001:00061000       ??$ConvertDXTGeneric@VCC_BFto32@@VAbstract_DWord@@@@YAIPAVFormatMgr@@PBVFMConvertRequest@@PAVCC_BFto32@@PAVAbstract_DWord@@@Z 00462000 f i pixelformat.obj
 0001:00061da0       ??$CVP_FromPValueTemplate@VCC_BFto8@@@@YAXPAVFormatMgr@@PAVPFormat@@PAE2PAVCC_BFto8@@@Z 00462da0 f i pixelformat.obj
 0001:00061e00       ??$CVP_FromPValueTemplate@VCC_BFto16@@@@YAXPAVFormatMgr@@PAVPFormat@@PAE2PAVCC_BFto16@@@Z 00462e00 f i pixelformat.obj
 0001:00061e60       ??$CVP_FromPValueTemplate@VCC_BFto32@@@@YAXPAVFormatMgr@@PAVPFormat@@PAE2PAVCC_BFto32@@@Z 00462e60 f i pixelformat.obj
 0001:00061ec0       ?Convert24to32@@YAIPAVFormatMgr@@PBVFMConvertRequest@@PAULTRGB@@@Z 00462ec0 f   pixelformat.obj
 0001:00061ee0       ?ConvertDXTto16@@YAIPAVFormatMgr@@PBVFMConvertRequest@@PAULTRGB@@@Z 00462ee0 f   pixelformat.obj
 0001:00061f00       ?ConvertDXTto32@@YAIPAVFormatMgr@@PBVFMConvertRequest@@PAULTRGB@@@Z 00462f00 f   pixelformat.obj
 0001:00061f20       ?CPV_BFto8@@YAXPAVFormatMgr@@PAVPFormat@@PAE2@Z 00462f20 f   pixelformat.obj
 0001:00061f40       ?CPV_BFto16@@YAXPAVFormatMgr@@PAVPFormat@@PAE2@Z 00462f40 f   pixelformat.obj
 0001:00061f60       ?CPV_BFto32@@YAXPAVFormatMgr@@PAVPFormat@@PAE2@Z 00462f60 f   pixelformat.obj
 0001:00061f80       ??0FormatMgr@@QAE@XZ       00462f80 f   pixelformat.obj
 0001:00061fd0       ??$Convert2Pass@VCC_8PtoBF@@VCC_BFto8@@@@YAIPAVFormatMgr@@PBVFMConvertRequest@@PAVCC_8PtoBF@@PAVCC_BFto8@@PAULTRGB@@@Z 00462fd0 f i pixelformat.obj
 0001:000621f0       ??$Convert2Pass@VCC_8PtoBF@@VCC_BFto16@@@@YAIPAVFormatMgr@@PBVFMConvertRequest@@PAVCC_8PtoBF@@PAVCC_BFto16@@PAULTRGB@@@Z 004631f0 f i pixelformat.obj
 0001:00062420       ??$Convert2Pass@VCC_8PtoBF@@VCC_BFto32@@@@YAIPAVFormatMgr@@PBVFMConvertRequest@@PAVCC_8PtoBF@@PAVCC_BFto32@@PAULTRGB@@@Z 00463420 f i pixelformat.obj
 0001:00062640       ??$Convert2Pass@VCC_8toBF@@VCC_BFto8@@@@YAIPAVFormatMgr@@PBVFMConvertRequest@@PAVCC_8toBF@@PAVCC_BFto8@@PAULTRGB@@@Z 00463640 f i pixelformat.obj
 0001:00062920       ??$Convert2Pass@VCC_8toBF@@VCC_BFto16@@@@YAIPAVFormatMgr@@PBVFMConvertRequest@@PAVCC_8toBF@@PAVCC_BFto16@@PAULTRGB@@@Z 00463920 f i pixelformat.obj
 0001:00062c20       ??$Convert2Pass@VCC_8toBF@@VCC_BFto32@@@@YAIPAVFormatMgr@@PBVFMConvertRequest@@PAVCC_8toBF@@PAVCC_BFto32@@PAULTRGB@@@Z 00463c20 f i pixelformat.obj
 0001:00062f10       ??$Convert2Pass@VCC_16toBF@@VCC_BFto8@@@@YAIPAVFormatMgr@@PBVFMConvertRequest@@PAVCC_16toBF@@PAVCC_BFto8@@PAULTRGB@@@Z 00463f10 f i pixelformat.obj
 0001:000631f0       ??$Convert2Pass@VCC_16toBF@@VCC_BFto16@@@@YAIPAVFormatMgr@@PBVFMConvertRequest@@PAVCC_16toBF@@PAVCC_BFto16@@PAULTRGB@@@Z 004641f0 f i pixelformat.obj
 0001:000634e0       ??$Convert2Pass@VCC_16toBF@@VCC_BFto32@@@@YAIPAVFormatMgr@@PBVFMConvertRequest@@PAVCC_16toBF@@PAVCC_BFto32@@PAULTRGB@@@Z 004644e0 f i pixelformat.obj
 0001:000637d0       ??$Convert1Pass@VCC_BFto8@@@@YAIPAVFormatMgr@@PBVFMConvertRequest@@PAVCC_BFto8@@PAULTRGB@@@Z 004647d0 f i pixelformat.obj
 0001:00063990       ??$Convert2Pass@VCC_32toBF@@VCC_BFto8@@@@YAIPAVFormatMgr@@PBVFMConvertRequest@@PAVCC_32toBF@@PAVCC_BFto8@@PAULTRGB@@@Z 00464990 f i pixelformat.obj
 0001:00063c10       ??$Convert1Pass@VCC_BFto16@@@@YAIPAVFormatMgr@@PBVFMConvertRequest@@PAVCC_BFto16@@PAULTRGB@@@Z 00464c10 f i pixelformat.obj
 0001:00063de0       ??$Convert2Pass@VCC_32toBF@@VCC_BFto16@@@@YAIPAVFormatMgr@@PBVFMConvertRequest@@PAVCC_32toBF@@PAVCC_BFto16@@PAULTRGB@@@Z 00464de0 f i pixelformat.obj
 0001:00064080       ??$Convert2Pass@VCC_24toBF@@VCC_BFto16@@@@YAIPAVFormatMgr@@PBVFMConvertRequest@@PAVCC_24toBF@@PAVCC_BFto16@@PAULTRGB@@@Z 00465080 f i pixelformat.obj
 0001:00064290       ??$Convert2Pass@VCC_32toBF@@VCC_BFto32@@@@YAIPAVFormatMgr@@PBVFMConvertRequest@@PAVCC_32toBF@@PAVCC_BFto32@@PAULTRGB@@@Z 00465290 f i pixelformat.obj
 0001:00064510       ??$Convert2Pass@VCC_32PtoBF@@VCC_BFto16@@@@YAIPAVFormatMgr@@PBVFMConvertRequest@@PAVCC_32PtoBF@@PAVCC_BFto16@@PAULTRGB@@@Z 00465510 f i pixelformat.obj
 0001:00064750       ??$Convert2Pass@VCC_32PtoBF@@VCC_BFto32@@@@YAIPAVFormatMgr@@PBVFMConvertRequest@@PAVCC_32PtoBF@@PAVCC_BFto32@@PAULTRGB@@@Z 00465750 f i pixelformat.obj
 0001:00064990       ?Convert8Pto8@@YAIPAVFormatMgr@@PBVFMConvertRequest@@PAULTRGB@@@Z 00465990 f   pixelformat.obj
 0001:000649b0       ?Convert8Pto16@@YAIPAVFormatMgr@@PBVFMConvertRequest@@PAULTRGB@@@Z 004659b0 f   pixelformat.obj
 0001:000649d0       ?Convert8Pto32@@YAIPAVFormatMgr@@PBVFMConvertRequest@@PAULTRGB@@@Z 004659d0 f   pixelformat.obj
 0001:00064a40       ?Convert8to8@@YAIPAVFormatMgr@@PBVFMConvertRequest@@PAULTRGB@@@Z 00465a40 f   pixelformat.obj
 0001:00064ab0       ?Convert8to16@@YAIPAVFormatMgr@@PBVFMConvertRequest@@PAULTRGB@@@Z 00465ab0 f   pixelformat.obj
 0001:00064ad0       ?Convert8to32@@YAIPAVFormatMgr@@PBVFMConvertRequest@@PAULTRGB@@@Z 00465ad0 f   pixelformat.obj
 0001:00064b40       ?Convert16to8@@YAIPAVFormatMgr@@PBVFMConvertRequest@@PAULTRGB@@@Z 00465b40 f   pixelformat.obj
 0001:00064b60       ?Convert16to16@@YAIPAVFormatMgr@@PBVFMConvertRequest@@PAULTRGB@@@Z 00465b60 f   pixelformat.obj
 0001:00064bd0       ?Convert16to32@@YAIPAVFormatMgr@@PBVFMConvertRequest@@PAULTRGB@@@Z 00465bd0 f   pixelformat.obj
 0001:00064c40       ?Convert32to8@@YAIPAVFormatMgr@@PBVFMConvertRequest@@PAULTRGB@@@Z 00465c40 f   pixelformat.obj
 0001:00064cb0       ?Convert32to16@@YAIPAVFormatMgr@@PBVFMConvertRequest@@PAULTRGB@@@Z 00465cb0 f   pixelformat.obj
 0001:00064d20       ?Convert24to16@@YAIPAVFormatMgr@@PBVFMConvertRequest@@PAULTRGB@@@Z 00465d20 f   pixelformat.obj
 0001:00064d40       ?Convert32to32@@YAIPAVFormatMgr@@PBVFMConvertRequest@@PAULTRGB@@@Z 00465d40 f   pixelformat.obj
 0001:00064db0       ?Convert32Pto16@@YAIPAVFormatMgr@@PBVFMConvertRequest@@PAULTRGB@@@Z 00465db0 f   pixelformat.obj
 0001:00064dd0       ?Convert32Pto32@@YAIPAVFormatMgr@@PBVFMConvertRequest@@PAULTRGB@@@Z 00465dd0 f   pixelformat.obj
 0001:00064df0       ?pg_Term@@YAXPAVLTPolyGrid@@@Z 00465df0 f   polygrid.obj
 0001:00064e50       ?pg_Init@@YA_NPAVLTPolyGrid@@IIIPA_N@Z 00465e50 f   polygrid.obj
 0001:00065220       ?pd_InitialServerUpdate@@YAXPAVCClientShell@@M@Z 00466220 f   predict.obj
 0001:00065250       ?pd_OnObjectRotate@@YAXPAVCClientShell@@PAVLTObject@@PAULTRotation@@_N3@Z 00466250 f   predict.obj
 0001:00065390       ?pd_OnObjectMove@@YAXPAVCClientShell@@PAVLTObject@@PAU?$TVector3@M@@2_N3@Z 00466390 f   predict.obj
 0001:00065840       ?pd_Update@@YAXPAVCClientShell@@@Z 00466840 f   predict.obj
 0001:00065f90       ??0RateTracker@@QAE@XZ     00466f90 f   ratetracker.obj
 0001:00065fb0       ?Update@RateTracker@@QAEXM@Z 00466fb0 f   ratetracker.obj
 0001:00066000       ??9LTRotation@@QBE_NABU0@@Z 00467000 f i render.obj
 0001:00066090       ?c_CommandHandler@@YAXPBD@Z 00467090 f   consolecommands.obj
 0001:00066090       ?r_RunConsoleString@@YAXPAD@Z 00467090 f   render.obj
 0001:000660f0       ?r_GetParameterValueFloat@@YAMPAX@Z 004670f0 f   render.obj
 0001:00066110       ?r_GetParameterValueString@@YAPADPAX@Z 00467110 f   render.obj
 0001:00066140       ?GetInternalTextureMemory@@YAKXZ 00467140 f   render.obj
 0001:00066150       ?GetRendererTextureMemory@@YAKXZ 00467150 f   render.obj
 0001:00066160       ?r_BindTexture@@YAXPAVSharedTexture@@I@Z 00467160 f   render.obj
 0001:00066180       ??1?$VarSetter@H@@QAE@XZ   00467180 f i render.obj
 0001:00066190       ?r_UnloadSystemTexture@@YAXPAVTextureData@@@Z 00467190 f   render.obj
 0001:00066210       ?r_LoadSystemTexture@@YAIPAVSharedTexture@@@Z 00467210 f   render.obj
 0001:00066970       ?r_TerminateAllRecreatableTextureData@@YAXXZ 00467970 f   render.obj
 0001:000669b0       ?r_GetTextureData@@YAPAVTextureData@@PAVSharedTexture@@@Z 004679b0 f   render.obj
 0001:000669d0       ?r_GetTextureInfo@@YA_NPAVSharedTexture@@AAI1AAVPFormat@@@Z 004679d0 f   render.obj
 0001:00066a60       ?r_UnbindTexture@@YAXPAVSharedTexture@@_N@Z 00467a60 f   render.obj
 0001:00066aa0       ?r_ProcessAttachment@@YAPAVLTObject@@PAV1@PAVAttachment@@@Z 00467aa0 f   render.obj
 0001:00066bd0       ?r_InitRenderStruct@@YAX_N@Z 00467bd0 f   render.obj
 0001:00066cd0       ?r_TermRender@@YAIH_N@Z    00467cd0 f   render.obj
 0001:00066e00       ?r_InitRender@@YAIPAURMode@@@Z 00467e00 f   render.obj
 0001:000671e0       ?WriteLTVector@CPacket_Write@@QAEXABU?$TVector3@M@@@Z 004681e0 f i s_client.obj
 0001:00067230       ?sm_FTOpenFn@@YAPAVILTStream@@PAUFTServ@@PAD@Z 00468230 f   s_client.obj
 0001:00067250       ?sm_FTCloseFn@@YAXPAUFTServ@@PAVILTStream@@@Z 00468250 f   s_client.obj
 0001:00067260       ?sm_CanClientEnterWorld@@YA_NPAUClient@@@Z 00468260 f   s_client.obj
 0001:000672d0       ?ExpandObjectIdList@@YAXPAUSentList@@@Z 004682d0 f   s_client.obj
 0001:00067330       ?ShouldSendToClient@@YA_NPBUClient@@PAVLTObject@@@Z 00468330 f i s_client.obj
 0001:000673a0       ?sm_SendSoundTracks@@YAXPAUUpdateInfo@@AAVCPacket_Write@@@Z 004683a0 f   s_client.obj
 0001:00067500       ?ClearSoundChangeFlags@@YAXPAUUpdateInfo@@@Z 00468500 f   s_client.obj
 0001:000675b0       ??1UpdateInfo@@QAE@XZ      004685b0 f i s_client.obj
 0001:00067630       ?sm_FindClient@@YAPAUClient@@PAVCBaseConn@@@Z 00468630 f   s_client.obj
 0001:00067670       ?sm_SetSendSkyDef@@YAXXZ   00468670 f   s_client.obj
 0001:000676b0       ?sm_RemoveObjectFromSky@@YAIPAVLTObject@@@Z 004686b0 f   s_client.obj
 0001:00067720       ?sm_GetClientFileIDInfo@@YAPAUFileIDInfo@@PAUClient@@G@Z 00468720 f   s_client.obj
 0001:000677d0       ?Dist@?$TVector3@M@@QBEMABU1@@Z 004687d0 f i s_client.obj
 0001:00067800       ?_Xlen@?$vector@UCUnguaranteedObjTrack@@V?$allocator@UCUnguaranteedObjTrack@@@std@@@std@@IBEXXZ 00468800 f i s_client.obj
 0001:00067800       ?_Xlen@?$vector@UCGuaranteedObjTrack@@V?$allocator@UCGuaranteedObjTrack@@@std@@@std@@IBEXXZ 00468800 f i s_client.obj
 0001:00067880       ??$fill@PAUCGuaranteedObjTrack@@U1@@std@@YAXPAUCGuaranteedObjTrack@@0ABU1@@Z 00468880 f i s_client.obj
 0001:000678c0       ??$_Copy_backward_opt@PAUCGuaranteedObjTrack@@PAU1@@std@@YAPAUCGuaranteedObjTrack@@PAU1@00U_Nonscalar_ptr_iterator_tag@0@@Z 004688c0 f i s_client.obj
 0001:00067900       ??0Client@@QAE@XZ          00468900 f   s_client.obj
 0001:00067990       ??1Client@@QAE@XZ          00468990 f   s_client.obj
 0001:00067aa0       ?WriteUnguaranteedInfo@@YAXPAVLTObject@@AAVCPacket_Write@@@Z 00468aa0 f   s_client.obj
 0001:00067c10       ??$_Push_heap@Viterator@?$vector@UCGuaranteedObjTrack@@V?$allocator@UCGuaranteedObjTrack@@@std@@@std@@HUCGuaranteedObjTrack@@U?$less@UCGuaranteedObjTrack@@@3@@std@@YAXViterator@?$vector@UCGuaranteedObjTrack@@V?$allocator@UCGuaranteedObjTrack@@@std@@@0@HHUCGuaranteedObjTrack@@U?$less@UCGuaranteedObjTrack@@@0@@Z 00468c10 f i s_client.obj
 0001:00067c90       ??$_Push_heap@Viterator@?$vector@UCUnguaranteedObjTrack@@V?$allocator@UCUnguaranteedObjTrack@@@std@@@std@@HUCUnguaranteedObjTrack@@U?$less@UCUnguaranteedObjTrack@@@3@@std@@YAXViterator@?$vector@UCUnguaranteedObjTrack@@V?$allocator@UCUnguaranteedObjTrack@@@std@@@0@HHUCUnguaranteedObjTrack@@U?$less@UCUnguaranteedObjTrack@@@0@@Z 00468c90 f i s_client.obj
 0001:00067cf0       ??$_Uninit_copy@PAUCGuaranteedObjTrack@@PAU1@V?$allocator@UCGuaranteedObjTrack@@@std@@@std@@YAPAUCGuaranteedObjTrack@@PAU1@00AAV?$allocator@UCGuaranteedObjTrack@@@0@U_Nonscalar_ptr_iterator_tag@0@@Z 00468cf0 f i s_client.obj
 0001:00067cf0       ??$_Uninit_copy@Vconst_iterator@?$vector@U?$TVector3@M@@V?$allocator@U?$TVector3@M@@@std@@@std@@PAU?$TVector3@M@@V?$allocator@U?$TVector3@M@@@3@@std@@YAPAU?$TVector3@M@@Vconst_iterator@?$vector@U?$TVector3@M@@V?$allocator@U?$TVector3@M@@@std@@@0@0PAU1@AAV?$allocator@U?$TVector3@M@@@0@U_Nonscalar_ptr_iterator_tag@0@@Z 00468cf0 f i world_blocker_data.obj
 0001:00067cf0       ??$_Uninit_copy@PAU?$TVector3@M@@PAU1@V?$allocator@U?$TVector3@M@@@std@@@std@@YAPAU?$TVector3@M@@PAU1@00AAV?$allocator@U?$TVector3@M@@@0@U_Nonscalar_ptr_iterator_tag@0@@Z 00468cf0 f i collision.obj
 0001:00067cf0       ??$_Uninit_copy@Viterator@?$vector@U?$TVector3@M@@V?$allocator@U?$TVector3@M@@@std@@@std@@PAU?$TVector3@M@@V?$allocator@U?$TVector3@M@@@3@@std@@YAPAU?$TVector3@M@@Viterator@?$vector@U?$TVector3@M@@V?$allocator@U?$TVector3@M@@@std@@@0@0PAU1@AAV?$allocator@U?$TVector3@M@@@0@U_Nonscalar_ptr_iterator_tag@0@@Z 00468cf0 f i world_blocker_data.obj
 0001:00067d30       ??$_Adjust_heap@Viterator@?$vector@UCGuaranteedObjTrack@@V?$allocator@UCGuaranteedObjTrack@@@std@@@std@@HUCGuaranteedObjTrack@@U?$less@UCGuaranteedObjTrack@@@3@@std@@YAXViterator@?$vector@UCGuaranteedObjTrack@@V?$allocator@UCGuaranteedObjTrack@@@std@@@0@HHUCGuaranteedObjTrack@@U?$less@UCGuaranteedObjTrack@@@0@@Z 00468d30 f i s_client.obj
 0001:00067de0       ??$_Adjust_heap@Viterator@?$vector@UCUnguaranteedObjTrack@@V?$allocator@UCUnguaranteedObjTrack@@@std@@@std@@HUCUnguaranteedObjTrack@@U?$less@UCUnguaranteedObjTrack@@@3@@std@@YAXViterator@?$vector@UCUnguaranteedObjTrack@@V?$allocator@UCUnguaranteedObjTrack@@@std@@@0@HHUCUnguaranteedObjTrack@@U?$less@UCUnguaranteedObjTrack@@@0@@Z 00468de0 f i s_client.obj
 0001:00067e60       ??$_Uninit_fill_n@PAUCGuaranteedObjTrack@@IU1@V?$allocator@UCGuaranteedObjTrack@@@std@@@std@@YAXPAUCGuaranteedObjTrack@@IABU1@AAV?$allocator@UCGuaranteedObjTrack@@@0@U_Nonscalar_ptr_iterator_tag@0@@Z 00468e60 f i s_client.obj
 0001:00067e60       ??$_Uninit_fill_n@PAU?$TVector3@M@@IU1@V?$allocator@U?$TVector3@M@@@std@@@std@@YAXPAU?$TVector3@M@@IABU1@AAV?$allocator@U?$TVector3@M@@@0@U_Nonscalar_ptr_iterator_tag@0@@Z 00468e60 f i collision.obj
 0001:00067ea0       ?sm_SendCacheListSection@@YAIPAUClient@@IEG@Z 00468ea0 f   s_client.obj
 0001:00067fe0       ?sm_SendCacheListToClient@@YAIPAUClient@@I@Z 00468fe0 f   s_client.obj
 0001:00068020       ?sm_TellClientToPreloadStuff@@YAIPAUClient@@@Z 00469020 f   s_client.obj
 0001:00068220       ?sm_GetClientOutOfWorld@@YAXPAUClient@@@Z 00469220 f   s_client.obj
 0001:00068320       ?sm_DetachClient@@YAIPAUClient@@@Z 00469320 f   s_client.obj
 0001:00068440       ?sm_TracePacket@@YAXABVCPacket_Read@@@Z 00469440 f   s_client.obj
 0001:000685a0       ?sm_AddObjectChangeInfo@@YAXPAUUpdateInfo@@PAVLTObject@@PAUObjInfo@@@Z 004695a0 f   s_client.obj
 0001:00068700       ?UpdateSendToClientState@@YAXPAVLTObject@@PAUUpdateInfo@@@Z 00469700 f i s_client.obj
 0001:00068790       ?WriteObjectRemoves@@YAXPAUUpdateInfo@@PAUSentList@@@Z 00469790 f   s_client.obj
 0001:00068960       ?sm_TellClientAboutSky@@YAXPAUClient@@@Z 00469960 f   s_client.obj
 0001:00068a90       ?sm_TellClientAboutGlobalLight@@YAXPAUClient@@@Z 00469a90 f   s_client.obj
 0001:00068cb0       ?sm_UpdatePuttingInWorld@@YAIPAUClient@@@Z 00469cb0 f   s_client.obj
 0001:00068f20       ?sm_ConnectClientToWorld@@YAIPAUClient@@@Z 00469f20 f   s_client.obj
 0001:00069160       ?sm_AttachClient@@YAIPAUClient@@0@Z 0046a160 f   s_client.obj
 0001:000692c0       ?sm_SetClientState@@YA_NPAUClient@@H@Z 0046a2c0 f   s_client.obj
 0001:00069310       ?sm_UpdateClientState@@YAXPAUClient@@@Z 0046a310 f   s_client.obj
 0001:00069380       ?_Ufill@?$vector@U?$TVector3@M@@V?$allocator@U?$TVector3@M@@@std@@@std@@IAEPAU?$TVector3@M@@PAU3@IABU3@@Z 0046a380 f i collision.obj
 0001:00069380       ?_Ufill@?$vector@UCGuaranteedObjTrack@@V?$allocator@UCGuaranteedObjTrack@@@std@@@std@@IAEPAUCGuaranteedObjTrack@@PAU3@IABU3@@Z 0046a380 f i s_client.obj
 0001:000693b0       ?_Insert_n@?$vector@UCGuaranteedObjTrack@@V?$allocator@UCGuaranteedObjTrack@@@std@@@std@@IAEXViterator@12@IABUCGuaranteedObjTrack@@@Z 0046a3b0 f i s_client.obj
 0001:00069670       ?_Insert_n@?$vector@UCUnguaranteedObjTrack@@V?$allocator@UCUnguaranteedObjTrack@@@std@@@std@@IAEXViterator@12@IABUCUnguaranteedObjTrack@@@Z 0046a670 f i s_client.obj
 0001:000698c0       ?Init@Client@@QAE_NPAVCBaseConn@@_N@Z 0046a8c0 f   s_client.obj
 0001:00069c30       ?sm_OnNewConnection@@YAPAUClient@@PAVCBaseConn@@_N@Z 0046ac30 f   s_client.obj
 0001:00069c90       ?sm_RemoveClient@@YAXPAUClient@@@Z 0046ac90 f   s_client.obj
 0001:00069d80       ?insert@?$vector@UCGuaranteedObjTrack@@V?$allocator@UCGuaranteedObjTrack@@@std@@@std@@QAE?AViterator@12@V312@ABUCGuaranteedObjTrack@@@Z 0046ad80 f i s_client.obj
 0001:00069df0       ?sm_OnBrokenConnection@@YAXPAVCBaseConn@@@Z 0046adf0 f   s_client.obj
 0001:00069e30       ?push_back@?$vector@UCGuaranteedObjTrack@@V?$allocator@UCGuaranteedObjTrack@@@std@@@std@@QAEXABUCGuaranteedObjTrack@@@Z 0046ae30 f i s_client.obj
 0001:00069eb0       ?SendAllObjectsGuaranteed@@YAXPAVObjectMgr@@PAUUpdateInfo@@@Z 0046aeb0 f   s_client.obj
 0001:0006a400       ?SendAllObjectsUnguaranteed@@YAXPAVObjectMgr@@PAUUpdateInfo@@@Z 0046b400 f   s_client.obj
 0001:0006a9a0       ?sm_UpdateClientInWorld@@YAXPAUClient@@@Z 0046b9a0 f   s_client.obj
 0001:0006b100       ?con_DisableWMPhysics@@YAXHPAPAD@Z 0046c100 f   s_concommand.obj
 0001:0006b140       ?sm_TermConsoleCommands@@YAXPAUConsoleState@@@Z 0046c140 f   s_concommand.obj
 0001:0006b150       ?sm_HandleCommand@@YAIPAUConsoleState@@PAD@Z 0046c150 f   s_concommand.obj
 0001:0006b180       ?con_SpawnObject@@YAXHPAPAD@Z 0046c180 f   s_concommand.obj
 0001:0006b340       ?sm_NewVar@@YAXPAUConsoleState@@PAULTCommandVar@@@Z 0046c340 f   s_concommand.obj
 0001:0006b420       ?sm_VarChange@@YAXPAUConsoleState@@PAULTCommandVar@@@Z 0046c420 f   s_concommand.obj
 0001:0006b430       ?sm_InitConsoleCommands@@YAXPAUConsoleState@@@Z 0046c430 f   s_concommand.obj
 0001:0006b4a0       ?ServerIntersectSegment@@YA_NPAVIntersectQuery@@PAUIntersectInfo@@@Z 0046c4a0 f   S_Intersect.obj
 0001:0006b4c0       ?OnSoundUpdatePacket@@YAIAAVCPacket_Read@@PAUClient@@@Z 0046c4c0 f   s_net.obj
 0001:0006b530       ?OnClientUpdatePacket@@YAIAAVCPacket_Read@@PAUClient@@@Z 0046c530 f   s_net.obj
 0001:0006b590       ?OnClientDisconnectPacket@@YAIAAVCPacket_Read@@PAUClient@@@Z 0046c590 f   s_net.obj
 0001:0006b5c0       ?OnConnectStagePacket@@YAIAAVCPacket_Read@@PAUClient@@@Z 0046c5c0 f   s_net.obj
 0001:0006b5e0       ?OnHelloPacket@@YAIAAVCPacket_Read@@PAUClient@@@Z 0046c5e0 f   s_net.obj
 0001:0006b630       ?NewConnectionNotify@CServerMgr@@UAE_NPAVCBaseConn@@_N@Z 0046c630 f   s_net.obj
 0001:0006b650       ?DisconnectNotify@CServerMgr@@UAEXPAVCBaseConn@@W4EDisconnectReason@@@Z 0046c650 f   s_net.obj
 0001:0006b660       ?sm_WriteModelFiles@@YA_NPAVLTObject@@AAVCPacket_Write@@@Z 0046c660 f   s_net.obj
 0001:0006b7a0       ?SendServerMessage@@YAXABVCPacket_Read@@I@Z 0046c7a0 f   s_net.obj
 0001:0006b7f0       ?SendToClient@@YAXPAUClient@@ABVCPacket_Read@@_NI@Z 0046c7f0 f   s_net.obj
 0001:0006b880       ?CreateServerEvent@@YAPAVCServerEvent@@H@Z 0046c880 f   s_net.obj
 0001:0006b9a0       ?GetSoundFileIDInfoFlags@@YAXPAUFileIDInfo@@0@Z 0046c9a0 f   s_net.obj
 0001:0006ba20       ?HandleUnknownPacket@CServerMgr@@UAEXABVCPacket_Read@@QAEG@Z 0046ca20 f   s_net.obj
 0001:0006bb00       ?FillInPlaysoundMessage@@YAXPAVCServerEvent@@PAUClient@@AAVCPacket_Write@@@Z 0046cb00 f   s_net.obj
 0001:0006bd90       ?FillSoundTrackPacketFromInfo_Internal@@YAXPAVCSoundTrack@@PAUObjInfo@@PAUClient@@AAVCPacket_Write@@@Z 0046cd90 f   s_net.obj
 0001:0006c020       ?WriteAnimInfo@@YAXPAVModelInstance@@AAVCPacket_Write@@@Z 0046d020 f   s_net.obj
 0001:0006c230       ?FillPacketFromInfo@@YA_NPAUClient@@PAVLTObject@@PAUObjInfo@@AAVCPacket_Write@@@Z 0046d230 f   s_net.obj
 0001:0006c7a0       ?OnCommandStringPacket@@YAIAAVCPacket_Read@@PAUClient@@@Z 0046d7a0 f   s_net.obj
 0001:0006c800       ?OnMessagePacket@@YAIAAVCPacket_Read@@PAUClient@@@Z 0046d800 f   s_net.obj
 0001:0006c8f0       ?FillSoundTrackPacketFromInfo@@YAXPAVCSoundTrack@@PAUObjInfo@@PAUClient@@AAVCPacket_Write@@@Z 0046d8f0 f   s_net.obj
 0001:0006c9f0       ?WriteEventToPacket@@YAXPAVCServerEvent@@PAUClient@@AAVCPacket_Write@@@Z 0046d9f0 f   s_net.obj
 0001:0006cb00       ?ProcessIncomingPacket@@YAIPAUClient@@ABVCPacket_Read@@@Z 0046db00 f   s_net.obj
 0001:0006cc40       ?ProcessIncomingPackets@@YAIXZ 0046dc40 f   s_net.obj
 0001:0006cd50       ?InitServerNetHandlers@@YAXXZ 0046dd50 f   s_net.obj
 0001:0006cdb0       ??0GenericProp@@QAE@ABU?$TVector3@M@@I@Z 0046ddb0 f i s_object.obj
 0001:0006ce80       ??0GenericProp@@QAE@PBDI@Z 0046de80 f i s_object.obj
 0001:0006cf70       ??0GenericProp@@QAE@MI@Z   0046df70 f i s_object.obj
 0001:0006d000       ??0GenericProp@@QAE@HI@Z   0046e000 f i s_object.obj
 0001:0006d060       ??0GenericProp@@QAE@_NI@Z  0046e060 f i s_object.obj
 0001:0006d0d0       ??0SPropEntry@GenericPropList@@QAE@XZ 0046e0d0 f i s_object.obj
 0001:0006d100       ?ServerStringKeyCallback@@YAXPAVLTAnimTracker@@PAVAnimKeyFrame@@@Z 0046e100 f   s_object.obj
 0001:0006d1a0       ?IsObjectInChangedList@@YA_NPAVLTObject@@@Z 0046e1a0 f   s_object.obj
 0001:0006d1e0       ?sm_GetNewObjectChangeFlags@@YAIPAVLTObject@@@Z 0046e1e0 f   s_object.obj
 0001:0006d2d0       ?sm_FindInFreeList@@YAPAVLTLink@@G@Z 0046e2d0 f   s_object.obj
 0001:0006d310       ?sm_ClearClientReferenceList@@YAXXZ 0046e310 f   s_object.obj
 0001:0006d360       ?sm_FindClientRefFromObject@@YAPAUClientRef@@PAVLTObject@@@Z 0046e360 f   s_object.obj
 0001:0006d3a0       ?sm_RemoveOldClientRefObjects@@YAXXZ 0046e3a0 f   s_object.obj
 0001:0006d3f0       ?CanOptimizeObject@@YA_NPAVLTObject@@@Z 0046e3f0 f   s_object.obj
 0001:0006d420       ?sm_GetNewSoundTrackChangeFlags@@YAGPAVCSoundTrack@@@Z 0046e420 f   s_object.obj
 0001:0006d430       ?AddObjectToChangeList@@YAXPAVLTObject@@@Z 0046e430 f   s_object.obj
 0001:0006d480       ?sm_AllocateObjectOfClass@@YAPAVILTBaseClass@@PAUClassDef@@@Z 0046e480 f   s_object.obj
 0001:0006d4e0       ?sm_FreeObjectOfClass@@YAXPAUClassDef@@PAVILTBaseClass@@@Z 0046e4e0 f   s_object.obj
 0001:0006d510       ?_Xlen@?$vector@EV?$allocator@E@std@@@std@@IBEXXZ 0046e510 f i s_object.obj
 0001:0006d590       ??$fill@PAEE@std@@YAXPAE0ABE@Z 0046e590 f i s_object.obj
 0001:0006d5b0       ?ReserveProps@GenericPropList@@QAE_NI_N@Z 0046e5b0 f i s_object.obj
 0001:0006d760       ?AddProp@GenericPropList@@QAE_NPBDABUGenericProp@@@Z 0046e760 f i s_object.obj
 0001:0006d880       ?GetPhysicsVector@@YAXPAVLTObject@@MAAU?$TVector3@M@@@Z 0046e880 f   s_object.obj
 0001:0006d9c0       ?sm_UpdateInBspStatus@@YAIPAVLTObject@@@Z 0046e9c0 f   s_object.obj
 0001:0006da10       ?AddObjectToRemoveList@@YAXPAVLTObject@@@Z 0046ea10 f   s_object.obj
 0001:0006da60       ?sm_RemoveObjectsThatNeedToGetRemoved@@YAXXZ 0046ea60 f   s_object.obj
 0001:0006dad0       ?sm_SetObjectStateFlags@@YAXPAVLTObject@@I@Z 0046ead0 f   s_object.obj
 0001:0006dbb0       ??$copy@PAEPAE@std@@YAPAEPAE00@Z 0046ebb0 f i s_object.obj
 0001:0006dbd0       ?sm_FindObject@@YAPAVLTObject@@G@Z 0046ebd0 f   s_object.obj
 0001:0006dc00       ?sm_FindRecord@@YAPAULTRecord@@G@Z 0046ec00 f   s_object.obj
 0001:0006dc20       ?SetObjectChangeFlags@@YAIPAVLTObject@@I@Z 0046ec20 f   s_object.obj
 0001:0006dd00       ?_Buy@?$vector@EV?$allocator@E@std@@@std@@IAE_NI@Z 0046ed00 f i s_object.obj
 0001:0006dd50       ??$_Ucopy@PAE@?$vector@EV?$allocator@E@std@@@std@@IAEPAEPAE00@Z 0046ed50 f i s_object.obj
 0001:0006dd80       ?PhysicsUpdateObject@@YAXPAVLTObject@@@Z 0046ed80 f   s_object.obj
 0001:0006ded0       ?FullObjectUpdate@@YAXPAVLTObject@@@Z 0046eed0 f   s_object.obj
 0001:0006df80       ?sm_SetObjectSpecialEffectMessage@@YAXPAVLTObject@@ABVCPacket_Read@@@Z 0046ef80 f   s_object.obj
 0001:0006dfb0       ?_Ufill@?$vector@EV?$allocator@E@std@@@std@@IAEPAEPAEIABE@Z 0046efb0 f i s_object.obj
 0001:0006dfe0       ?_Insert_n@?$vector@EV?$allocator@E@std@@@std@@IAEXViterator@12@IABE@Z 0046efe0 f i s_object.obj
 0001:0006e1a0       ?resize@?$vector@EV?$allocator@E@std@@@std@@QAEXIE@Z 0046f1a0 f i s_object.obj
 0001:0006e210       ?LoadObjects@@YAIPAVILTStream@@PBD_NI@Z 0046f210 f   s_object.obj
 0001:0006e8d0       ?_InterfaceImplementation@CServerConsoleState@@UAEPBDXZ 0046f8d0 f i server_consolestate.obj
 0001:0006e8e0       ?se_ChangeSpriteFile@@YAIPAVLTObject@@PBD@Z 0046f8e0 f   server_extradata.obj
 0001:0006e9f0       ?se_ChangeModelFile@@YAIPAVLTObject@@PBD@Z 0046f9f0 f   server_extradata.obj
 0001:0006eac0       ?se_ChangeModelTexture@@YAIPAVLTObject@@PBDI@Z 0046fac0 f   server_extradata.obj
 0001:0006eb60       ?se_ChangeModelRenderStyle@@YAIPAVLTObject@@PBDI@Z 0046fb60 f   server_extradata.obj
 0001:0006ece0       ?sm_InitExtraData@@YAIPAVLTObject@@PAUObjectCreateStruct@@@Z 0046fce0 f   server_extradata.obj
 0001:0006ed50       ?sm_TermExtraData@@YAIPAVLTObject@@@Z 0046fd50 f   server_extradata.obj
 0001:0006eeb0       ?GetFilename@UsedFile@@QAEPADXZ 0046feb0 f   server_filemgr.obj
 0001:0006eec0       ?GetAddedUsedFile@IServerFileMgr@@QAE_NPBDPAPAUUsedFile@@@Z 0046fec0 f   server_filemgr.obj
 0001:0006ef20       ?GetUsedFilename@IServerFileMgr@@QAEPADPAUUsedFile@@@Z 0046ff20 f   server_filemgr.obj
 0001:0006ef40       ??1?$ObjectBank@UUsedFile@@VNullCS@@@@UAE@XZ 0046ff40 f i server_filemgr.obj
 0001:0006ef90       ??_E?$ObjectBank@UUsedFile@@VNullCS@@@@UAEPAXI@Z 0046ff90 f i server_filemgr.obj
 0001:0006ef90       ??_G?$ObjectBank@UUsedFile@@VNullCS@@@@UAEPAXI@Z 0046ff90 f i server_filemgr.obj
 0001:0006efb0       ?AddResources@IServerFileMgr@@QAEXPAPBDHPAW4TreeType@@PAH@Z 0046ffb0 f   server_filemgr.obj
 0001:0006f050       ?OpenFile3@IServerFileMgr@@QAEPAVILTStream@@PAUUsedFile@@@Z 00470050 f   server_filemgr.obj
 0001:0006f0b0       ?CopyFileA@IServerFileMgr@@QAEIPBD0@Z 004700b0 f   server_filemgr.obj
 0001:0006f110       ?DoesFileExist@IServerFileMgr@@QAE_NPBDPAPAPAXPAI@Z 00470110 f   server_filemgr.obj
 0001:0006f190       ?GetFileList@IServerFileMgr@@QAEPAUFileEntry@@PBD@Z 00470190 f   server_filemgr.obj
 0001:0006f1e0       ?AddUsedFile@IServerFileMgr@@QAEHPBDFPAPAUUsedFile@@@Z 004701e0 f   server_filemgr.obj
 0001:0006f330       ?ClearUsedFiles@IServerFileMgr@@QAEXXZ 00470330 f   server_filemgr.obj
 0001:0006f390       ??0?$ObjectBank@UUsedFile@@VNullCS@@@@QAE@XZ 00470390 f i server_filemgr.obj
 0001:0006f3e0       ?OpenFile2@IServerFileMgr@@QAEPAVILTStream@@PBDHF@Z 004703e0 f   server_filemgr.obj
 0001:0006f490       ??1?$CListCircularHead@PAPAX@@QAE@XZ 00470490 f i server_filemgr.obj
 0001:0006f4d0       ?Clear@?$CListCircularHead@PAPAX@@QAEXXZ 004704d0 f i server_filemgr.obj
 0001:0006f510       ??1IServerFileMgr@@QAE@XZ  00470510 f i server_filemgr.obj
 0001:0006f560       ?Init@IServerFileMgr@@QAEXXZ 00470560 f   server_filemgr.obj
 0001:0006f5b0       ?Term@IServerFileMgr@@QAEXXZ 004705b0 f   server_filemgr.obj
 0001:0006f620       ?OpenFile@IServerFileMgr@@QAEPAVILTStream@@PBD@Z 00470620 f   server_filemgr.obj
 0001:0006f640       ??0IServerFileMgr@@QAE@XZ  00470640 f   server_filemgr.obj
 0001:0006f6c0       ?_InterfaceImplementation@IServerFileMgr@@UAEPBDXZ 004706c0 f i server_filemgr.obj
 0001:0006f6d0       ?GetPropA@GenericPropList@@QBEPBUGenericProp@@PBD@Z 004706d0 f i serverde_impl.obj
 0001:0006f730       ?si_GetPointShade@@YA_NPBU?$TVector3@M@@PAU1@@Z 00470730 f   serverde_impl.obj
 0001:0006f790       ?_InterfaceImplementation@CLTServer@@UAEPBDXZ 00470790 f i serverde_impl.obj
 0001:0006f7a0       ?GetSaveFileVersion@CLTServer@@UAEIAAI@Z 004707a0 f i serverde_impl.obj
 0001:0006f7c0       ?Common@CLTServer@@UAEPAVILTCommon@@XZ 004707c0 f   serverde_impl.obj
 0001:0006f7d0       ?Physics@CLTServer@@UAEPAVILTPhysics@@XZ 004707d0 f   serverde_impl.obj
 0001:0006f7e0       ?GetModelLT@CLTServer@@UAEPAVILTModel@@XZ 004707e0 f   serverde_impl.obj
 0001:0006f7f0       ?GetTransformLT@CLTServer@@UAEPAVILTTransform@@XZ 004707f0 f   serverde_impl.obj
 0001:0006f800       ?SoundMgr@CLTServer@@UAEPAVILTSoundMgr@@XZ 00470800 f   serverde_impl.obj
 0001:0006f810       ?GetNumClassProps@CLTServer@@UAEIQAUHCLASS_t@@AAI@Z 00470810 f   serverde_impl.obj
 0001:0006f880       ?GetClassProp@CLTServer@@UAEIQAUHCLASS_t@@IAAVClassPropInfo@@@Z 00470880 f   serverde_impl.obj
 0001:0006f9a0       ?GetClassNameA@CLTServer@@UAEIQAUHCLASS_t@@PADI@Z 004709a0 f   serverde_impl.obj
 0001:0006fa20       ?RemoveObject@CLTServer@@UAEIQAUHCLASS_t@@PAVILTBaseClass@@@Z 00470a20 f   serverde_impl.obj
 0001:0006fa50       ?GetClientPing@CLTServer@@UAEIPAUHCLIENT_t@@AAM@Z 00470a50 f   serverde_impl.obj
 0001:0006faf0       ?GetClientAddr@CLTServer@@UAEIPAUHCLIENT_t@@QAEPAG@Z 00470af0 f   serverde_impl.obj
 0001:0006fbe0       ?SetClientData@CLTServer@@UAE_NPAUHCLIENT_t@@PBEH@Z 00470be0 f   serverde_impl.obj
 0001:0006fc50       ?GetNetFlags@CLTServer@@UAEIPAVLTObject@@AAI@Z 00470c50 f   serverde_impl.obj
 0001:0006fcb0       ?SetNetFlags@CLTServer@@UAEIPAVLTObject@@I@Z 00470cb0 f   serverde_impl.obj
 0001:0006fd20       ?GetHPolyObject@CLTServer@@UAEIUHPOLY@@AAPAVLTObject@@@Z 00470d20 f   serverde_impl.obj
 0001:0006fdf0       ?GetWorldBox@CLTServer@@UAEIAAU?$TVector3@M@@0@Z 00470df0 f   serverde_impl.obj
 0001:0006fe60       ?OpenFile@CLTServer@@UAEIPBDPAPAVILTStream@@@Z 00470e60 f   serverde_impl.obj
 0001:0006ff10       ?CopyFileA@CLTServer@@UAEIPBD0@Z 00470f10 f   serverde_impl.obj
 0001:0006ff20       ?SetModelAnimation@CLTServer@@UAEXPAVLTObject@@I@Z 00470f20 f   serverde_impl.obj
 0001:0006ff40       ?GetModelAnimation@CLTServer@@UAEIPAVLTObject@@@Z 00470f40 f   serverde_impl.obj
 0001:0006ff80       ?SetModelLooping@CLTServer@@UAEXPAVLTObject@@_N@Z 00470f80 f   serverde_impl.obj
 0001:0006ffa0       ?GetModelLooping@CLTServer@@UAE_NPAVLTObject@@@Z 00470fa0 f   serverde_impl.obj
 0001:0006ffd0       ?ResetModelAnimation@CLTServer@@UAEIPAVLTObject@@@Z 00470fd0 f   serverde_impl.obj
 0001:0006fff0       ?GetModelPlaybackState@CLTServer@@UAEIPAVLTObject@@@Z 00470ff0 f   serverde_impl.obj
 0001:00070020       ?CPrint@CLTServer@@UAAXPBDZZ 00471020 f   serverde_impl.obj
 0001:00070060       ?GetContainerCode@CLTServer@@UAE_NPAVLTObject@@PAG@Z 00471060 f   serverde_impl.obj
 0001:00070090       ?GetObjectContainers@CLTServer@@UAEIPAVLTObject@@PAPAV2@I@Z 00471090 f   serverde_impl.obj
 0001:000700e0       ?GetContainedObjects@CLTServer@@UAEIPAVLTObject@@PAPAV2@I@Z 004710e0 f   serverde_impl.obj
 0001:00070130       ?FormatString@CLTServer@@UAAPAUHSTRING_t@@HZZ 00471130 f   serverde_impl.obj
 0001:000701a0       ?CopyString@CLTServer@@UAEPAUHSTRING_t@@PAU2@@Z 004711a0 f   serverde_impl.obj
 0001:000701b0       ?CreateString@CLTServer@@UAEPAUHSTRING_t@@PBD@Z 004711b0 f   serverde_impl.obj
 0001:000701c0       ?FreeString@CLTClient@@UAEXPAUHSTRING_t@@@Z 004711c0 f   clientde_impl.obj
 0001:000701c0       ?FreeString@CLTServer@@UAEXPAUHSTRING_t@@@Z 004711c0 f   serverde_impl.obj
 0001:000701d0       ?CompareStrings@CLTServer@@UAE_NPAUHSTRING_t@@0@Z 004711d0 f   serverde_impl.obj
 0001:000701f0       ?CompareStringsUpper@CLTServer@@UAE_NPAUHSTRING_t@@0@Z 004711f0 f   serverde_impl.obj
 0001:00070210       ?GetStringData@CLTServer@@UAEPBDPAUHSTRING_t@@@Z 00471210 f   serverde_impl.obj
 0001:00070220       ?GetVarValueFloat@CLTServer@@UAEMPAUHCONSOLEVAR_t@@@Z 00471220 f   serverde_impl.obj
 0001:00070240       ?GetVarValueString@CLTServer@@UAEPBDPAUHCONSOLEVAR_t@@@Z 00471240 f   serverde_impl.obj
 0001:00070260       ?GetTime@CLTServer@@UAEMXZ 00471260 f   serverde_impl.obj
 0001:00070270       ?GetFrameTime@CLTServer@@UAEMXZ 00471270 f   serverde_impl.obj
 0001:00070280       ?GetSourceWorldOffset@CLTServer@@UAEIAAU?$TVector3@M@@@Z 00471280 f   serverde_impl.obj
 0001:000702b0       ?RemoveObject@CLTServer@@UAEIPAVLTObject@@@Z 004712b0 f   serverde_impl.obj
 0001:000702d0       ?MoveObject@CLTServer@@UAEIPAVLTObject@@PBU?$TVector3@M@@@Z 004712d0 f   serverde_impl.obj
 0001:000702f0       ?GetStandingOn@CLTServer@@UAEIPAVLTObject@@PAUCollisionInfo@@@Z 004712f0 f   serverde_impl.obj
 0001:00070300       ?GetObjectPos@CLTServer@@UAEIPAVLTObject@@PAU?$TVector3@M@@@Z 00471300 f   serverde_impl.obj
 0001:00070370       ?GetObjectRotation@CLTServer@@UAEIPAVLTObject@@PAULTRotation@@@Z 00471370 f   serverde_impl.obj
 0001:000703f0       ?GetObjectName@CLTServer@@UAEIPAVLTObject@@PADI@Z 004713f0 f   serverde_impl.obj
 0001:00070480       ?GetBlindObjectData@CLTServer@@UAEIIIAAPAEAAI@Z 00471480 f   serverde_impl.obj
 0001:000704b0       ?FreeBlindObjectData@CLTServer@@UAEIII@Z 004714b0 f   serverde_impl.obj
 0001:000704d0       ?GetTextureEffectVarID@CLTServer@@UBEIPBDIPAI@Z 004714d0 f   serverde_impl.obj
 0001:00070550       ?LinkObjRef@CLTServer@@UAEIPAVLTObject@@PAVLTObjRef@@@Z 00471550 f   serverde_impl.obj
 0001:00070590       ?BreakInterObjectLink@CLTServer@@UAEXPAVLTObject@@0@Z 00471590 f   serverde_impl.obj
 0001:000705c0       ?BreakInterObjectLink@CLTServer@@UAEXPAVLTObject@@0_N@Z 004715c0 f   serverde_impl.obj
 0001:00070610       ?si_GetGameInfo@@YAIPAPAXPAI@Z 00471610 f   serverde_impl.obj
 0001:00070640       ?si_GetClass@@YAPAUHCLASS_t@@PBD@Z 00471640 f   serverde_impl.obj
 0001:00070660       ?si_GetStaticObject@@YAIPAUHCLASS_t@@PAPAVLTObject@@@Z 00471660 f   serverde_impl.obj
 0001:000706f0       ?si_GetObjectClass@@YAPAUHCLASS_t@@PAVLTObject@@@Z 004716f0 f   serverde_impl.obj
 0001:00070750       ?si_IsKindOf@@YA_NPAUHCLASS_t@@0@Z 00471750 f   serverde_impl.obj
 0001:00070790       ?BoxFindCallback@@YAXPAVWorldTreeObj@@PAX@Z 00471790 f   serverde_impl.obj
 0001:000707f0       ?si_GetBoxIntersectors@@YAPAUObjectList@@PBU?$TVector3@M@@0@Z 004717f0 f   serverde_impl.obj
 0001:00070870       ?si_RelinquishList@@YAXPAUObjectList@@@Z 00471870 f   serverde_impl.obj
 0001:000708c0       ?si_CreateObjectList@@YAPAUObjectList@@XZ 004718c0 f   serverde_impl.obj
 0001:00070910       ?si_AddObjectToList@@YAPAUObjectLink@@PAUObjectList@@PAVLTObject@@@Z 00471910 f   serverde_impl.obj
 0001:00070960       ?si_RemoveObjectFromList@@YAXPAUObjectList@@PAVLTObject@@@Z 00471960 f   serverde_impl.obj
 0001:000709a0       ?si_GetPropString@@YAIPBDPADH@Z 004719a0 f   serverde_impl.obj
 0001:00070a10       ?si_GetPropVector@@YAIPBDPAU?$TVector3@M@@@Z 00471a10 f   serverde_impl.obj
 0001:00070a80       ?si_GetPropReal@@YAIPBDPAM@Z 00471a80 f   serverde_impl.obj
 0001:00070ac0       ?si_GetPropFlags@@YAIPBDPAI@Z 00471ac0 f   serverde_impl.obj
 0001:00070b00       ?si_GetPropBool@@YAIPBDPA_N@Z 00471b00 f   serverde_impl.obj
 0001:00070b40       ?si_GetPropLongInt@@YAIPBDPAH@Z 00471b40 f   serverde_impl.obj
 0001:00070b80       ?si_GetPropRotation@@YAIPBDPAULTRotation@@@Z 00471b80 f   serverde_impl.obj
 0001:00070be0       ?si_GetPropRotationEuler@@YAIPBDPAU?$TVector3@M@@@Z 00471be0 f   serverde_impl.obj
 0001:00070c30       ?si_GetPropGeneric@@YAIPBDPAUGenericProp@@@Z 00471c30 f   serverde_impl.obj
 0001:00070c80       ?si_DoesPropExist@@YAIPBDPAH@Z 00471c80 f   serverde_impl.obj
 0001:00070cc0       ?si_ObjectToHandle@@YAPAVLTObject@@PAVILTBaseClass@@@Z 00471cc0 f   serverde_impl.obj
 0001:00070cd0       ?si_HandleToObject@@YAPAVILTBaseClass@@PAVLTObject@@@Z 00471cd0 f   serverde_impl.obj
 0001:00070cf0       ?si_CreateObject@@YAPAVILTBaseClass@@PAUHCLASS_t@@PAUObjectCreateStruct@@@Z 00471cf0 f   serverde_impl.obj
 0001:00070d20       ?si_GetServerFlags@@YAIXZ  00471d20 f   serverde_impl.obj
 0001:00070d40       ?si_SetServerFlags@@YAII@Z 00471d40 f   serverde_impl.obj
 0001:00070d60       ?si_CacheFile@@YAIIPBD@Z   00471d60 f   serverde_impl.obj
 0001:00070d70       ?si_IntRandom@@YAHHH@Z     00471d70 f   serverde_impl.obj
 0001:00070d90       ?si_RandomScale@@YAMM@Z    00471d90 f   serverde_impl.obj
 0001:00070db0       ?si_BPrint@@YAXPBDZZ       00471db0 f   serverde_impl.obj
 0001:00070df0       ?si_GetSkyDef@@YAIPAUSkyDef@@@Z 00471df0 f   serverde_impl.obj
 0001:00070e10       ?si_SetSkyDef@@YAIPAUSkyDef@@@Z 00471e10 f   serverde_impl.obj
 0001:00070e40       ?si_AddObjectToSky@@YAIPAVLTObject@@I@Z 00471e40 f   serverde_impl.obj
 0001:00070f00       ?si_RemoveObjectFromSky@@YAIPAVLTObject@@@Z 00471f00 f   serverde_impl.obj
 0001:00070f50       ?si_GetGlobalLightObject@@YAIPAPAVLTObject@@@Z 00471f50 f   serverde_impl.obj
 0001:00070f70       ?si_SetGlobalLightObject@@YAIPAVLTObject@@@Z 00471f70 f   serverde_impl.obj
 0001:00070f90       ?si_AttachClient@@YAIPAUHCLIENT_t@@0@Z 00471f90 f   serverde_impl.obj
 0001:00070ff0       ?si_DetachClient@@YAIPAUHCLIENT_t@@@Z 00471ff0 f   serverde_impl.obj
 0001:00071040       ?si_GetNextClient@@YAPAUHCLIENT_t@@PAU1@@Z 00472040 f   serverde_impl.obj
 0001:00071080       ?si_GetNextClientRef@@YAPAUHCLIENTREF_t@@PAU1@@Z 00472080 f   serverde_impl.obj
 0001:000710b0       ?si_GetClientRefInfoFlags@@YAIPAUHCLIENTREF_t@@@Z 004720b0 f   serverde_impl.obj
 0001:000710d0       ?si_GetClientRefName@@YA_NPAUHCLIENTREF_t@@PADH@Z 004720d0 f   serverde_impl.obj
 0001:00071120       ?si_GetClientRefObject@@YAPAVLTObject@@PAUHCLIENTREF_t@@@Z 00472120 f   serverde_impl.obj
 0001:00071140       ?si_GetClientID@@YAIPAUHCLIENT_t@@@Z 00472140 f   serverde_impl.obj
 0001:00071160       ?si_GetClientHandle@@YAPAUHCLIENT_t@@I@Z 00472160 f   serverde_impl.obj
 0001:00071180       ?si_GetClientName@@YA_NPAUHCLIENT_t@@PADH@Z 00472180 f   serverde_impl.obj
 0001:000711d0       ?si_SetClientName@@YA_NPAUHCLIENT_t@@PBDH@Z 004721d0 f   serverde_impl.obj
 0001:00071240       ?si_SetClientInfoFlags@@YAXPAUHCLIENT_t@@I@Z 00472240 f   serverde_impl.obj
 0001:00071270       ?si_GetClientInfoFlags@@YAIPAUHCLIENT_t@@@Z 00472270 f   serverde_impl.obj
 0001:000712a0       ?si_SetClientUserData@@YAXPAUHCLIENT_t@@PAX@Z 004722a0 f   serverde_impl.obj
 0001:000712b0       ?si_GetClientUserData@@YAPAXPAUHCLIENT_t@@@Z 004722b0 f   serverde_impl.obj
 0001:000712c0       ?si_KickClient@@YAIPAUHCLIENT_t@@@Z 004722c0 f   serverde_impl.obj
 0001:00071350       ?si_SetClientViewPos@@YAIPAUHCLIENT_t@@PBU?$TVector3@M@@@Z 00472350 f   serverde_impl.obj
 0001:000713b0       ?si_RunGameConString@@YAXPBD@Z 004723b0 f   serverde_impl.obj
 0001:000713d0       ?si_SetGameConVar@@YAXPBD0@Z 004723d0 f   serverde_impl.obj
 0001:00071400       ?si_GetGameConVar@@YAPAUHCONSOLEVAR_t@@PBD@Z 00472400 f   serverde_impl.obj
 0001:00071420       ?si_CreateInterObjectLink@@YAIPAVLTObject@@0@Z 00472420 f   serverde_impl.obj
 0001:00071480       ?si_RemoveAttachment@@YAIPAUHATTACHMENT_t@@@Z 00472480 f   serverde_impl.obj
 0001:000715a0       ?si_FindAttachment@@YAIPAVLTObject@@0PAPAUHATTACHMENT_t@@@Z 004725a0 f   serverde_impl.obj
 0001:00071620       ?si_GetObjectColor@@YA_NPAVLTObject@@PAM111@Z 00472620 f   serverde_impl.obj
 0001:000716b0       ?si_SetObjectColor@@YA_NPAVLTObject@@MMMM@Z 004726b0 f   serverde_impl.obj
 0001:00071760       ?si_GetNextObject@@YAPAVLTObject@@PAV1@@Z 00472760 f   serverde_impl.obj
 0001:000717b0       ?si_GetNextInactiveObject@@YAPAVLTObject@@PAV1@@Z 004727b0 f   serverde_impl.obj
 0001:00071800       ?si_SetNextUpdate@@YAXPAVLTObject@@M@Z 00472800 f   serverde_impl.obj
 0001:00071820       ?si_SetObjectState@@YAXPAVLTObject@@H@Z 00472820 f   serverde_impl.obj
 0001:00071870       ?si_GetObjectState@@YAHPAVLTObject@@@Z 00472870 f   serverde_impl.obj
 0001:000718a0       ?si_GetObjectScale@@YAIPAVLTObject@@PAU?$TVector3@M@@@Z 004728a0 f   serverde_impl.obj
 0001:00071910       ?si_ScaleObject@@YAXPAVLTObject@@PBU?$TVector3@M@@@Z 00472910 f   serverde_impl.obj
 0001:00071950       ?si_SetObjectPos@@YAXPAVLTObject@@PBU?$TVector3@M@@@Z 00472950 f   serverde_impl.obj
 0001:00071970       ?si_TeleportObject@@YAIPAVLTObject@@PBU?$TVector3@M@@@Z 00472970 f   serverde_impl.obj
 0001:000719d0       ?si_GetBlockingPriority@@YAEPAVLTObject@@@Z 004729d0 f   serverde_impl.obj
 0001:000719f0       ?si_ClipSprite@@YAIPAVLTObject@@UHPOLY@@@Z 004729f0 f   serverde_impl.obj
 0001:00071a40       ?si_SetBlockingPriority@@YAXPAVLTObject@@E@Z 00472a40 f   serverde_impl.obj
 0001:00071a60       ?si_GetLightColor@@YAXPAVLTObject@@PAM11@Z 00472a60 f   serverde_impl.obj
 0001:00071a90       ?si_SetLightColor@@YAXPAVLTObject@@MMM@Z 00472a90 f   serverde_impl.obj
 0001:00071ad0       ?ci_GetLightRadius@@YAMPAVLTObject@@@Z 00472ad0 f   clientde_impl.obj
 0001:00071ad0       ?si_GetLightRadius@@YAMPAVLTObject@@@Z 00472ad0 f   serverde_impl.obj
 0001:00071af0       ?si_SetLightRadius@@YAXPAVLTObject@@M@Z 00472af0 f   serverde_impl.obj
 0001:00071b20       ?si_SetModelPlaying@@YAXPAVLTObject@@_N@Z 00472b20 f   serverde_impl.obj
 0001:00071b80       ?si_GetModelPlaying@@YA_NPAVLTObject@@@Z 00472b80 f   serverde_impl.obj
 0001:00071ba0       ?si_GetModelFilenames@@YA_NPAVLTObject@@PADH1H@Z 00472ba0 f   serverde_impl.obj
 0001:00071c30       ?si_SaveObjects@@YAIPBDPAUObjectList@@II@Z 00472c30 f   serverde_impl.obj
 0001:00071cb0       ?si_RestoreObjects@@YAIPBDII@Z 00472cb0 f   serverde_impl.obj
 0001:00071d30       ?si_LoadWorld@@YAIPBDI@Z   00472d30 f   serverde_impl.obj
 0001:00071d50       ?si_RunWorld@@YAIXZ        00472d50 f   serverde_impl.obj
 0001:00071d60       ?si_UpdateSessionName@@YAIPBD@Z 00472d60 f   serverde_impl.obj
 0001:00071d80       ?si_GetSessionName@@YAIPADI@Z 00472d80 f   serverde_impl.obj
 0001:00071de0       ?si_GetTcpIpAddress@@YAIPADIAAG@Z 00472de0 f   serverde_impl.obj
 0001:00071e40       ?si_GetMaxConnections@@YAIAAI@Z 00472e40 f   serverde_impl.obj
 0001:00071e60       ?si_SendToServerApp@@YAIAAVILTMessage_Read@@@Z 00472e60 f   serverde_impl.obj
 0001:00071e90       ?si_GetFileList@@YAPAUFileEntry@@PBD@Z 00472e90 f   serverde_impl.obj
 0001:00071eb0       ?AddObject@?$BaseObjArray@PAVLTObject@@@@QAE_NABQAVLTObject@@@Z 00472eb0 f i serverde_impl.obj
 0001:00071ee0       ?GetClientData@CLTServer@@UAE_NPAUHCLIENT_t@@PAEAAH@Z 00472ee0 f   serverde_impl.obj
 0001:00071f30       ?FindNamedObjects@CLTServer@@UAEIPBDAAV?$BaseObjArray@PAVLTObject@@@@PAI@Z 00472f30 f   serverde_impl.obj
 0001:00072020       ?SendToObject@CLTServer@@UAEIPAVILTMessage_Read@@PAVLTObject@@1I@Z 00473020 f   serverde_impl.obj
 0001:000720f0       ?SetObjectSFXMessage@CLTServer@@UAEIPAVLTObject@@PAVILTMessage_Read@@@Z 004730f0 f   serverde_impl.obj
 0001:000721a0       ?SendToServer@CLTServer@@UAEIPAVILTMessage_Read@@PAVLTObject@@I@Z 004731a0 f   serverde_impl.obj
 0001:000722d0       ?si_CastRay@@YA_NPAVIntersectQuery@@PAUIntersectInfo@@@Z 004732d0 f   serverde_impl.obj
 0001:00072360       ?SphereFindCallback@@YAXPAVWorldTreeObj@@PAX@Z 00473360 f   serverde_impl.obj
 0001:00072530       ?si_CreateAttachment@@YAIPAVLTObject@@0PBDPAU?$TVector3@M@@PAULTRotation@@PAPAUHATTACHMENT_t@@@Z 00473530 f   serverde_impl.obj
 0001:000726c0       ?si_GetLastCollision@@YAIPAUCollisionInfo@@@Z 004736c0 f   serverde_impl.obj
 0001:00072780       ?si_DoObjectRotation@@YAIPAVLTObject@@PBULTRotation@@_N@Z 00473780 f   serverde_impl.obj
 0001:000728a0       ?si_RotateObject@@YAIPAVLTObject@@PBULTRotation@@@Z 004738a0 f   serverde_impl.obj
 0001:000728c0       ?si_TiltToPlane@@YAXPAVLTObject@@PBU?$TVector3@M@@@Z 004738c0 f   serverde_impl.obj
 0001:000729f0       ?si_SetObjectRotation@@YAIPAVLTObject@@PBULTRotation@@@Z 004739f0 f   serverde_impl.obj
 0001:00072a10       ?GPCCallback@@YAXPAVWorldTreeObj@@PAX@Z 00473a10 f   serverde_impl.obj
 0001:00072af0       ??0GenericPropList@@QAE@ABV0@@Z 00473af0 f i serverde_impl.obj
 0001:00072bc0       ?FindWorldModelObjectIntersections@CLTServer@@UAEIPAVLTObject@@ABU?$TVector3@M@@ABULTRotation@@AAV?$BaseObjArray@PAVLTObject@@@@@Z 00473bc0 f   serverde_impl.obj
 0001:00072da0       ?GetPointContainers@CLTServer@@UAEIPBU?$TVector3@M@@PAPAVLTObject@@I@Z 00473da0 f   serverde_impl.obj
 0001:00072e00       ?SendTo@CLTServer@@UAEIPAVILTMessage_Read@@PBDG@Z 00473e00 f   serverde_impl.obj
 0001:00072fe0       ?StartPing@CLTServer@@UAEIPBDGPAI@Z 00473fe0 f   serverde_impl.obj
 0001:00073020       ?GetPingStatus@CLTServer@@UAEIIPAI0@Z 00474020 f   serverde_impl.obj
 0001:00073060       ?RemovePing@CLTServer@@UAEII@Z 00474060 f   serverde_impl.obj
 0001:000730a0       ??0ObjectCreateStruct@@QAE@ABU0@@Z 004740a0 f i serverde_impl.obj
 0001:000731d0       ?SendFileIOMessage@CLTServer@@IAEXEEG_N@Z 004741d0 f   serverde_impl.obj
 0001:000732f0       ?ThreadLoadTexture@CLTServer@@IAEIPBD@Z 004742f0 f   serverde_impl.obj
 0001:00073370       ?UnloadTexture@CLTServer@@IAEIPBD@Z 00474370 f   serverde_impl.obj
 0001:000733f0       ?SendToClient@CLTServer@@UAEIPAVILTMessage_Read@@PAUHCLIENT_t@@I@Z 004743f0 f   serverde_impl.obj
 0001:00073590       ?SendSFXMessage@CLTServer@@UAEIPAVILTMessage_Read@@ABU?$TVector3@M@@I@Z 00474590 f   serverde_impl.obj
 0001:000736e0       ?si_CreateObjectProps@@YAPAVILTBaseClass@@PAUHCLASS_t@@PAUObjectCreateStruct@@PBD@Z 004746e0 f   serverde_impl.obj
 0001:00073960       ?SetupFunctionPointers@CLTServer@@QAEXXZ 00474960 f   serverde_impl.obj
 0001:00073d40       ?CreateLTServerDE@@YAXXZ   00474d40 f   serverde_impl.obj
 0001:00073d50       ?ThreadLoadFile@CLTServer@@UAEIPBDI@Z 00474d50 f   serverde_impl.obj
 0001:00073e20       ?UnloadFile@CLTServer@@UAEIPBDI@Z 00474e20 f   serverde_impl.obj
 0001:00073ef0       ?DecrementRefCount@CServerEvent@@QAEXXZ 00474ef0 f   serverevent.obj
 0001:00073f60       ??1LTObjRef@@UAE@XZ        00474f60 f i servermgr.obj
 0001:00073f70       ?OnObjDelete@LTObjRef@@UAEXXZ 00474f70 f i servermgr.obj
 0001:00073f80       ?ci_GetRawDeviceActuatorDataSize@@YAII@Z 00474f80 f i clientde_impl.obj
 0001:00073f80       ?Get@CConIterator@@UBEPBDXZ 00474f80 f i consolecommands.obj
 0001:00073f80       ?ci_GetRawDeviceDataSize@@YAII@Z 00474f80 f i clientde_impl.obj
 0001:00073f80       ?GetPolyCount@CDIModelDrawable@@UAEIXZ 00474f80 f i d3d_model_load.obj
 0001:00073f80       ?Close@CRezFileSingleFile@@UAEHXZ 00474f80 f i Lib_RezMgr:rezfile.obj
 0001:00073f80       ?GetFileName@CRezFileDirectoryEmulation@@UAEPADXZ 00474f80 f i Lib_RezMgr:rezfile.obj
 0001:00073f80       ?GetSetupData@CBaseFilter@@UAEPAU_AMOVIESETUP_FILTER@@XZ 00474f80 f i dshowvideomgrimpl.obj
 0001:00073f80       ?GetVertexCount@CDIModelDrawable@@UAEIXZ 00474f80 f i d3d_model_load.obj
 0001:00073f80       ?GetTransportOverhead@CBaseConn@@UBEIXZ 00474f80 f i netmgr.obj
 0001:00073f80       ?ci_GetNumRawDevices@@YAIXZ 00474f80 f i clientde_impl.obj
 0001:00073f80       ?Active@CBaseRenderer@@UAEJXZ 00474f80 f i Lib_DShow:renbase.obj
 0001:00073f80       ?GetDataSize@NULLQUATChannel@@UBEIXZ 00474f80 f i model.obj
 0001:00073f80       ?GetShaderID@CRenderShader_Gouraud@@UBE?AW4ERenderShader@@XZ 00474f80 f i LIB_D3DRender:d3d_renderworld.obj
 0001:00073f80       ?GetReceiver@LTObjRef@@UBEPAVILTObjRefReceiver@@XZ 00474f80 f i servermgr.obj
 0001:00073f80       ?OnStopStreaming@CBaseRenderer@@UAEJXZ 00474f80 f i Lib_DShow:renbase.obj
 0001:00073f80       ?VerifyFileOpen@CRezFileSingleFile@@UAEHXZ 00474f80 f i Lib_RezMgr:rezfile.obj
 0001:00073f80       ?IsServer@CMoveAbstract@@UAEIXZ 00474f80 f i cmoveabstract.obj
 0001:00073f80       ?GetIncomingBandwidthUsage@CBaseConn@@UBEIXZ 00474f80 f i netmgr.obj
 0001:00073f80       ?DiskError@CRezMgr@@UAEHXZ 00474f80 f i Lib_RezMgr:rezmgr.obj
 0001:00073f80       ?GetDataSize@NULLPOSChannel@@UBEIXZ 00474f80 f i model.obj
 0001:00073f80       ?GetTransportOverhead@CUDPConn@@UBEIXZ 00474f80 f i udpdriver.obj
 0001:00073f80       ?OnStartStreaming@CBaseRenderer@@UAEJXZ 00474f80 f i Lib_DShow:renbase.obj
 0001:00073f80       ?GetOutgoingBandwidthUsage@CBaseConn@@UBEIXZ 00474f80 f i netmgr.obj
 0001:00073f80       ?input_PlayJoystickEffect@@YAJPAVInputMgr@@PBDMM@Z 00474f80 f i input.obj
 0001:00073f80       ?Init@DShowVideoMgr@@QAEIXZ 00474f80 f i dshowvideomgrimpl.obj
 0001:00073f80       ?GetType@CUIWidget_Impl@@UAE?AW4CUI_WIDGETTYPE@@XZ 00474f80 f i Lib_UI:cuiwidget_impl.obj
 0001:00073f90       ??_GLTObjRef@@UAEPAXI@Z    00474f90 f i servermgr.obj
 0001:00073f90       ??_ELTObjRef@@UAEPAXI@Z    00474f90 f i servermgr.obj
 0001:00073fc0       ?s_DisassociateClientsFromObjects@@YAXXZ 00474fc0 f   servermgr.obj
 0001:00074000       ?sm_UpdateClientStates@@YAXXZ 00475000 f   servermgr.obj
 0001:00074060       ?sm_UpdateClientsInWorld@@YAXXZ 00475060 f   servermgr.obj
 0001:000740c0       ?_ServerStringWhine@@YAXPBDPAX@Z 004750c0 f   servermgr.obj
 0001:000740e0       ?LoadBinaries@CServerMgr@@QAE_NXZ 004750e0 f   servermgr.obj
 0001:00074100       ?SetGameInfo@CServerMgr@@QAEXPAXI@Z 00475100 f   servermgr.obj
 0001:00074150       ?GetClientFromId@CServerMgr@@QAEPAUClient@@I@Z 00475150 f   servermgr.obj
 0001:00074180       ?PreUpdateObjects@CServerMgr@@QAEXXZ 00475180 f   servermgr.obj
 0001:00074260       ?UpdateSounds@CServerMgr@@QAEXM@Z 00475260 f   servermgr.obj
 0001:000742a0       ?GetErrorString@CServerMgr@@QAEXPADH@Z 004752a0 f   servermgr.obj
 0001:000742e0       ?ServerLoadChildModelCB@@YAIPAVModelLoadRequest@@PAPAVModel@@@Z 004752e0 f   servermgr.obj
 0001:000743a0       ?LoadModel@CServerMgr@@QAEIPBDAAPAVModel@@@Z 004753a0 f   servermgr.obj
 0001:00074790       ?ResizeUpdateInfos@CServerMgr@@QAEXI@Z 00475790 f   servermgr.obj
 0001:00074870       ?GetSoundData@CServerMgr@@QAEPAVCSoundData@@PAUUsedFile@@@Z 00475870 f   servermgr.obj
 0001:00074930       ?sm_SetupError@@YAIIZZ     00475930 f   servermgr.obj
 0001:00074960       ?sm_RemoveAllSoundInstances@@YAXXZ 00475960 f   servermgr.obj
 0001:000749c0       ?sm_SendToVisibleClients@@YAIABVCPacket_Read@@_NABU?$TVector3@M@@I@Z 004759c0 f   servermgr.obj
 0001:00074a10       ?sm_CacheSingleFile@@YAXGG@Z 00475a10 f   servermgr.obj
 0001:00074b40       ?SetGlobalLightObject@CServerMgr@@QAEXPAVLTObject@@@Z 00475b40 f   servermgr.obj
 0001:00074ba0       ?LoadWorld@CServerMgr@@QAEIPAVILTStream@@PBD@Z 00475ba0 f   servermgr.obj
 0001:00074c30       ?_Xlen@?$vector@VLTObjRef@@V?$allocator@VLTObjRef@@@std@@@std@@IBEXXZ 00475c30 f i servermgr.obj
 0001:00074cb0       ??1?$ObjectBank@VSObjData@@VNullCS@@@@UAE@XZ 00475cb0 f i servermgr.obj
 0001:00074d00       ?Term@?$ObjectBank@VSObjData@@VNullCS@@@@UAEXXZ 00475d00 f i servermgr.obj
 0001:00074d20       ??$fill@PAVLTObjRef@@V1@@std@@YAXPAVLTObjRef@@0ABV1@@Z 00475d20 f i servermgr.obj
 0001:00074d60       ??_E?$ObjectBank@VSObjData@@VNullCS@@@@UAEPAXI@Z 00475d60 f i servermgr.obj
 0001:00074d60       ??_G?$ObjectBank@VSObjData@@VNullCS@@@@UAEPAXI@Z 00475d60 f i servermgr.obj
 0001:00074d80       ??1SObjData@@QAE@XZ        00475d80 f i servermgr.obj
 0001:00074da0       ??$_Copy_backward_opt@PAVLTObjRef@@PAV1@@std@@YAPAVLTObjRef@@PAV1@00U_Nonscalar_ptr_iterator_tag@0@@Z 00475da0 f i servermgr.obj
 0001:00074df0       ?sm_FreeID@@YAXPAVLTLink@@@Z 00475df0 f   servermgr.obj
 0001:00074e30       ?Init@CServerMgr@@QAE_NXZ  00475e30 f   servermgr.obj
 0001:00075170       ?Listen@CServerMgr@@QAE_NPBD0@Z 00476170 f   servermgr.obj
 0001:000751b0       ?AddResources@CServerMgr@@QAE_NPAPBDI@Z 004761b0 f   servermgr.obj
 0001:00075220       ?sm_ClearChangedObjectList@@YAXXZ 00476220 f   servermgr.obj
 0001:000752a0       ?sm_MergeClientChangeLists@@YAXXZ 004762a0 f   servermgr.obj
 0001:000753a0       ?sm_FinishUpdateFrame@@YAXXZ 004763a0 f   servermgr.obj
 0001:000753e0       ?RemoveSounds@CServerMgr@@QAEXXZ 004763e0 f   servermgr.obj
 0001:00075470       ?InternalResetFlowControl@CServerMgr@@AAEXXZ 00476470 f   servermgr.obj
 0001:000755b0       ?sm_StartCachingFiles@@YAIXZ 004765b0 f   servermgr.obj
 0001:00075600       ?sm_RemoveAllSounds@@YAXXZ 00476600 f   servermgr.obj
 0001:00075650       ?sm_RemoveAllUnusedSoundData@@YAXXZ 00476650 f   servermgr.obj
 0001:000756b0       ?sm_RemoveAllUnusedSoundTracks@@YAXXZ 004766b0 f   servermgr.obj
 0001:00075740       ??0?$ObjectBank@VSObjData@@VNullCS@@@@QAE@XZ 00476740 f i servermgr.obj
 0001:00075790       ?Update@CServerMgr@@QAE_NHI@Z 00476790 f   servermgr.obj
 0001:00075950       ?GetLocalDriver@CServerMgr@@QAEPAVCBaseDriver@@XZ 00476950 f   servermgr.obj
 0001:000759b0       ?DoRunWorld@CServerMgr@@QAEIXZ 004769b0 f   servermgr.obj
 0001:00075aa0       ?Insert2@?$CMoArray@ULTRecord@@VDefaultCache@@@@QAEIIABULTRecord@@PAVLAlloc@@@Z 00476aa0 f i servermgr.obj
 0001:00075aa0       ?Insert2@?$CMoArray@VSBank@@VDefaultCache@@@@QAEIIABVSBank@@PAVLAlloc@@@Z 00476aa0 f i Lib_StdLith:stringholder.obj
 0001:00075bc0       ??$_Uninit_copy@Viterator@?$vector@VLTObjRef@@V?$allocator@VLTObjRef@@@std@@@std@@PAVLTObjRef@@V?$allocator@VLTObjRef@@@3@@std@@YAPAVLTObjRef@@Viterator@?$vector@VLTObjRef@@V?$allocator@VLTObjRef@@@std@@@0@0PAV1@AAV?$allocator@VLTObjRef@@@0@U_Nonscalar_ptr_iterator_tag@0@@Z 00476bc0 f i servermgr.obj
 0001:00075bc0       ??$_Uninit_copy@PAVLTObjRef@@PAV1@V?$allocator@VLTObjRef@@@std@@@std@@YAPAVLTObjRef@@PAV1@00AAV?$allocator@VLTObjRef@@@0@U_Nonscalar_ptr_iterator_tag@0@@Z 00476bc0 f i servermgr.obj
 0001:00075c60       ??0SObjData@@QAE@XZ        00476c60 f i servermgr.obj
 0001:00075d40       ?SendLoadRequest@@YAXPBVModel@@PAUClient@@@Z 00476d40 f   servermgr.obj
 0001:00075e80       ?SendFileIOMessage@CServerMgr@@AAEXEEG@Z 00476e80 f   servermgr.obj
 0001:00075fa0       ?CacheModelFile@CServerMgr@@QAEIPBD@Z 00476fa0 f   servermgr.obj
 0001:00076050       ?UncacheModelFile@CServerMgr@@QAEIPAVModel@@@Z 00477050 f   servermgr.obj
 0001:000760d0       ?SendPreloadMsgToClientCB@@YAXABVModel@@PAX@Z 004770d0 f   servermgr.obj
 0001:00076200       ?SendPreloadModelMsgToClient@CServerMgr@@QAEXPAUClient@@@Z 00477200 f   servermgr.obj
 0001:00076360       ?SendChangeChildModel@CServerMgr@@QAEXGG@Z 00477360 f   servermgr.obj
 0001:00076480       ?sm_DestroyServerData@@YAIPAVLTObject@@@Z 00477480 f   servermgr.obj
 0001:000765e0       ?BPrint@@YAXPBDZZ          004775e0 f   servermgr.obj
 0001:00076710       ?sm_CacheFile@@YAIIPBD@Z   00477710 f   servermgr.obj
 0001:00076910       ?sm_RemoveObjectFromWorld@@YAIPAVILTBaseClass@@@Z 00477910 f   servermgr.obj
 0001:00076ac0       ?FreeVoid@?$ObjectBank@VSObjData@@VNullCS@@@@UAEXPAX@Z 00477ac0 f i servermgr.obj
 0001:00076ae0       ?Allocate@?$ObjectBank@VSObjData@@VNullCS@@@@QAEPAVSObjData@@XZ 00477ae0 f i servermgr.obj
 0001:00076b60       ??$_Uninit_fill_n@PAVLTObjRef@@IV1@V?$allocator@VLTObjRef@@@std@@@std@@YAXPAVLTObjRef@@IABV1@AAV?$allocator@VLTObjRef@@@0@U_Nonscalar_ptr_iterator_tag@0@@Z 00477b60 f i servermgr.obj
 0001:00076c00       ?sm_CreateServerData@@YAIPAUObjectCreateStruct@@PAUClassDef@@PAVLTObject@@PAVILTBaseClass@@PAPAVSObjData@@@Z 00477c00 f   servermgr.obj
 0001:00076d20       ??1?$CMoArray@ULTRecord@@VDefaultCache@@@@QAE@XZ 00477d20 f i servermgr.obj
 0001:00076d50       ?Remove2@?$CMoArray@VSBank@@VDefaultCache@@@@QAEXIPAVLAlloc@@@Z 00477d50 f i Lib_StdLith:stringholder.obj
 0001:00076d50       ?Remove2@?$CMoArray@ULTRecord@@VDefaultCache@@@@QAEXIPAVLAlloc@@@Z 00477d50 f i servermgr.obj
 0001:00076e50       ?InternalNiceSetSize@?$CMoArray@ULTRecord@@VDefaultCache@@@@AAEIIIPAVLAlloc@@@Z 00477e50 f i servermgr.obj
 0001:00076e50       ?InternalNiceSetSize@?$CMoArray@VSBank@@VDefaultCache@@@@AAEIIIPAVLAlloc@@@Z 00477e50 f i Lib_StdLith:stringholder.obj
 0001:00076f30       ?AllocVoid@?$ObjectBank@VSObjData@@VNullCS@@@@UAEPAXXZ 00477f30 f i servermgr.obj
 0001:00076f40       ?_Destroy@?$vector@VLTObjRef@@V?$allocator@VLTObjRef@@@std@@@std@@IAEXPAVLTObjRef@@0@Z 00477f40 f i servermgr.obj
 0001:00076f70       ?_Tidy@?$vector@VLTObjRef@@V?$allocator@VLTObjRef@@@std@@@std@@IAEXXZ 00477f70 f i servermgr.obj
 0001:00076fc0       ?TransferNetDriver@CServerMgr@@QAE_NPAVCBaseDriver@@@Z 00477fc0 f   servermgr.obj
 0001:00077040       ?sm_CreateNewID@@YAIPAPAVLTLink@@@Z 00478040 f   servermgr.obj
 0001:00077120       ??1?$vector@VLTObjRef@@V?$allocator@VLTObjRef@@@std@@@std@@QAE@XZ 00478120 f i servermgr.obj
 0001:00077130       ?reserve@?$vector@VLTObjRef@@V?$allocator@VLTObjRef@@@std@@@std@@QAEXI@Z 00478130 f i servermgr.obj
 0001:00077220       ?_Ufill@?$vector@VLTObjRef@@V?$allocator@VLTObjRef@@@std@@@std@@IAEPAVLTObjRef@@PAV3@IABV3@@Z 00478220 f i servermgr.obj
 0001:00077250       ?_Insert_n@?$vector@VLTObjRef@@V?$allocator@VLTObjRef@@@std@@@std@@IAEXViterator@12@IABVLTObjRef@@@Z 00478250 f i servermgr.obj
 0001:00077510       ?sm_AllocateID@@YAIPAPAVLTLink@@G@Z 00478510 f   servermgr.obj
 0001:00077680       ??0CServerMgr@@QAE@XZ      00478680 f   servermgr.obj
 0001:000777f0       ?sm_AddObjectToWorld@@YAIPAVILTBaseClass@@PAUClassDef@@PAUObjectCreateStruct@@GMPAPAVLTObject@@@Z 004787f0 f   servermgr.obj
 0001:00077a40       ?EZCreateObject@CServerMgr@@QAEPAVILTBaseClass@@PAVCClassData@@PAUObjectCreateStruct@@@Z 00478a40 f   servermgr.obj
 0001:00077ae0       ?CreateVisContainerObjects@CServerMgr@@QAE_NXZ 00478ae0 f   servermgr.obj
 0001:00077ca0       ?sm_RemoveAllObjectsFromWorld@@YAX_N@Z 00478ca0 f   servermgr.obj
 0001:00077ea0       ?DoEndWorld@CServerMgr@@QAEX_N@Z 00478ea0 f   servermgr.obj
 0001:00077f30       ?Term@CServerMgr@@QAEXXZ   00478f30 f   servermgr.obj
 0001:00078160       ?DoStartWorld@CServerMgr@@QAEIPBDII@Z 00479160 f   servermgr.obj
 0001:00078480       ??_ECServerMgr@@UAEPAXI@Z  00479480 f i servermgr.obj
 0001:00078480       ??_GCServerMgr@@UAEPAXI@Z  00479480 f i servermgr.obj
 0001:000784a0       ??1CServerMgr@@UAE@XZ      004794a0 f i servermgr.obj
 0001:00078590       ?LoadSprite@@YAIPAVFileRef@@PAPAUSprite@@@Z 00479590 f   setupobject.obj
 0001:00078730       ?ModelSetTexture@@YAIPAVFileRef@@PAVModelInstance@@I@Z 00479730 f   setupobject.obj
 0001:00078840       ?ModelSetRenderStyle@@YAIPAVFileRef@@PAVModelInstance@@I@Z 00479840 f   setupobject.obj
 0001:00078ba0       ?so_ExtraInit@@YAIPAVLTObject@@PAVInternalObjectSetup@@_N@Z 00479ba0 f   setupobject.obj
 0001:00078bc0       ?so_ExtraTerm@@YAIPAVLTObject@@@Z 00479bc0 f   setupobject.obj
 0001:00079490       ?ReadSoundSubPacket@@YAIPAVCClientShell@@AAVCPacket_Read@@GG@Z 0047a490 f i shellnet.obj
 0001:00079990       ?NewConnectionNotify@CClientShell@@UAE_NPAVCBaseConn@@_N@Z 0047a990 f   shellnet.obj
 0001:000799c0       ?DisconnectNotify@CClientShell@@UAEXPAVCBaseConn@@W4EDisconnectReason@@@Z 0047a9c0 f   shellnet.obj
 0001:00079a10       ?ReadLTVector@CPacket_Read@@QAE?AU?$TVector3@M@@XZ 0047aa10 f i shellnet.obj
 0001:0007a690       ??0CSubMsg_Client@@QAE@ABVCPacket_Read@@@Z 0047b690 f i shellnet.obj
 0001:0007aa30       ?ReadObjectSubPacket@@YAIPAVCClientShell@@AAVCPacket_Read@@GG@Z 0047ba30 f i shellnet.obj
 0001:0007b600       ?HandleUnknownPacket@CClientShell@@UAEXABVCPacket_Read@@QAEG@Z 0047c600 f   shellnet.obj
 0001:0007b680       ?InitHandlers@CClientShell@@QAEXXZ 0047c680 f   shellnet.obj
 0001:0007b740       ?ProcessPacket@CClientShell@@QAEIABVCPacket_Read@@@Z 0047c740 f   shellnet.obj
 0001:0007b840       ?ProcessPackets@CClientShell@@QAEIXZ 0047c840 f   shellnet.obj
 0001:0007b920       ?SendGoodbye@CClientShell@@QAEXXZ 0047c920 f   shellnet.obj
 0001:0007ba00       ?GetClientObject@CClientShell@@QAEPAVLTObject@@XZ 0047ca00 f   shellutil.obj
 0001:0007ba20       ?SetObjectChangeFlags@SMoveAbstract@@UAEXPAVLTObject@@I@Z 0047ca20 f   smoveabstract.obj
 0001:0007ba40       ?GetCollisionInfo@SMoveAbstract@@UAEAAPAUCollisionInfo@@XZ 0047ca40 f   smoveabstract.obj
 0001:0007ba50       ?DoCrush@SMoveAbstract@@UAEXPAVLTObject@@0@Z 0047ca50 f   smoveabstract.obj
 0001:0007ba70       ?PutObjectInContainer@SMoveAbstract@@UAEXPAVLTObject@@0@Z 0047ca70 f   smoveabstract.obj
 0001:0007baa0       ?BreakContainerLinks@SMoveAbstract@@UAEXPAVLTObject@@@Z 0047caa0 f   smoveabstract.obj
 0001:0007bac0       ?ShouldPushObject@SMoveAbstract@@UAEIPAVMoveState@@PAVLTObject@@1@Z 0047cac0 f   smoveabstract.obj
 0001:0007baf0       ?CanOptimizeObject@SMoveAbstract@@UAEIPAVLTObject@@@Z 0047caf0 f   smoveabstract.obj
 0001:0007bb10       ?GetObjectClassName@SMoveAbstract@@UAEPADPAVLTObject@@@Z 0047cb10 f   smoveabstract.obj
 0001:0007bb30       ?GetPhysics@SMoveAbstract@@UAEPAVILTPhysics@@XZ 0047cb30 f   smoveabstract.obj
 0001:0007bb40       ?DoTouchNotify@SMoveAbstract@@UAEXPAVLTObject@@0AAU?$TVector3@M@@M@Z 0047cb40 f   smoveabstract.obj
 0001:0007bba0       ?CheckMaxPos@SMoveAbstract@@UAEXPAVMoveState@@PAU?$TVector3@M@@@Z 0047cba0 f   smoveabstract.obj
 0001:0007bc30       ?FullMoveObject@@YAXPAVLTObject@@PBU?$TVector3@M@@I@Z 0047cc30 f   smoveabstract.obj
 0001:0007bcc0       ?MoveAttachments@SMoveAbstract@@UAEXPAVMoveState@@@Z 0047ccc0 f   smoveabstract.obj
 0001:0007bec0       ??0CSoundBuffer@@QAE@XZ    0047cec0 f   soundbuffer.obj
 0001:0007bf10       ?Init@CSoundBuffer@@UAEIAAUFileIdentifier@@@Z 0047cf10 f   soundbuffer.obj
 0001:0007bf60       ?CalcSampleType@CSoundBuffer@@IAEXAAJAAUtWAVEFORMATEX@@@Z 0047cf60 f i soundbuffer.obj
 0001:0007bfc0       ?LoadDataFromDecompressed@CSoundBuffer@@IAEIXZ 0047cfc0 f   soundbuffer.obj
 0001:0007c0a0       ?Reload@CSoundBuffer@@UAEIXZ 0047d0a0 f   soundbuffer.obj
 0001:0007c0d0       ?CanPlay@CSoundBuffer@@QAEIAAVCSoundInstance@@@Z 0047d0d0 f   soundbuffer.obj
 0001:0007c170       ?CopySoundData16to8@CSoundBuffer@@IAEIPAE0I@Z 0047d170 f   soundbuffer.obj
 0001:0007c1b0       ?Allocate@?$ObjectBank@VCSoundBuffer@@VNullCS@@@@QAEPAVCSoundBuffer@@XZ 0047d1b0 f i soundbuffer.obj
 0001:0007c1f0       ?InitFromCompressed@CSoundBuffer@@UAEIAAV1@@Z 0047d1f0 f   soundbuffer.obj
 0001:0007c2e0       ?Term@CSoundBuffer@@UAEXXZ 0047d2e0 f   soundbuffer.obj
 0001:0007c3d0       ?DecompressData@CSoundBuffer@@QAEIXZ 0047d3d0 f   soundbuffer.obj
 0001:0007c470       ?Unload@CSoundBuffer@@UAEIXZ 0047d470 f   soundbuffer.obj
 0001:0007c520       ?AddInstance@CSoundBuffer@@QAEIAAVCSoundInstance@@@Z 0047d520 f   soundbuffer.obj
 0001:0007c5b0       ?RemoveInstance@CSoundBuffer@@QAEIAAVCSoundInstance@@@Z 0047d5b0 f   soundbuffer.obj
 0001:0007c620       ?LoadData@CSoundBuffer@@MAEIXZ 0047d620 f   soundbuffer.obj
 0001:0007ca80       ??_ECSoundBuffer@@UAEPAXI@Z 0047da80 f i soundbuffer.obj
 0001:0007ca80       ??_GCSoundBuffer@@UAEPAXI@Z 0047da80 f i soundbuffer.obj
 0001:0007cab0       ?Term@CSoundData@@QAEXXZ   0047dab0 f   sounddata.obj
 0001:0007cac0       ?Init@CSoundData@@QAEIPAUUsedFile@@PAVILTStream@@I@Z 0047dac0 f   sounddata.obj
 0001:0007cb50       ?Init@CSoundInstance@@UAEIAAVCSoundBuffer@@AAUPlaySoundInfo@@I@Z 0047db50 f   soundinstance.obj
 0001:0007cd20       ?DisconnectFromServer@CSoundInstance@@QAEIXZ 0047dd20 f   soundinstance.obj
 0001:0007cd50       ?Stop@CSoundInstance@@UAEII@Z 0047dd50 f   soundinstance.obj
 0001:0007cd70       ?Silence@CSoundInstance@@UAEII@Z 0047dd70 f   soundinstance.obj
 0001:0007ce70       ?Pause@CSoundInstance@@UAEIXZ 0047de70 f   soundinstance.obj
 0001:0007cea0       ?Resume@CSoundInstance@@UAEIXZ 0047dea0 f   soundinstance.obj
 0001:0007cee0       ?UpdateTimer@CSoundInstance@@QAEII@Z 0047dee0 f   soundinstance.obj
 0001:0007d0a0       ?GetVolume@CSoundInstance@@UAEIAAG@Z 0047e0a0 f   soundinstance.obj
 0001:0007d0c0       ?SetVolume@CSoundInstance@@UAEIG@Z 0047e0c0 f   soundinstance.obj
 0001:0007d200       ?SetPan@CSoundInstance@@UAEIG@Z 0047e200 f   soundinstance.obj
 0001:0007d270       ?StartRendering@CSoundInstance@@MAEIXZ 0047e270 f   soundinstance.obj
 0001:0007d3e0       ?EndLoop@CSoundInstance@@QAEIXZ 0047e3e0 f   soundinstance.obj
 0001:0007d4b0       ?Unload@CSoundInstance@@QAEIXZ 0047e4b0 f   soundinstance.obj
 0001:0007d4e0       ?Reload@CSoundInstance@@QAEIXZ 0047e4e0 f   soundinstance.obj
 0001:0007d530       ?Init@CLocalSoundInstance@@UAEIAAVCSoundBuffer@@AAUPlaySoundInfo@@I@Z 0047e530 f   soundinstance.obj
 0001:0007d580       ?Preupdate@CLocalSoundInstance@@UAEIABU?$TVector3@M@@@Z 0047e580 f   soundinstance.obj
 0001:0007d5a0       ?Init@CAmbientSoundInstance@@UAEIAAVCSoundBuffer@@AAUPlaySoundInfo@@I@Z 0047e5a0 f   soundinstance.obj
 0001:0007d5f0       ?Init@C3DSoundInstance@@UAEIAAVCSoundBuffer@@AAUPlaySoundInfo@@I@Z 0047e5f0 f   soundinstance.obj
 0001:0007d640       ?SetObstruction@C3DSoundInstance@@UAEIM@Z 0047e640 f   soundinstance.obj
 0001:0007d670       ?GetObstruction@C3DSoundInstance@@UAEIAAM@Z 0047e670 f   soundinstance.obj
 0001:0007d6a0       ?SetOcclusion@C3DSoundInstance@@UAEIM@Z 0047e6a0 f   soundinstance.obj
 0001:0007d6d0       ?GetOcclusion@C3DSoundInstance@@UAEIAAM@Z 0047e6d0 f   soundinstance.obj
 0001:0007d700       ??0CSoundInstance@@QAE@XZ  0047e700 f   soundinstance.obj
 0001:0007d760       ?GetServiceList@CBaseDriver@@UAEIAAPAVNetService@@@Z 0047e760 f i localdriver.obj
 0001:0007d760       ?JoinSession@CBaseDriver@@UAEIPAVNetSession@@@Z 0047e760 f i localdriver.obj
 0001:0007d760       ?StartQuery@CBaseDriver@@UAEIPBD@Z 0047e760 f i localdriver.obj
 0001:0007d760       ?SetObstruction@CSoundInstance@@UAEIM@Z 0047e760 f i soundinstance.obj
 0001:0007d760       ?SetSessionName@CBaseDriver@@UAEIPBD@Z 0047e760 f i localdriver.obj
 0001:0007d760       ?GetOcclusion@CSoundInstance@@UAEIAAM@Z 0047e760 f i soundinstance.obj
 0001:0007d760       ?HostLobbyLaunchSession@CBaseDriver@@UAEIPAUNetHost@@@Z 0047e760 f i localdriver.obj
 0001:0007d760       ?GetObstruction@CSoundInstance@@UAEIAAM@Z 0047e760 f i soundinstance.obj
 0001:0007d760       ?SelectService@CBaseDriver@@UAEIPAVBaseService@@@Z 0047e760 f i localdriver.obj
 0001:0007d760       ?RemovePing@CBaseDriver@@UAEII@Z 0047e760 f i localdriver.obj
 0001:0007d760       ?GetQueryResults@CBaseDriver@@UAEIAAPAVNetSession@@@Z 0047e760 f i localdriver.obj
 0001:0007d760       ?GetMaxConnections@CBaseDriver@@UAEIAAI@Z 0047e760 f i localdriver.obj
 0001:0007d760       ?HostSession@CBaseDriver@@UAEIPAUNetHost@@@Z 0047e760 f i localdriver.obj
 0001:0007d760       ?SetOcclusion@CSoundInstance@@UAEIM@Z 0047e760 f i soundinstance.obj
 0001:0007d770       ?GetPosition@CSoundInstance@@UAEIAAU?$TVector3@M@@@Z 0047e770 f i soundinstance.obj
 0001:0007d790       ?SetPosition@CSoundInstance@@UAEIABU?$TVector3@M@@I@Z 0047e790 f i soundinstance.obj
 0001:0007d7b0       ?Term@CSoundInstance@@UAEXXZ 0047e7b0 f   soundinstance.obj
 0001:0007d870       ?AcquireSample@CSoundInstance@@QAEIXZ 0047e870 f   soundinstance.obj
 0001:0007db80       ?Acquire3DSample@CSoundInstance@@UAEIXZ 0047eb80 f   soundinstance.obj
 0001:0007dfa0       ?AcquireStream@CSoundInstance@@QAEIXZ 0047efa0 f   soundinstance.obj
 0001:0007e0e0       ?PreUpdatePositionalSound@CSoundInstance@@IAEIABU?$TVector3@M@@@Z 0047f0e0 f   soundinstance.obj
 0001:0007e1c0       ?Get3DSamplePosition@CLocalSoundInstance@@UAEIAAU?$TVector3@M@@@Z 0047f1c0 f   soundinstance.obj
 0001:0007e210       ?UpdateOutput@CLocalSoundInstance@@UAEII@Z 0047f210 f   soundinstance.obj
 0001:0007e3f0       ?Get3DSamplePosition@CAmbientSoundInstance@@UAEIAAU?$TVector3@M@@@Z 0047f3f0 f   soundinstance.obj
 0001:0007e480       ?UpdateOutput@CAmbientSoundInstance@@UAEII@Z 0047f480 f   soundinstance.obj
 0001:0007e740       ?Get3DSamplePosition@C3DSoundInstance@@UAEIAAU?$TVector3@M@@@Z 0047f740 f   soundinstance.obj
 0001:0007e780       ?Preupdate@C3DSoundInstance@@UAEIABU?$TVector3@M@@@Z 0047f780 f   soundinstance.obj
 0001:0007e780       ?Preupdate@CAmbientSoundInstance@@UAEIABU?$TVector3@M@@@Z 0047f780 f   soundinstance.obj
 0001:0007e790       ?UpdateOutput@C3DSoundInstance@@UAEII@Z 0047f790 f   soundinstance.obj
 0001:0007ec50       ??0CAmbientSoundInstance@@QAE@XZ 0047fc50 f   soundinstance.obj
 0001:0007ec80       ??0C3DSoundInstance@@QAE@XZ 0047fc80 f   soundinstance.obj
 0001:0007ecd0       ?SetPosition@C3DSoundInstance@@UAEIABU?$TVector3@M@@I@Z 0047fcd0 f i soundinstance.obj
 0001:0007ed30       ??_GCSoundInstance@@UAEPAXI@Z 0047fd30 f i soundinstance.obj
 0001:0007ed30       ??_ECSoundInstance@@UAEPAXI@Z 0047fd30 f i soundinstance.obj
 0001:0007ed60       ??_ECAmbientSoundInstance@@UAEPAXI@Z 0047fd60 f i soundinstance.obj
 0001:0007ed60       ??_GC3DSoundInstance@@UAEPAXI@Z 0047fd60 f i soundinstance.obj
 0001:0007ed60       ??_GCAmbientSoundInstance@@UAEPAXI@Z 0047fd60 f i soundinstance.obj
 0001:0007ed60       ??_EC3DSoundInstance@@UAEPAXI@Z 0047fd60 f i soundinstance.obj
 0001:0007ed80       ??1CAmbientSoundInstance@@UAE@XZ 0047fd80 f i soundinstance.obj
 0001:0007ed80       ??1CSoundInstance@@UAE@XZ  0047fd80 f i soundinstance.obj
 0001:0007ed80       ??1C3DSoundInstance@@UAE@XZ 0047fd80 f i soundinstance.obj
 0001:0007ed90       ?Term@CSoundTrack@@QAEXXZ  0047fd90 f   soundtrack.obj
 0001:0007edb0       ?GetTimeLeft@CSoundTrack@@QAEMXZ 0047fdb0 f   soundtrack.obj
 0001:0007edc0       ?IsTrackTime@CSoundTrack@@QAEIXZ 0047fdc0 f   soundtrack.obj
 0001:0007edd0       ?GetObjectA@CSoundTrack@@QAEPAVLTObject@@XZ 0047fdd0 f   soundtrack.obj
 0001:0007edf0       ?GetDuration@CSoundTrack@@QAEMXZ 0047fdf0 f   soundtrack.obj
 0001:0007ee00       ?IsDone@CSoundTrack@@QAEIXZ 0047fe00 f   soundtrack.obj
 0001:0007ee30       ?AddRef@CSoundTrack@@QAEXXZ 0047fe30 f   soundtrack.obj
 0001:0007ee50       ?Release@CSoundTrack@@QAEXPAE@Z 0047fe50 f   soundtrack.obj
 0001:0007ee90       ?SetSoundTrackChangeFlags@@YAIPAVCSoundTrack@@I@Z 0047fe90 f   soundtrack.obj
 0001:0007ef20       ?Init@CSoundTrack@@QAEIPAUPlaySoundInfo@@MPAUUsedFile@@PAVCSoundData@@_N@Z 0047ff20 f   soundtrack.obj
 0001:0007f0e0       ?Update@CSoundTrack@@QAEXM@Z 004800e0 f   soundtrack.obj
 0001:0007f1d0       ?spr_InitTracker@@YAXPAUSpriteTracker@@PAUSprite@@@Z 004801d0 f   sprite.obj
 0001:0007f210       ?spr_UpdateTracker@@YAXPAUSpriteTracker@@I@Z 00480210 f   sprite.obj
 0001:0007f290       ?spr_Destroy@@YAXPAUSprite@@@Z 00480290 f   sprite.obj
 0001:0007f310       ?spr_Create@@YAPAUSprite@@PAVILTStream@@@Z 00480310 f   sprite.obj
 0001:0007f510       ?GetNumAnims@SpriteControlImpl@@UAEIAAI@Z 00480510 f   spritecontrolimpl.obj
 0001:0007f530       ?GetNumFrames@SpriteControlImpl@@UAEIIAAI@Z 00480530 f   spritecontrolimpl.obj
 0001:0007f5a0       ?GetCurPos@SpriteControlImpl@@UAEIAAI0@Z 004805a0 f   spritecontrolimpl.obj
 0001:0007f5f0       ?SetCurPos@SpriteControlImpl@@UAEIII@Z 004805f0 f   spritecontrolimpl.obj
 0001:0007f6a0       ?GetFlags@SpriteControlImpl@@UAEIAAI@Z 004806a0 f   spritecontrolimpl.obj
 0001:0007f6c0       ?SetFlags@SpriteControlImpl@@UAEII@Z 004806c0 f   spritecontrolimpl.obj
 0001:0007f6e0       ?GetAnimLength@SpriteControlImpl@@UAEIAAII@Z 004806e0 f   spritecontrolimpl.obj
 0001:0007f720       ?GetFrameTextureHandle@SpriteControlImpl@@UAEIAAPAVSharedTexture@@II@Z 00480720 f   spritecontrolimpl.obj
 0001:0007f780       ?Read@SSBufStream@@UAEIPAXI@Z 00480780 f i streamsim.obj
 0001:0007f7f0       ?ErrorStatus@BaseFileStream@@UAEIXZ 004807f0 f i de_file.obj
 0001:0007f7f0       ?ErrorStatus@SSBufStream@@UAEIXZ 004807f0 f i streamsim.obj
 0001:0007f800       ?SeekTo@SSBufStream@@UAEII@Z 00480800 f i streamsim.obj
 0001:0007f820       ?GetPos@SSBufStream@@UAEIPAI@Z 00480820 f i streamsim.obj
 0001:0007f820       ?GetStairHeight@CLTPhysicsClient@@UAEIAAM@Z 00480820 f i client_iltphysics.obj
 0001:0007f820       ?GetStairHeight@CLTPhysicsServer@@UAEIAAM@Z 00480820 f i server_iltphysics.obj
 0001:0007f830       ?Write@SSBufStream@@UAEIPBXI@Z 00480830 f i streamsim.obj
 0001:0007f890       ?Read@SSFile@@UAEIPAXI@Z   00480890 f i streamsim.obj
 0001:0007f900       ?Write@SSFile@@UAEIPBXI@Z  00480900 f i streamsim.obj
 0001:0007f950       ?ErrorStatus@SSFile@@UAEIXZ 00480950 f i streamsim.obj
 0001:0007f960       ?SeekTo@SSFile@@UAEII@Z    00480960 f i streamsim.obj
 0001:0007f990       ?GetPos@SSFile@@UAEIPAI@Z  00480990 f i streamsim.obj
 0001:0007f9d0       ?GetLen@SSFile@@UAEIPAI@Z  004809d0 f i streamsim.obj
 0001:0007fa30       ??_ESSFile@@UAEPAXI@Z      00480a30 f i streamsim.obj
 0001:0007fa30       ??_GSSFile@@UAEPAXI@Z      00480a30 f i streamsim.obj
 0001:0007fa50       ??1SSFile@@UAE@XZ          00480a50 f i streamsim.obj
 0001:0007fa80       ?streamsim_Open@@YAPAVILTStream@@PBD0@Z 00480a80 f   streamsim.obj
 0001:0007fad0       ?streamsim_MemStreamFromBuffer@@YAPAVILTStream@@PAEI@Z 00480ad0 f   streamsim.obj
 0001:0007fb00       ??_ESSBufStream@@UAEPAXI@Z 00480b00 f i streamsim.obj
 0001:0007fb00       ??_GSSBufStream@@UAEPAXI@Z 00480b00 f i streamsim.obj
 0001:0007fb20       ??0SSMemStream@@QAE@I@Z    00480b20 f i streamsim.obj
 0001:0007fb80       ?ErrorStatus@SSMemStream@@UAEIXZ 00480b80 f i streamsim.obj
 0001:0007fb90       ?GetPos@SSMemStream@@UAEIPAI@Z 00480b90 f i streamsim.obj
 0001:0007fb90       ?GetPos@RezFileStream@@UAEIPAI@Z 00480b90 f i de_file.obj
 0001:0007fba0       ?SeekTo@SSMemStream@@UAEII@Z 00480ba0 f i streamsim.obj
 0001:0007fbc0       ?GetLen@SSBufStream@@UAEIPAI@Z 00480bc0 f i streamsim.obj
 0001:0007fbc0       ?GetLen@SSMemStream@@UAEIPAI@Z 00480bc0 f i streamsim.obj
 0001:0007fbd0       ?Read@SSMemStream@@UAEIPAXI@Z 00480bd0 f i streamsim.obj
 0001:0007fc40       ?Write@SSMemStream@@UAEIPBXI@Z 00480c40 f i streamsim.obj
 0001:0007fca0       ??_ESSMemStream@@UAEPAXI@Z 00480ca0 f i streamsim.obj
 0001:0007fca0       ??_GSSMemStream@@UAEPAXI@Z 00480ca0 f i streamsim.obj
 0001:0007fcc0       ??1SSMemStream@@UAE@XZ     00480cc0 f i streamsim.obj
 0001:0007fd20       ?streamsim_OpenMemStream@@YAPAVILTStream@@I@Z 00480d20 f   streamsim.obj
 0001:0007fd80       ?str_ShowAllStringsAllocated@@YAXP6AXPBDPAX@Z1@Z 00480d80 f   stringmgr.obj
 0001:0007fdc0       ?str_FormatString@@YAPAEPAVCBindModuleType@@HPAPADPAH@Z 00480dc0 f   stringmgr.obj
 0001:0007fea0       ?str_FreeStringBuffer@@YAXPAE@Z 00480ea0 f   stringmgr.obj
 0001:0007feb0       ?str_CalcSize@@YAXPAEPAH1@Z 00480eb0 f i stringmgr.obj
 0001:0007fef0       ?str_CopyString@@YAPAUHSTRING_t@@PAU1@@Z 00480ef0 f   stringmgr.obj
 0001:0007ff00       ?str_CompareStrings@@YA_NPAUHSTRING_t@@0@Z 00480f00 f   stringmgr.obj
 0001:0007ff30       ?str_CompareStringsUpper@@YA_NPAUHSTRING_t@@0@Z 00480f30 f   stringmgr.obj
 0001:0007ff60       ?str_GetStringData@@YAPADPAUHSTRING_t@@@Z 00480f60 f   stringmgr.obj
 0001:0007ff70       ?str_GetNumStringCharacters@@YAHPAUHSTRING_t@@@Z 00480f70 f   stringmgr.obj
 0001:0007ff80       ?str_GetStringBytes@@YAPAEPAUHSTRING_t@@PAH@Z 00480f80 f   stringmgr.obj
 0001:0007ffb0       ?str_Init@@YAXXZ           00480fb0 f   stringmgr.obj
 0001:0007ffd0       ?str_Term@@YAXXZ           00480fd0 f   stringmgr.obj
 0001:00080020       ?str_CreateString@@YAPAUHSTRING_t@@PAE@Z 00481020 f   stringmgr.obj
 0001:000800b0       ?str_CreateStringAnsi@@YAPAUHSTRING_t@@PBD@Z 004810b0 f   stringmgr.obj
 0001:00080130       ?str_FreeString@@YAXPAUHSTRING_t@@@Z 00481130 f   stringmgr.obj
 0001:00080160       ?st_GetHashCode@@YAIPBD@Z  00481160 f   strtools.obj
 0001:00080190       ?st_GetHashCode_ic@@YAIPBD@Z 00481190 f   strtools.obj
 0001:00080400       ??0?$CAPIHolder@VIClientFormatMgr@@@@QAE@PBDAAPAVIClientFormatMgr@@H@Z 00481400 f i text_mgr.obj
 0001:00080470       ??1?$CAPIHolder@VIClientFormatMgr@@@@UAE@XZ 00481470 f i text_mgr.obj
 0001:000804e0       ??$tmgr_RasterizeTextBackground_T@VPixel16@@@@YAXPAEI0JIITGenericColor@@PAVPixel16@@@Z 004814e0 f i text_mgr.obj
 0001:00080540       ??$tmgr_RasterizeTextBackground_T@VPixel32@@@@YAXPAEI0JIITGenericColor@@PAVPixel32@@@Z 00481540 f i text_mgr.obj
 0001:000805a0       ??$tmgr_RasterizeTextForeground_T@VPixel16@@@@YAXPAEI0JIITGenericColor@@PAVPixel16@@@Z 004815a0 f i text_mgr.obj
 0001:00080600       ??$tmgr_RasterizeTextForeground_T@VPixel32@@@@YAXPAEI0JIITGenericColor@@PAVPixel32@@@Z 00481600 f i text_mgr.obj
 0001:00080660       ??$tmgr_RasterizeText_T@VPixel16@@@@YAXPAEI0JIITGenericColor@@1PAVPixel16@@@Z 00481660 f i text_mgr.obj
 0001:000806d0       ??$tmgr_RasterizeText_T@VPixel32@@@@YAXPAEI0JIITGenericColor@@1PAVPixel32@@@Z 004816d0 f i text_mgr.obj
 0001:00080740       ??_E?$CAPIHolder@VIClientFormatMgr@@@@UAEPAXI@Z 00481740 f i text_mgr.obj
 0001:00080740       ??_G?$CAPIHolder@VIClientFormatMgr@@@@UAEPAXI@Z 00481740 f i text_mgr.obj
 0001:00080b20       ?tmgr_Term@@YAXXZ          00481b20 f   text_mgr.obj
 0001:00080b90       ?GenRemoveAll@?$CGLinkedList@PAVLTFont@@@@UAEXXZ 00481b90 f i text_mgr.obj
 0001:00080b90       ?GenRemoveAll@?$CGLinkedList@PAVCisSurface@@@@UAEXXZ 00481b90 f i winclientde_impl.obj
 0001:00080b90       ?GenRemoveAll@?$CGLinkedList@PAVLatentPacket@@@@UAEXXZ 00481b90 f i netmgr.obj
 0001:00080b90       ?GenRemoveAll@?$CGLinkedList@PAVCConTextLine@@@@UAEXXZ 00481b90 f i winconsole_impl.obj
 0001:00080b90       ?GenRemoveAll@?$CGLinkedList@PAVTriggerObject@@@@UAEXXZ 00481b90 f i input.obj
 0001:00080f10       ?tmgr_Init@@YAXXZ          00481f10 f   text_mgr.obj
 0001:00081010       ?GenAppendList@?$CGLinkedList@PAVLTFont@@@@UAEIABV?$GenList@PAVLTFont@@@@@Z 00482010 f i text_mgr.obj
 0001:00081010       ?GenAppendList@?$CGLinkedList@PAVCConTextLine@@@@UAEIABV?$GenList@PAVCConTextLine@@@@@Z 00482010 f i winconsole_impl.obj
 0001:00081010       ?GenAppendList@?$CGLinkedList@PAVTriggerObject@@@@UAEIABV?$GenList@PAVTriggerObject@@@@@Z 00482010 f i input.obj
 0001:00081010       ?GenAppendList@?$CGLinkedList@PAVLatentPacket@@@@UAEIABV?$GenList@PAVLatentPacket@@@@@Z 00482010 f i netmgr.obj
 0001:00081010       ?GenAppendList@?$CGLinkedList@PAVCisSurface@@@@UAEIABV?$GenList@PAVCisSurface@@@@@Z 00482010 f i winclientde_impl.obj
 0001:00081080       ?GetCharInfo@CTextureString@@QAEXIAAH0AA_NAAPBVCTextureStringGlyph@@@Z 00482080 f   texturestring.obj
 0001:000810c0       ?LTStrCpy@@YAXPAGPBGI@Z    004820c0 f i texturestring.obj
 0001:00081110       ??$ConstructObject@VCTextureStringChar@CTextureString@@@@YAXPAVCTextureStringChar@CTextureString@@@Z 00482110 f i texturestring.obj
 0001:00081130       ??0CTextureString@@QAE@XZ  00482130 f   texturestring.obj
 0001:00081160       ?FreeData@CTextureString@@QAEXXZ 00482160 f   texturestring.obj
 0001:000811a0       ?GetCharRect@CTextureString@@QAE?AV?$TRect2@H@@I@Z 004821a0 f   texturestring.obj
 0001:000811e0       ?UpdateExtents@CTextureString@@AAEXXZ 004821e0 f   texturestring.obj
 0001:000812b0       ??$AllocateObjects@VCTextureStringChar@CTextureString@@@CMemBlockAllocator@@QAEPAVCTextureStringChar@CTextureString@@I@Z 004822b0 f i texturestring.obj
 0001:000812f0       ??1CTextureString@@UAE@XZ  004822f0 f   texturestring.obj
 0001:00081380       ?WordWrap@CTextureString@@QAE_NI@Z 00482380 f   texturestring.obj
 0001:00081520       ?AllocateString@CTextureString@@AAE_NPBG@Z 00482520 f   texturestring.obj
 0001:000815f0       ??_GCTextureString@@UAEPAXI@Z 004825f0 f i texturestring.obj
 0001:000815f0       ??_ECTextureString@@UAEPAXI@Z 004825f0 f i texturestring.obj
 0001:00081610       ?InternalCreate@CTextureString@@AAEIPBGPAVCTextureStringImage@@@Z 00482610 f   texturestring.obj
 0001:00081750       ?Create@CTextureString@@QAEIPBGABVCFontInfo@@@Z 00482750 f   texturestring.obj
 0001:000817f0       ?CreateSubstring@CTextureString@@QAEIPBGABV1@@Z 004827f0 f   texturestring.obj
 0001:00081ab0       ?FreeData@CTextureStringImage@@QAEXXZ 00482ab0 f   texturestringimage.obj
 0001:00081ad0       ?GetGlyph@CTextureStringImage@@QBEPBVCTextureStringGlyph@@G@Z 00482ad0 f   texturestringimage.obj
 0001:00081b10       ??1?$ObjectBank@VCTextureStringImage@@VNullCS@@@@UAE@XZ 00482b10 f i texturestringimage.obj
 0001:00081b60       ?Term@?$ObjectBank@VCTextureStringImage@@VNullCS@@@@UAEXXZ 00482b60 f i texturestringimage.obj
 0001:00081b80       ??_E?$ObjectBank@VCTextureStringImage@@VNullCS@@@@UAEPAXI@Z 00482b80 f i texturestringimage.obj
 0001:00081b80       ??_G?$ObjectBank@VCTextureStringImage@@VNullCS@@@@UAEPAXI@Z 00482b80 f i texturestringimage.obj
 0001:00081ba0       ??$_Push_heap@PAGHG@std@@YAXPAGHHG@Z 00482ba0 f i texturestringimage.obj
 0001:00081bf0       ??$_Rotate@PAGHG@std@@YAXPAG00PAH0@Z 00482bf0 f i texturestringimage.obj
 0001:00081f90       ??0CTextureStringImage@@QAE@XZ 00482f90 f   texturestringimage.obj
 0001:00081fe0       ??1CTextureStringImage@@UAE@XZ 00482fe0 f   texturestringimage.obj
 0001:00082010       ??0?$ObjectBank@VCTextureStringImage@@VNullCS@@@@QAE@II@Z 00483010 f i texturestringimage.obj
 0001:00082070       ?Allocate@?$ObjectBank@VCTextureStringImage@@VNullCS@@@@QAEPAVCTextureStringImage@@XZ 00483070 f i texturestringimage.obj
 0001:000820b0       ??$_Adjust_heap@PAGHG@std@@YAXPAGHHG@Z 004830b0 f i texturestringimage.obj
 0001:00082110       ?Free@CTextureStringImage@@EAEXXZ 00483110 f i texturestringimage.obj
 0001:00082130       ??_GCTextureStringImage@@UAEPAXI@Z 00483130 f i texturestringimage.obj
 0001:00082130       ??_ECTextureStringImage@@UAEPAXI@Z 00483130 f i texturestringimage.obj
 0001:00082150       ?Allocate@CTextureStringImage@@SAPAV1@XZ 00483150 f   texturestringimage.obj
 0001:00082160       ?AllocVoid@?$ObjectBank@VCTextureStringImage@@VNullCS@@@@UAEPAXXZ 00483160 f i texturestringimage.obj
 0001:00082170       ??$_Median@PAG@std@@YAXPAG00@Z 00483170 f i texturestringimage.obj
 0001:000822e0       ??$_Make_heap@PAGHG@std@@YAXPAG0PAH0@Z 004832e0 f i texturestringimage.obj
 0001:000825c0       ??0CTextureStringGlyph@@QAE@XZ 004835c0 f i texturestringimage.obj
 0001:000825e0       ??$_Unguarded_partition@PAG@std@@YA?AU?$pair@PAGPAG@0@PAG0@Z 004835e0 f i texturestringimage.obj
 0001:00082750       ??$_Insertion_sort@PAG@std@@YAXPAG0@Z 00483750 f i texturestringimage.obj
 0001:000827d0       ??$sort_heap@PAG@std@@YAXPAG0@Z 004837d0 f i texturestringimage.obj
 0001:00082820       ??$_Sort@PAGH@std@@YAXPAG0H@Z 00483820 f i texturestringimage.obj
 0001:00082980       ?SetupUniqueGlyphList@CTextureStringImage@@AAE_NPBG@Z 00483980 f   texturestringimage.obj
 0001:00082aa0       ?CreateBitmapFont@CTextureStringImage@@QAE_NPBGABVCFontInfo@@@Z 00483aa0 f   texturestringimage.obj
 0001:00082c20       ??0TimeInit@@QAE@XZ        00483c20 f i timemgr.obj
 0001:00082c80       ?time_GetTime@@YAMXZ       00483c80 f   timemgr.obj
 0001:00082cb0       ?time_GetMSTime@@YAIXZ     00483cb0 f   timemgr.obj
 0001:00082cc0       ?IsValid@TransformMaker@@AAE_NXZ 00483cc0 f   transformmaker.obj
 0001:00082d20       ?SetupCall@TransformMaker@@AAE_NXZ 00483d20 f   transformmaker.obj
 0001:00082de0       ?InitTransform@TransformMaker@@AAEXIIAAULTRotation@@AAU?$TVector3@M@@@Z 00483de0 f i transformmaker.obj
 0001:00083000       ?InitTransformAdditive@TransformMaker@@AAEXIIAAULTRotation@@AAU?$TVector3@M@@@Z 00484000 f i transformmaker.obj
 0001:00083250       ?BlendTransform@TransformMaker@@AAEXII@Z 00484250 f i transformmaker.obj
 0001:00083430       ?Recurse@TransformMaker@@AAEXIPAULTMatrix@@@Z 00484430 f   transformmaker.obj
 0001:000835d0       ?RecurseWithPath@TransformMaker@@AAEXIPAULTMatrix@@@Z 004845d0 f   transformmaker.obj
 0001:00083770       ?SetupTransforms@TransformMaker@@AAE_NXZ 00484770 f   transformmaker.obj
 0001:000837b0       ?SetupTransformsWithPath@TransformMaker@@AAE_NXZ 004847b0 f   transformmaker.obj
 0001:00083800       ??1BaseService@@UAE@XZ     00484800 f i udpdriver.obj
 0001:00083810       ??_EBaseService@@UAEPAXI@Z 00484810 f i udpdriver.obj
 0001:00083810       ??_GBaseService@@UAEPAXI@Z 00484810 f i udpdriver.obj
 0001:00083830       ??1CWin32_LTThread@@UAE@XZ 00484830 f i udpdriver.obj
 0001:00083840       ?WaitForExit@CWin32_LTThread@@UAEXXZ 00484840 f i udpdriver.obj
 0001:00083870       ?IsCreated@CWin32_LTThread@@UAE_NXZ 00484870 f i udpdriver.obj
 0001:00083880       ??1CUDPQuery@@QAE@XZ       00484880 f i udpdriver.obj
 0001:000838a0       ?Copy@CUDPQuery@@QAEXABV1@@Z 004848a0 f i udpdriver.obj
 0001:00083910       ?IsHosting@CUDPDriver@@QAE_NXZ 00484910 f i udpdriver.obj
 0001:00083940       ??1COutOfOrderPacket@CUDPConn@@QAE@XZ 00484940 f i udpdriver.obj
 0001:00083940       ??1CPacket_Read@@QAE@XZ    00484940 f i clientde_impl.obj
 0001:00083940       ??1CLocalPacketHolder@@QAE@XZ 00484940 f i localdriver.obj
 0001:00083940       ??1CUnknownMessage@CUDPDriver@@QAE@XZ 00484940 f i udpdriver.obj
 0001:00083940       ??1CItem@?$CListQueue@VCPacket_Read@@@@QAE@XZ 00484940 f i udpdriver.obj
 0001:00083940       ??1CPacket_Write@@QAE@XZ   00484940 f i clientde_impl.obj
 0001:00083960       ?WriteSizeIndicator@CUDPConn@@CAXAAVCPacket_Write@@I@Z 00484960 f   udpdriver.obj
 0001:00083a10       ?ReadSizeIndicator@CUDPConn@@CAIAAVCPacket_Read@@@Z 00484a10 f   udpdriver.obj
 0001:00083a80       ?AddPing@CUDPConn@@AAEXI@Z 00484a80 f   udpdriver.obj
 0001:00083b50       ?WriteHeartbeat@CUDPConn@@AAEXAAVCPacket_Write@@@Z 00484b50 f   udpdriver.obj
 0001:00083cb0       ?IsInTrouble@CUDPConn@@UAE_NXZ 00484cb0 f   udpdriver.obj
 0001:00083cf0       ?GetBandwidth@CUDPConn@@UBEIXZ 00484cf0 f   udpdriver.obj
 0001:00083d00       ?udp_GetLastError@@YAPADXZ 00484d00 f   udpdriver.obj
 0001:00083d30       ?udp_BindToPort@@YAIPAUsockaddr_in@@0@Z 00484d30 f   udpdriver.obj
 0001:00083e60       ?Init@CUDPDriver@@UAE_NXZ  00484e60 f   udpdriver.obj
 0001:00083ee0       ?GetServiceList@CUDPDriver@@UAEIAAPAVNetService@@@Z 00484ee0 f   udpdriver.obj
 0001:00083f70       ??_GNetSession@@UAEPAXI@Z  00484f70 f i udpdriver.obj
 0001:00083f70       ??_ENetSession@@UAEPAXI@Z  00484f70 f i udpdriver.obj
 0001:00083f90       ?GetSessionList@CUDPDriver@@UAEIAAPAVNetSession@@PBD@Z 00484f90 f   udpdriver.obj
 0001:00084010       ?GetSessionName@CUDPDriver@@UAEIPADI@Z 00485010 f   udpdriver.obj
 0001:00084060       ?SetSessionName@CUDPDriver@@UAEIPBD@Z 00485060 f   udpdriver.obj
 0001:00084190       ?GetMaxConnections@CUDPDriver@@UAEIAAI@Z 00485190 f   udpdriver.obj
 0001:000841c0       ?GetLocalIpAddress@CUDPDriver@@UAE_NPADIAAG@Z 004851c0 f   udpdriver.obj
 0001:00084410       ?UpdateGUID@CUDPDriver@@UAEXAATLTGUID@@@Z 00485410 f   udpdriver.obj
 0001:00084450       ?StopThread_Listen@CUDPDriver@@AAEXXZ 00485450 f   udpdriver.obj
 0001:000844b0       ?_Max@?$_Tree@V?$_Tmap_traits@IUCPingRequest@CUDPDriver@@U?$less@I@std@@V?$allocator@U?$pair@$$CBIUCPingRequest@CUDPDriver@@@std@@@4@$0A@@std@@@std@@KAPAU_Node@?$_Tree_nod@V?$_Tmap_traits@IUCPingRequest@CUDPDriver@@U?$less@I@std@@V?$allocator@U?$pair@$$CBIUCPingRequest@CUDPDriver@@@std@@@4@$0A@@std@@@2@PAU342@@Z 004854b0 f i udpdriver.obj
 0001:000844d0       ?_Min@?$_Tree@V?$_Tmap_traits@IUCPingRequest@CUDPDriver@@U?$less@I@std@@V?$allocator@U?$pair@$$CBIUCPingRequest@CUDPDriver@@@std@@@4@$0A@@std@@@std@@KAPAU_Node@?$_Tree_nod@V?$_Tmap_traits@IUCPingRequest@CUDPDriver@@U?$less@I@std@@V?$allocator@U?$pair@$$CBIUCPingRequest@CUDPDriver@@@std@@@4@$0A@@std@@@2@PAU342@@Z 004854d0 f i udpdriver.obj
 0001:000844f0       ?_Rrotate@?$_Tree@V?$_Tmap_traits@IUCPingRequest@CUDPDriver@@U?$less@I@std@@V?$allocator@U?$pair@$$CBIUCPingRequest@CUDPDriver@@@std@@@4@$0A@@std@@@std@@IAEXPAU_Node@?$_Tree_nod@V?$_Tmap_traits@IUCPingRequest@CUDPDriver@@U?$less@I@std@@V?$allocator@U?$pair@$$CBIUCPingRequest@CUDPDriver@@@std@@@4@$0A@@std@@@2@@Z 004854f0 f i udpdriver.obj
 0001:00084550       ?_Xlen@?$deque@UCDisconnectRequest@CUDPDriver@@V?$allocator@UCDisconnectRequest@CUDPDriver@@@std@@@std@@IBEXXZ 00485550 f i udpdriver.obj
 0001:00084550       ?_Xlen@?$deque@UCConnectRequest@CUDPDriver@@V?$allocator@UCConnectRequest@CUDPDriver@@@std@@@std@@IBEXXZ 00485550 f i udpdriver.obj
 0001:00084550       ?_Xlen@?$deque@UCUnknownMessage@CUDPDriver@@V?$allocator@UCUnknownMessage@CUDPDriver@@@std@@@std@@IBEXXZ 00485550 f i udpdriver.obj
 0001:000845d0       ?_Inc@const_iterator@?$_Tree@V?$_Tmap_traits@IUCPingRequest@CUDPDriver@@U?$less@I@std@@V?$allocator@U?$pair@$$CBIUCPingRequest@CUDPDriver@@@std@@@4@$0A@@std@@@std@@QAEXXZ 004855d0 f i udpdriver.obj
 0001:00084630       ?_Dec@const_iterator@?$_Tree@V?$_Tmap_traits@IUCPingRequest@CUDPDriver@@U?$less@I@std@@V?$allocator@U?$pair@$$CBIUCPingRequest@CUDPDriver@@@std@@@4@$0A@@std@@@std@@QAEXXZ 00485630 f i udpdriver.obj
 0001:00084690       ??1?$CWin32_LTThreadEvent@$0A@@@QAE@XZ 00485690 f i udpdriver.obj
 0001:000846c0       ?Set@?$CWin32_LTThreadEvent@$0A@@@UAEXXZ 004856c0 f i udpdriver.obj
 0001:000846d0       ?Clear@?$CWin32_LTThreadEvent@$0A@@@UAEXXZ 004856d0 f i udpdriver.obj
 0001:000846e0       ?Block@?$CWin32_LTThreadEvent@$0A@@@UAE?AW4LTThreadEventBlockResult@@I@Z 004856e0 f i udpdriver.obj
 0001:00084710       ?IsSet@?$CWin32_LTThreadEvent@$0A@@@UAE_NXZ 00485710 f i udpdriver.obj
 0001:00084730       ??$BaseNew@VCUDPQuery@@@@YAPAVCUDPQuery@@PAVLAlloc@@PAV0@I_N@Z 00485730 f i udpdriver.obj
 0001:000847b0       ??_ECWin32_LTThread@@UAEPAXI@Z 004857b0 f i udpdriver.obj
 0001:000847b0       ??_GCWin32_LTThread@@UAEPAXI@Z 004857b0 f i udpdriver.obj
 0001:000847d0       ?Create@CWin32_LTThread@@UAEXP6AIPAX@Z0@Z 004857d0 f i udpdriver.obj
 0001:00084810       ?InternalThreadFunction@CWin32_LTThread@@CGKPAX@Z 00485810 f i udpdriver.obj
 0001:00084830       ?SetMaxBandwidth@CUDPConn@@QAEXI@Z 00485830 f i udpdriver.obj
 0001:00084850       ?ShouldSendEmptyFrame@CUDPConn@@AAE_NXZ 00485850 f   udpdriver.obj
 0001:000848a0       ?UpdatePing@CUDPConn@@AAEXXZ 004858a0 f   udpdriver.obj
 0001:00084900       ?ResetFlowControl@CUDPConn@@AAEXXZ 00485900 f   udpdriver.obj
 0001:00084970       ?UpdateOutgoingFlowControl@CUDPConn@@AAEXII@Z 00485970 f   udpdriver.obj
 0001:00084ae0       ?IsFlowControlBlocked@CUDPConn@@ABE_NI@Z 00485ae0 f   udpdriver.obj
 0001:00084b40       ?udp_BuildSockaddrFromString@@YA_NPBDPAUsockaddr_in@@@Z 00485b40 f   udpdriver.obj
 0001:00084da0       ?FindConnByAddr@CUDPDriver@@QAEPAVCUDPConn@@PAUsockaddr_in@@@Z 00485da0 f   udpdriver.obj
 0001:00084e50       ?splice_back@?$CListQueue@VCPacket_Read@@@@QAEXAAV1@@Z 00485e50 f i udpdriver.obj
 0001:00084ea0       ??1?$CListQueue@I@@QAE@XZ  00485ea0 f i udpdriver.obj
 0001:00084ed0       ?push@?$CStaticFIFO@UCBandwidthPeriod@CUDPConn@@$0P@@@QAE_NABUCBandwidthPeriod@CUDPConn@@@Z 00485ed0 f i udpdriver.obj
 0001:00084f40       ??1?$CMultiLinkList@PAVCUDPConn@@@@QAE@XZ 00485f40 f i udpdriver.obj
 0001:00084f50       ?push_back@?$CListQueue@I@@QAEXABI@Z 00485f50 f i udpdriver.obj
 0001:00084f90       ?_Lrotate@?$_Tree@V?$_Tmap_traits@IUCPingRequest@CUDPDriver@@U?$less@I@std@@V?$allocator@U?$pair@$$CBIUCPingRequest@CUDPDriver@@@std@@@4@$0A@@std@@@std@@IAEXPAU_Node@?$_Tree_nod@V?$_Tmap_traits@IUCPingRequest@CUDPDriver@@U?$less@I@std@@V?$allocator@U?$pair@$$CBIUCPingRequest@CUDPDriver@@@std@@@4@$0A@@std@@@2@@Z 00485f90 f i udpdriver.obj
 0001:00084ff0       ??0?$CStaticFIFO_Iterator_Base@UCBandwidthPeriod@CUDPConn@@$0P@@@IAE@ABU0@@Z 00485ff0 f i udpdriver.obj
 0001:00085010       ?_Erase@?$_Tree@V?$_Tmap_traits@IUCPingRequest@CUDPDriver@@U?$less@I@std@@V?$allocator@U?$pair@$$CBIUCPingRequest@CUDPDriver@@@std@@@4@$0A@@std@@@std@@IAEXPAU_Node@?$_Tree_nod@V?$_Tmap_traits@IUCPingRequest@CUDPDriver@@U?$less@I@std@@V?$allocator@U?$pair@$$CBIUCPingRequest@CUDPDriver@@@std@@@4@$0A@@std@@@2@@Z 00486010 f i udpdriver.obj
 0001:00085050       ?AddHead@?$CMultiLinkList@PAVCUDPConn@@@@QAEPAVCMLLNode@@PAVCUDPConn@@PAV2@@Z 00486050 f i udpdriver.obj
 0001:00085050       ?AddHead@?$CMultiLinkList@PAVVideoInst@@@@QAEPAVCMLLNode@@PAVVideoInst@@PAV2@@Z 00486050 f i dshowvideomgrimpl.obj
 0001:000850a0       ??$BaseDelete@VCUDPQuery@@@@YAXPAVLAlloc@@PAVCUDPQuery@@I@Z 004860a0 f i udpdriver.obj
 0001:000850f0       ??_ECUDPSession@@UAEPAXI@Z 004860f0 f i udpdriver.obj
 0001:000850f0       ??_GCUDPSession@@UAEPAXI@Z 004860f0 f i udpdriver.obj
 0001:00085110       ??1CUDPSession@@UAE@XZ     00486110 f i udpdriver.obj
 0001:00085120       ?GetAvailableBandwidth@CUDPConn@@UBEHM@Z 00486120 f   udpdriver.obj
 0001:00085220       ?SetBandwidth@CUDPConn@@UAE_NI@Z 00486220 f   udpdriver.obj
 0001:00085260       ?GetQueryResults@CUDPDriver@@UAEIAAPAVNetSession@@@Z 00486260 f   udpdriver.obj
 0001:00085430       ?push_back@?$CListQueue@I@@QAEXABIAAV1@@Z 00486430 f i udpdriver.obj
 0001:00085480       ?clear@?$CListQueue@VCPacket_Read@@@@QAEXXZ 00486480 f i udpdriver.obj
 0001:000854c0       ?_Buynode@?$_Tree@V?$_Tmap_traits@IUCPingRequest@CUDPDriver@@U?$less@I@std@@V?$allocator@U?$pair@$$CBIUCPingRequest@CUDPDriver@@@std@@@4@$0A@@std@@@std@@IAEPAU_Node@?$_Tree_nod@V?$_Tmap_traits@IUCPingRequest@CUDPDriver@@U?$less@I@std@@V?$allocator@U?$pair@$$CBIUCPingRequest@CUDPDriver@@@std@@@4@$0A@@std@@@2@XZ 004864c0 f i udpdriver.obj
 0001:00085500       ?_Buynode@?$_Tree@V?$_Tmap_traits@IUCPingRequest@CUDPDriver@@U?$less@I@std@@V?$allocator@U?$pair@$$CBIUCPingRequest@CUDPDriver@@@std@@@4@$0A@@std@@@std@@IAEPAU_Node@?$_Tree_nod@V?$_Tmap_traits@IUCPingRequest@CUDPDriver@@U?$less@I@std@@V?$allocator@U?$pair@$$CBIUCPingRequest@CUDPDriver@@@std@@@4@$0A@@std@@@2@PAU342@00ABU?$pair@$$CBIUCPingRequest@CUDPDriver@@@2@D@Z 00486500 f i udpdriver.obj
 0001:00085550       ?Peekuint32@CPacket_Read@@QBEIXZ 00486550 f i udpdriver.obj
 0001:000855e0       ?pop_front@CPacketQueue@CUDPConn@@QAEXAAV?$CListQueue@VCPacket_Read@@@@@Z 004865e0 f i udpdriver.obj
 0001:00085680       ?pop_front@CFrameQueue@CUDPConn@@QAEXAAV?$CListQueue@UCPacketFrame@CUDPConn@@@@AAVCPacketQueue@2@@Z 00486680 f i udpdriver.obj
 0001:000856d0       ??0COutOfOrderPacket@CUDPConn@@QAE@XZ 004866d0 f i udpdriver.obj
 0001:000856f0       ?ClearFrameHistory@CUDPConn@@AAEXI@Z 004866f0 f   udpdriver.obj
 0001:00085810       ?RemoveFrameHistory@CUDPConn@@AAE_NIPAPAUCPacketFrame@1@@Z 00486810 f   udpdriver.obj
 0001:00085890       ?HandleUDP@CUDPConn@@AAE?AW4EIncomingPacketResult@1@AAVCPacket_Read@@@Z 00486890 f   udpdriver.obj
 0001:00085a10       ?SaveOutOfOrderPacket@CUDPConn@@AAEXAAVCPacket_Read@@I@Z 00486a10 f   udpdriver.obj
 0001:00085b10       ?WriteUnguaranteed@CUDPConn@@AAEXAAVCPacket_Write@@@Z 00486b10 f   udpdriver.obj
 0001:00085e30       ?GetPacket@CUDPConn@@QAE?AVCPacket_Read@@XZ 00486e30 f   udpdriver.obj
 0001:00085f70       ?GetOutgoingBandwidthUsage@CUDPConn@@UBEIXZ 00486f70 f   udpdriver.obj
 0001:00085fd0       ?GetIncomingBandwidthUsage@CUDPConn@@UBEIXZ 00486fd0 f   udpdriver.obj
 0001:00086030       ?GetPacketLoss@CUDPConn@@UBEMXZ 00487030 f   udpdriver.obj
 0001:000860d0       ?AccumulateHistory@CUDPConn@@AAEXAAV?$CStaticFIFO@UCBandwidthPeriod@CUDPConn@@$0P@@@@Z 004870d0 f   udpdriver.obj
 0001:00086160       ?udp_RecvFromSocket@@YA_NIPAVCPacket_Read@@PAUsockaddr_in@@PAH@Z 00487160 f   udpdriver.obj
 0001:00086310       ?SendTo@CUDPDriver@@SA_NIABVCPacket_Read@@PAUsockaddr_in@@@Z 00487310 f   udpdriver.obj
 0001:00086430       ?SendTcpIp@CUDPDriver@@UAEIABVCPacket_Read@@PBDI@Z 00487430 f   udpdriver.obj
 0001:000864f0       ?SendPing@CUDPDriver@@AAEIPBDGI@Z 004874f0 f   udpdriver.obj
 0001:00086670       ?erase@?$_Tree@V?$_Tmap_traits@IUCPingRequest@CUDPDriver@@U?$less@I@std@@V?$allocator@U?$pair@$$CBIUCPingRequest@CUDPDriver@@@std@@@4@$0A@@std@@@std@@QAE?AViterator@12@V312@@Z 00487670 f i udpdriver.obj
 0001:00086940       ?find@?$_Tree@V?$_Tmap_traits@IUCPingRequest@CUDPDriver@@U?$less@I@std@@V?$allocator@U?$pair@$$CBIUCPingRequest@CUDPDriver@@@std@@@4@$0A@@std@@@std@@QAE?AViterator@12@ABI@Z 00487940 f i udpdriver.obj
 0001:000869b0       ?_Growmap@?$deque@UCUnknownMessage@CUDPDriver@@V?$allocator@UCUnknownMessage@CUDPDriver@@@std@@@std@@IAEXI@Z 004879b0 f i udpdriver.obj
 0001:00086b00       ?_Tidy@?$deque@UCUnknownMessage@CUDPDriver@@V?$allocator@UCUnknownMessage@CUDPDriver@@@std@@@std@@IAEXXZ 00487b00 f i udpdriver.obj
 0001:00086b80       ?_Growmap@?$deque@UCDisconnectRequest@CUDPDriver@@V?$allocator@UCDisconnectRequest@CUDPDriver@@@std@@@std@@IAEXI@Z 00487b80 f i udpdriver.obj
 0001:00086ce0       ?_Growmap@?$deque@UCConnectRequest@CUDPDriver@@V?$allocator@UCConnectRequest@CUDPDriver@@@std@@@std@@IAEXI@Z 00487ce0 f i udpdriver.obj
 0001:00086e40       ?erase@?$_Tree@V?$_Tmap_traits@IUCPingRequest@CUDPDriver@@U?$less@I@std@@V?$allocator@U?$pair@$$CBIUCPingRequest@CUDPDriver@@@std@@@4@$0A@@std@@@std@@QAE?AViterator@12@V312@0@Z 00487e40 f i udpdriver.obj
 0001:00086f00       ?_Insert@?$_Tree@V?$_Tmap_traits@IUCPingRequest@CUDPDriver@@U?$less@I@std@@V?$allocator@U?$pair@$$CBIUCPingRequest@CUDPDriver@@@std@@@4@$0A@@std@@@std@@IAE?AViterator@12@_NPAU_Node@?$_Tree_nod@V?$_Tmap_traits@IUCPingRequest@CUDPDriver@@U?$less@I@std@@V?$allocator@U?$pair@$$CBIUCPingRequest@CUDPDriver@@@std@@@4@$0A@@std@@@2@ABU?$pair@$$CBIUCPingRequest@CUDPDriver@@@2@@Z 00487f00 f i udpdriver.obj
 0001:000870c0       ?SetSize2@?$CMoArray@VCUDPQuery@@VDefaultCache@@@@QAEIIPAVLAlloc@@_N@Z 004880c0 f i udpdriver.obj
 0001:00087150       ??0CUnknownMessage@CUDPDriver@@QAE@ABU01@@Z 00488150 f i udpdriver.obj
 0001:000871a0       ?Insert2@?$CMoArray@VCUDPQuery@@VDefaultCache@@@@QAEIIABVCUDPQuery@@PAVLAlloc@@@Z 004881a0 f i udpdriver.obj
 0001:00087310       ??1CPacketQueue@CUDPConn@@QAE@XZ 00488310 f i udpdriver.obj
 0001:00087320       ??1CPacketFrame@CUDPConn@@QAE@XZ 00488320 f i udpdriver.obj
 0001:00087320       ??1CItem@?$CListQueue@UCPacketFrame@CUDPConn@@@@QAE@XZ 00488320 f i udpdriver.obj
 0001:00087330       ?UpdateBandwidth@CUDPConn@@AAEXXZ 00488330 f   udpdriver.obj
 0001:00087380       ?SendPacket@CUDPConn@@AAE_NABVCPacket_Read@@@Z 00488380 f   udpdriver.obj
 0001:00087520       ?FlushConnectQueue@CUDPDriver@@AAEXXZ 00488520 f   udpdriver.obj
 0001:00087620       ?GetPingStatus@CUDPDriver@@UAEIIPAI0@Z 00488620 f   udpdriver.obj
 0001:000876a0       ?RemovePing@CUDPDriver@@UAEII@Z 004886a0 f   udpdriver.obj
 0001:000876f0       ??1?$deque@UCUnknownMessage@CUDPDriver@@V?$allocator@UCUnknownMessage@CUDPDriver@@@std@@@std@@QAE@XZ 004886f0 f i udpdriver.obj
 0001:00087700       ?push_back@?$deque@UCDisconnectRequest@CUDPDriver@@V?$allocator@UCDisconnectRequest@CUDPDriver@@@std@@@std@@QAEXABUCDisconnectRequest@CUDPDriver@@@Z 00488700 f i udpdriver.obj
 0001:00087780       ?push_back@?$deque@UCConnectRequest@CUDPDriver@@V?$allocator@UCConnectRequest@CUDPDriver@@@std@@@std@@QAEXABUCConnectRequest@CUDPDriver@@@Z 00488780 f i udpdriver.obj
 0001:00087800       ?push_back@?$CListQueue@VCPacket_Read@@@@QAEXABVCPacket_Read@@@Z 00488800 f i udpdriver.obj
 0001:00087870       ?insert@?$_Tree@V?$_Tmap_traits@IUCPingRequest@CUDPDriver@@U?$less@I@std@@V?$allocator@U?$pair@$$CBIUCPingRequest@CUDPDriver@@@std@@@4@$0A@@std@@@std@@QAE?AU?$pair@Viterator@?$_Tree@V?$_Tmap_traits@IUCPingRequest@CUDPDriver@@U?$less@I@std@@V?$allocator@U?$pair@$$CBIUCPingRequest@CUDPDriver@@@std@@@4@$0A@@std@@@std@@_N@2@ABU?$pair@$$CBIUCPingRequest@CUDPDriver@@@2@@Z 00488870 f i udpdriver.obj
 0001:00087930       ??$_Construct@UCUnknownMessage@CUDPDriver@@U12@@std@@YAXPAUCUnknownMessage@CUDPDriver@@ABU12@@Z 00488930 f i udpdriver.obj
 0001:00087950       ?ReSendFrame@CUDPConn@@AAEXAAUCPacketFrame@1@@Z 00488950 f   udpdriver.obj
 0001:00087b60       ?ReSendLostPackets@CUDPConn@@AAEXXZ 00488b60 f   udpdriver.obj
 0001:00087e30       ?SendDisconnectMessage@CUDPConn@@QAEXW4EDisconnectReason@@@Z 00488e30 f   udpdriver.obj
 0001:00087f40       ?EndQuery@CUDPDriver@@UAEIXZ 00488f40 f   udpdriver.obj
 0001:00087fa0       ?FlushUnknownMessageQueue@CUDPDriver@@AAEXXZ 00488fa0 f   udpdriver.obj
 0001:000880f0       ?push_back@?$CListQueue@VCPacket_Read@@@@QAEXABVCPacket_Read@@AAV1@@Z 004890f0 f i udpdriver.obj
 0001:00088150       ??1?$CMoArray@VCUDPQuery@@VDefaultCache@@@@QAE@XZ 00489150 f i udpdriver.obj
 0001:00088190       ?GenFindElement@?$CMoArray@VCUDPQuery@@VDefaultCache@@@@UBEIABVCUDPQuery@@AAVGenListPos@@@Z 00489190 f i udpdriver.obj
 0001:000881c0       ?GenGetNext@?$CMoArray@VCUDPQuery@@VDefaultCache@@@@UBE?AVCUDPQuery@@AAVGenListPos@@@Z 004891c0 f i udpdriver.obj
 0001:00088200       ?GenGetAt@?$CMoArray@VCUDPQuery@@VDefaultCache@@@@UBE?AVCUDPQuery@@AAVGenListPos@@@Z 00489200 f i udpdriver.obj
 0001:00088230       ?GenSetCacheSize@?$CMoArray@PAXVDefaultCache@@@@UAEXI@Z 00489230 f i debuggraphmgr.obj
 0001:00088230       ?GenSetCacheSize@?$CMoArray@VSBank@@VDefaultCache@@@@UAEXI@Z 00489230 f i Lib_StdLith:stringholder.obj
 0001:00088230       ?GenSetCacheSize@?$CMoArray@EVDefaultCache@@@@UAEXI@Z 00489230 f i load_pcx.obj
 0001:00088230       ?GenSetCacheSize@?$CMoArray@VObjectDrawer@@VDefaultCache@@@@UAEXI@Z 00489230 f i LIB_D3DRender:screenglowmgr.obj
 0001:00088230       ?GenSetCacheSize@?$CMoArray@ULTRecord@@VDefaultCache@@@@UAEXI@Z 00489230 f i servermgr.obj
 0001:00088230       ?GenSetCacheSize@?$CMoArray@MVDefaultCache@@@@UAEXI@Z 00489230 f i model.obj
 0001:00088230       ?GenSetCacheSize@?$CMoArray@IVDefaultCache@@@@UAEXI@Z 00489230 f i LIB_D3DRender:d3d_surface.obj
 0001:00088230       ?GenSetCacheSize@?$CMoArray@PAVCBaseConn@@VDefaultCache@@@@UAEXI@Z 00489230 f i netmgr.obj
 0001:00088230       ?GenSetCacheSize@?$CMoArray@VDGSample@@VDefaultCache@@@@UAEXI@Z 00489230 f i debuggraphmgr.obj
 0001:00088230       ?GenSetCacheSize@?$CMoArray@VCUDPQuery@@VDefaultCache@@@@UAEXI@Z 00489230 f i udpdriver.obj
 0001:00088230       ?GenSetCacheSize@?$CMoArray@VDGTracker@@VDefaultCache@@@@UAEXI@Z 00489230 f i debuggraphmgr.obj
 0001:00088230       ?GenSetCacheSize@?$CMoArray@PAVCBaseDriver@@VDefaultCache@@@@UAEXI@Z 00489230 f i netmgr.obj
 0001:00088240       ?GenRemoveAll@?$CMoArray@VCUDPQuery@@VDefaultCache@@@@UAEXXZ 00489240 f i udpdriver.obj
 0001:00088270       ?GenAppend@?$CMoArray@VCUDPQuery@@VDefaultCache@@@@UAEIAAVCUDPQuery@@@Z 00489270 f i udpdriver.obj
 0001:00088290       ?GenRemoveAt@?$CMoArray@VCUDPQuery@@VDefaultCache@@@@UAEXVGenListPos@@@Z 00489290 f i udpdriver.obj
 0001:000882b0       ?Remove2@?$CMoArray@VCUDPQuery@@VDefaultCache@@@@QAEXIPAVLAlloc@@@Z 004892b0 f i udpdriver.obj
 0001:00088400       ?GenCopyList@?$CMoArray@VCUDPQuery@@VDefaultCache@@@@UAEIABV?$GenList@VCUDPQuery@@@@@Z 00489400 f i udpdriver.obj
 0001:00088550       ?GenAppendList@?$CMoArray@VCUDPQuery@@VDefaultCache@@@@UAEIABV?$GenList@VCUDPQuery@@@@@Z 00489550 f i udpdriver.obj
 0001:000886a0       ?InternalNiceSetSize@?$CMoArray@VCUDPQuery@@VDefaultCache@@@@AAEIIIPAVLAlloc@@@Z 004896a0 f i udpdriver.obj
 0001:000887b0       ?push_back@?$CListQueue@UCPacketFrame@CUDPConn@@@@QAEXABUCPacketFrame@CUDPConn@@@Z 004897b0 f i udpdriver.obj
 0001:00088800       ?insert@?$_Tree@V?$_Tmap_traits@IUCPingRequest@CUDPDriver@@U?$less@I@std@@V?$allocator@U?$pair@$$CBIUCPingRequest@CUDPDriver@@@std@@@4@$0A@@std@@@std@@QAE?AViterator@12@V312@ABU?$pair@$$CBIUCPingRequest@CUDPDriver@@@2@@Z 00489800 f i udpdriver.obj
 0001:00088970       ?Init@?$CMoArray@VCUDPQuery@@VDefaultCache@@@@QAEIII@Z 00489970 f i udpdriver.obj
 0001:000889d0       ?QueuePacket@CUDPConn@@QAE_NABVCPacket_Read@@_N@Z 004899d0 f   udpdriver.obj
 0001:00088ab0       ?HandleGuaranteed@CUDPConn@@AAEXAAVCPacket_Read@@_N@Z 00489ab0 f   udpdriver.obj
 0001:00089100       ?HandleUnguaranteed@CUDPConn@@AAEXAAVCPacket_Read@@@Z 0048a100 f   udpdriver.obj
 0001:000893d0       ??1?$map@IUCPingRequest@CUDPDriver@@U?$less@I@std@@V?$allocator@U?$pair@$$CBIUCPingRequest@CUDPDriver@@@std@@@4@@std@@QAE@XZ 0048a3d0 f i udpdriver.obj
 0001:00089400       ?StartQuery@CUDPDriver@@UAEIPBD@Z 0048a400 f   udpdriver.obj
 0001:000896d0       ?UpdateQuery@CUDPDriver@@UAEIXZ 0048a6d0 f   udpdriver.obj
 0001:00089b80       ?push_back@?$CListQueue@UCPacketFrame@CUDPConn@@@@QAEXABUCPacketFrame@CUDPConn@@AAV1@@Z 0048ab80 f i udpdriver.obj
 0001:00089be0       ?push_back@?$deque@UCUnknownMessage@CUDPDriver@@V?$allocator@UCUnknownMessage@CUDPDriver@@@std@@@std@@QAEXABUCUnknownMessage@CUDPDriver@@@Z 0048abe0 f i udpdriver.obj
 0001:00089c50       ??A?$map@IUCPingRequest@CUDPDriver@@U?$less@I@std@@V?$allocator@U?$pair@$$CBIUCPingRequest@CUDPDriver@@@std@@@4@@std@@QAEAAUCPingRequest@CUDPDriver@@ABI@Z 0048ac50 f i udpdriver.obj
 0001:00089ce0       ?clear@?$CListQueue@UCPacketFrame@CUDPConn@@@@QAEXXZ 0048ace0 f i udpdriver.obj
 0001:00089d20       ?HandleIncomingPacket@CUDPConn@@QAE?AW4EIncomingPacketResult@1@ABVCPacket_Read@@@Z 0048ad20 f   udpdriver.obj
 0001:00089fb0       ?WriteGuaranteed@CUDPConn@@AAEXAAVCPacket_Write@@_N@Z 0048afb0 f   udpdriver.obj
 0001:0008a690       ?FlushOutgoingQueues@CUDPConn@@QAE_NXZ 0048b690 f   udpdriver.obj
 0001:0008a9b0       ?Update@CUDPConn@@QAEX_N@Z 0048b9b0 f   udpdriver.obj
 0001:0008aa30       ??0CUDPDriver@@QAE@XZ      0048ba30 f   udpdriver.obj
 0001:0008acb0       ?GetHasPassword@CUDPDriver@@UAEIPA_N@Z 0048bcb0 f i udpdriver.obj
 0001:0008ace0       ?SetHasPassword@CUDPDriver@@UAEI_N@Z 0048bce0 f i udpdriver.obj
 0001:0008ad10       ?GetGameType@CUDPDriver@@UAEIPAE@Z 0048bd10 f i udpdriver.obj
 0001:0008ad40       ?SetGameType@CUDPDriver@@UAEIE@Z 0048bd40 f i udpdriver.obj
 0001:0008ad70       ?StartPing@CUDPDriver@@UAEIPBDGPAI@Z 0048bd70 f   udpdriver.obj
 0001:0008ade0       ??1CFrameQueue@CUDPConn@@QAE@XZ 0048bde0 f i udpdriver.obj
 0001:0008adf0       ??0CUDPConn@@QAE@XZ        0048bdf0 f   udpdriver.obj
 0001:0008afb0       ?GetPing@CUDPConn@@UAEMXZ  0048bfb0 f i udpdriver.obj
 0001:0008afc0       ?GetIPAddress@CUDPConn@@UAE_NQAEPAG@Z 0048bfc0 f i udpdriver.obj
 0001:0008aff0       ??1CUDPConn@@QAE@XZ        0048bff0 f   udpdriver.obj
 0001:0008b100       ?HandleUnconnectedData@CUDPDriver@@IAEXAAVCPacket_Read@@PAUsockaddr_in@@@Z 0048c100 f   udpdriver.obj
 0001:0008b980       ?Thread_Listen@CUDPDriver@@AAEIXZ 0048c980 f   udpdriver.obj
 0001:0008bd80       ??$MDeleteAndRemoveElements@PAVCUDPConn@@@@YAXAAV?$CMultiLinkList@PAVCUDPConn@@@@@Z 0048cd80 f i udpdriver.obj
 0001:0008bdd0       ?Disconnect@CUDPDriver@@IAEXPAVCBaseConn@@W4EDisconnectReason@@_N@Z 0048cdd0 f   udpdriver.obj
 0001:0008bf10       ?SendPacket@CUDPDriver@@MAE_NABVCPacket_Read@@PAVCBaseConn@@_N@Z 0048cf10 f   udpdriver.obj
 0001:0008bff0       ?ReallyJoinSession@CUDPDriver@@QAEI_NPAUsockaddr_in@@@Z 0048cff0 f   udpdriver.obj
 0001:0008c7a0       ?ConnectTCP@CUDPDriver@@UAEIPBD@Z 0048d7a0 f   udpdriver.obj
 0001:0008c810       ?ThreadBootstrap_Listen@CUDPDriver@@CAIPAX@Z 0048d810 f   udpdriver.obj
 0001:0008c820       ?Disconnect@CUDPDriver@@MAEXPAVCBaseConn@@W4EDisconnectReason@@@Z 0048d820 f i udpdriver.obj
 0001:0008c840       ?FlushDisconnectQueue@CUDPDriver@@AAEXXZ 0048d840 f   udpdriver.obj
 0001:0008c980       ?JoinSession@CUDPDriver@@UAEIPAVNetSession@@@Z 0048d980 f   udpdriver.obj
 0001:0008c9a0       ?Update@CUDPDriver@@UAEXXZ 0048d9a0 f   udpdriver.obj
 0001:0008ca60       ?HostSession@CUDPDriver@@UAEIPAUNetHost@@@Z 0048da60 f   udpdriver.obj
 0001:0008cc70       ?GetPacket@CUDPDriver@@MAE_NPAVCPacket_Read@@PAPAVCBaseConn@@@Z 0048dc70 f   udpdriver.obj
 0001:0008ce00       ?OpenSocket@CUDPDriver@@UAEIPAI@Z 0048de00 f   udpdriver.obj
 0001:0008cf40       ?Term@CUDPDriver@@UAEXXZ   0048df40 f   udpdriver.obj
 0001:0008d010       ??1CUDPDriver@@UAE@XZ      0048e010 f   udpdriver.obj
 0001:0008d1e0       ??_GCUDPDriver@@UAEPAXI@Z  0048e1e0 f i udpdriver.obj
 0001:0008d1e0       ??_ECUDPDriver@@UAEPAXI@Z  0048e1e0 f i udpdriver.obj
 0001:0008d200       ?GetString@LTVersionInfo@@QAEXPADI@Z 0048e200 f   version_info.obj
 0001:0008d260       ?GetLTExeVersion@@YAIPAUHINSTANCE__@@AAVLTVersionInfo@@@Z 0048e260 f   version_resource.obj
 0001:0008d2d0       ?UpdateVideos@VideoMgr@@UAEXXZ 0048e2d0 f   videomgr.obj
 0001:0008d330       ?OnRenderInit@VideoMgr@@UAEXXZ 0048e330 f   videomgr.obj
 0001:0008d360       ?OnRenderTerm@VideoMgr@@UAEXXZ 0048e360 f   videomgr.obj
 0001:0008d390       ?CreateVideoMgr@@YAPAVVideoMgr@@PBD@Z 0048e390 f   videomgr.obj
 0001:0008d4e0       ?ve_Init@@YA_NPAVLTVolumeEffect@@PAUVolumeEffectInfo@@@Z 0048e4e0 f   volumeeffect.obj
 0001:0008d7e0       ?GetWaveInfo@@YAIAAVILTStream@@AAUCWaveHeader@@@Z 0048e7e0 f   wave.obj
 0001:0008d960       ?cis_MaskedDrawLine16@@YAXPAE0I0II@Z 0048e960 f i winclientde_impl.obj
 0001:0008d9b0       ?cis_MaskedDrawLine32@@YAXPAE0I0II@Z 0048e9b0 f i winclientde_impl.obj
 0001:0008e340       ?cis_GetPixel@@YAIPAUHSURFACE_t@@IIPAI@Z 0048f340 f   winclientde_impl.obj
 0001:0008e450       ?cis_SetPixel@@YAIPAUHSURFACE_t@@III@Z 0048f450 f   winclientde_impl.obj
 0001:0008f9e0       ?cis_DeleteSurface@@YAIPAUHSURFACE_t@@@Z 004909e0 f   winclientde_impl.obj
 0001:0008fc00       ?cis_DrawSurfaceToSurface@@YAIPAUHSURFACE_t@@0PAVLTRect@@HH@Z 00490c00 f   winclientde_impl.obj
 0001:00090120       ?cis_Term@@YAXXZ           00491120 f   winclientde_impl.obj
 0001:00090150       ?cis_RendererIsHere@@YA_NPAURenderStruct@@@Z 00491150 f   winclientde_impl.obj
 0001:00090190       ?cis_RendererGoingAway@@YA_NXZ 00491190 f   winclientde_impl.obj
 0001:00090250       ?GetInterfaceSurfaceMemory@@YAKXZ 00491250 f   winclientde_impl.obj
 0001:00090290       ?GenIsValid@?$CGLinkedList@PAVLatentPacket@@@@UBEIABVGenListPos@@@Z 00491290 f i netmgr.obj
 0001:00090290       ?GenIsValid@?$CGLinkedList@PAVCisSurface@@@@UBEIABVGenListPos@@@Z 00491290 f i winclientde_impl.obj
 0001:00090290       ?GenIsValid@?$CGLinkedList@PAVLTFont@@@@UBEIABVGenListPos@@@Z 00491290 f i text_mgr.obj
 0001:00090290       ?GenIsValid@?$CGLinkedList@PAVCConTextLine@@@@UBEIABVGenListPos@@@Z 00491290 f i winconsole_impl.obj
 0001:00090290       ?GenIsValid@?$CGLinkedList@PAVTriggerObject@@@@UBEIABVGenListPos@@@Z 00491290 f i input.obj
 0001:000902a0       ?GenBegin@?$CGLinkedList@PAVCisSurface@@@@UBE?AVGenListPos@@XZ 004912a0 f i winclientde_impl.obj
 0001:000902a0       ?GenBegin@?$CGLinkedList@PAVTriggerObject@@@@UBE?AVGenListPos@@XZ 004912a0 f i input.obj
 0001:000902a0       ?GenBegin@?$CGLinkedList@PAVLatentPacket@@@@UBE?AVGenListPos@@XZ 004912a0 f i netmgr.obj
 0001:000902a0       ?GenBegin@?$CGLinkedList@PAVLTFont@@@@UBE?AVGenListPos@@XZ 004912a0 f i text_mgr.obj
 0001:000902a0       ?GenBegin@?$CGLinkedList@PAVCConTextLine@@@@UBE?AVGenListPos@@XZ 004912a0 f i winconsole_impl.obj
 0001:000902b0       ?AddHead@?$CGLinkedList@PAVTriggerObject@@@@QAEPAVCGLLNode@@PAVTriggerObject@@@Z 004912b0 f i input.obj
 0001:000902b0       ?AddHead@?$CGLinkedList@PAVCisSurface@@@@QAEPAVCGLLNode@@PAVCisSurface@@@Z 004912b0 f i winclientde_impl.obj
 0001:00090b40       ?cis_InternalCreateSurface@@YAPAVCisSurface@@II@Z 00491b40 f   winclientde_impl.obj
 0001:00090c00       ?cis_CreateSurfaceFromPcx@@YAPAUHSURFACE_t@@PAVLoadedBitmap@@@Z 00491c00 f   winclientde_impl.obj
 0001:00091330       ?cis_Init@@YAXXZ           00492330 f   winclientde_impl.obj
 0001:00091680       ?First@CConIterator@@UAE_NPBD@Z 00492680 f   winconsole_impl.obj
 0001:000916f0       ?Last@CConIterator@@UAE_NPBD@Z 004926f0 f   winconsole_impl.obj
 0001:00091760       ?Next@CConIterator@@UAE_NPBD@Z 00492760 f   winconsole_impl.obj
 0001:000917d0       ?Prev@CConIterator@@UAE_NPBD@Z 004927d0 f   winconsole_impl.obj
 0001:00091840       ?DeleteChar@CConCommandBox@@IAEXH@Z 00492840 f   winconsole_impl.obj
 0001:00091880       ?DeleteWord@CConCommandBox@@IAEXH@Z 00492880 f   winconsole_impl.obj
 0001:00091930       ?AddChar@CConCommandBox@@IAEXD@Z 00492930 f   winconsole_impl.obj
 0001:000919a0       ?MoveCursor@CConCommandBox@@IAEXH@Z 004929a0 f   winconsole_impl.obj
 0001:000919e0       ?MoveWord@CConCommandBox@@IAEXH@Z 004929e0 f   winconsole_impl.obj
 0001:00091ab0       ?TranslateKey@CConCommandBox@@IBEDI@Z 00492ab0 f   winconsole_impl.obj
 0001:00091b10       ?Begin@CConHistory@@MAE_NXZ 00492b10 f   winconsole_impl.obj
 0001:00091b30       ?End@CConHistory@@MAE_NXZ  00492b30 f   winconsole_impl.obj
 0001:00091b40       ?NextItem@CConHistory@@MAE_NXZ 00492b40 f   winconsole_impl.obj
 0001:00091b70       ?PrevItem@CConHistory@@MAE_NXZ 00492b70 f   winconsole_impl.obj
 0001:00091b90       ?Remove@CConHistory@@MAEHPBD@Z 00492b90 f   winconsole_impl.obj
 0001:00091c00       ?Remove@CConHistory@@MAEXH@Z 00492c00 f   winconsole_impl.obj
 0001:00091c70       ?Add@CConHistory@@QAEXPBD_N@Z 00492c70 f   winconsole_impl.obj
 0001:00091d00       ?Resize@CConHistory@@QAE_NH@Z 00492d00 f   winconsole_impl.obj
 0001:00091de0       ?Get@CConHistory@@UBEPBDXZ 00492de0 f   winconsole_impl.obj
 0001:00091e10       ?SetCompletionIterator@CConsole@@QAEXPAVCConIterator@@@Z 00492e10 f   winconsole_impl.obj
 0001:00091e30       ?StartNav@CConsole@@IAEXW4EConState@1@@Z 00492e30 f   winconsole_impl.obj
 0001:00091e80       ?SetBackgroundAlpha@CConsole@@QAEXM@Z 00492e80 f   winconsole_impl.obj
 0001:00091ee0       ?CalcStringOffset@CConsole@@QAEHPBDH@Z 00492ee0 f   winconsole_impl.obj
 0001:00091f40       ?DrawTextLine@CConsole@@QAEXPBDPBVLTRect@@K@Z 00492f40 f   winconsole_impl.obj
 0001:00092080       ?CalcRect@CConsole@@IAEXAAVLTRect@@@Z 00493080 f   winconsole_impl.obj
 0001:000921f0       ??$GDeleteAndRemoveElements@PAVCConTextLine@@@@YAXAAV?$CGLinkedList@PAVCConTextLine@@@@@Z 004931f0 f i winconsole_impl.obj
 0001:00092230       ?Draw@CConCommandBox@@QAEXXZ 00493230 f   winconsole_impl.obj
 0001:000922f0       ?SetCommand@CConCommandBox@@QAEXPBD@Z 004932f0 f   winconsole_impl.obj
 0001:00092370       ?OnKeyPress@CConCommandBox@@QAEXI@Z 00493370 f   winconsole_impl.obj
 0001:00092500       ??0CConHistory@@QAE@H@Z    00493500 f   winconsole_impl.obj
 0001:00092560       ??1CConHistory@@UAE@XZ     00493560 f   winconsole_impl.obj
 0001:000925b0       ?Term@CConsole@@QAEX_N@Z   004935b0 f   winconsole_impl.obj
 0001:000926a0       ?CycleCommands@CConsole@@QAEXH@Z 004936a0 f   winconsole_impl.obj
 0001:00092760       ?NextCommand@CConsole@@IAEXXZ 00493760 f   winconsole_impl.obj
 0001:000927d0       ?PrevCommand@CConsole@@IAEXXZ 004937d0 f   winconsole_impl.obj
 0001:00092840       ?Scroll@CConsole@@QAEHH@Z  00493840 f   winconsole_impl.obj
 0001:00092890       ?GetTextLineBox@CConsole@@IAE_NIPAVLTRect@@_N@Z 00493890 f i winconsole_impl.obj
 0001:00092940       ?DrawTextLines@CConsole@@QAEXH_N@Z 00493940 f   winconsole_impl.obj
 0001:00092a30       ?BorderedRectangle@CConsole@@QAEXIIVLTRect@@@Z 00493a30 f   winconsole_impl.obj
 0001:00092c60       ?DrawSmall@CConsole@@QAEXH@Z 00493c60 f   winconsole_impl.obj
 0001:00092df0       ?SetRect@CConsole@@QAEXABVLTRect@@@Z 00493df0 f   winconsole_impl.obj
 0001:00092ea0       ?GenFindElement@?$CGLinkedList@PAVLTFont@@@@UBEIABQAVLTFont@@AAVGenListPos@@@Z 00493ea0 f i text_mgr.obj
 0001:00092ea0       ?GenFindElement@?$CGLinkedList@PAVTriggerObject@@@@UBEIABQAVTriggerObject@@AAVGenListPos@@@Z 00493ea0 f i input.obj
 0001:00092ea0       ?GenFindElement@?$CGLinkedList@PAVCConTextLine@@@@UBEIABQAVCConTextLine@@AAVGenListPos@@@Z 00493ea0 f i winconsole_impl.obj
 0001:00092ea0       ?GenFindElement@?$CGLinkedList@PAVLatentPacket@@@@UBEIABQAVLatentPacket@@AAVGenListPos@@@Z 00493ea0 f i netmgr.obj
 0001:00092ea0       ?GenFindElement@?$CGLinkedList@PAVCisSurface@@@@UBEIABQAVCisSurface@@AAVGenListPos@@@Z 00493ea0 f i winclientde_impl.obj
 0001:00092ed0       ??1?$CGLinkedList@PAVCConTextLine@@@@QAE@XZ 00493ed0 f i winconsole_impl.obj
 0001:00092ee0       ??0CConCommandBox@@QAE@XZ  00493ee0 f   winconsole_impl.obj
 0001:00092f50       ??_GCConHistory@@UAEPAXI@Z 00493f50 f i winconsole_impl.obj
 0001:00092f50       ??_ECConHistory@@UAEPAXI@Z 00493f50 f i winconsole_impl.obj
 0001:00092f70       ??0CConsole@@QAE@XZ        00493f70 f   winconsole_impl.obj
 0001:000930c0       ??1CConsole@@QAE@XZ        004940c0 f   winconsole_impl.obj
 0001:00093160       ?ResizeTextLines@CConsole@@QAE_NI@Z 00494160 f   winconsole_impl.obj
 0001:00093250       ?CheckVariables@CConsole@@IAEXXZ 00494250 f   winconsole_impl.obj
 0001:000932d0       ?Draw@CConsole@@QAEXXZ     004942d0 f   winconsole_impl.obj
 0001:00093570       ?PrintString@CConsole@@QAEXIHPBD@Z 00494570 f   winconsole_impl.obj
 0001:00093770       ?vPrintf@CConsole@@QAEXIHPBDPAD@Z 00494770 f   winconsole_impl.obj
 0001:000937e0       ?Printf@CConsole@@QAAXIHPBDZZ 004947e0 f   winconsole_impl.obj
 0001:00093800       ?Init@CConsole@@QAE_NPBVLTRect@@P6AXPBD@ZPAURenderStruct@@PAVCConIterator@@@Z 00494800 f   winconsole_impl.obj
 0001:000938d0       ?InitBare@CConsole@@QAE_NXZ 004948d0 f   winconsole_impl.obj
 0001:000938f0       ?FinishCommand@CConsole@@IAEXXZ 004948f0 f   winconsole_impl.obj
 0001:00093960       ?MatchCommands@CConsole@@IAEXXZ 00494960 f   winconsole_impl.obj
 0001:000939d0       ?OnKeyPress@CConsole@@QAEXI@Z 004949d0 f   winconsole_impl.obj
 0001:00093b40       ?LoadBackground@CConsole@@QAEIXZ 00494b40 f   winconsole_impl.obj
 0001:00093ca0       ?FilterBox@@YAXPBU?$TVector3@M@@0PAVWorldTreeNode@@P6AX1PAX@Z2@Z 00494ca0 f i world_tree.obj
 0001:00093d50       ?GetDimBoxStatus@@YA?AW4PolySide@@ABU?$TVector3@M@@000I@Z 00494d50 f i world_tree.obj
 0001:00093e70       ?SetBBox@WorldTreeNode@@QAEXABU?$TVector3@M@@0@Z 00494e70 f   world_tree.obj
 0001:00093ef0       ?Subdivide@WorldTreeNode@@AAEXPAV1@AAI@Z 00494ef0 f   world_tree.obj
 0001:00094110       ?AddObjectToList@WorldTreeNode@@QAEXPAVWTObjLink@@W4NodeObjArray@@@Z 00495110 f   world_tree.obj
 0001:00094140       ?FindObjectsInBox2@WorldTree@@QAEXPAVFindObjInfo@@@Z 00495140 f   world_tree.obj
 0001:00094170       ?CopyNodeLayout_R@WorldTree@@AAEXPAVWorldTreeNode@@PBV2@0AAI@Z 00495170 f   world_tree.obj
 0001:000941d0       ?InsertAlwaysVisObject@WorldTree@@QAEXPAVWorldTreeObj@@@Z 004951d0 f   world_tree.obj
 0001:00094270       ?TestBoxPlane@@YA_NABU?$TVector3@M@@0M00II@Z 00495270 f i world_tree.obj
 0001:000945f0       ??0WorldTreeObj@@QAE@W4WTObjType@@@Z 004955f0 f   world_tree.obj
 0001:00094660       ??0WorldTreeNode@@QAE@XZ   00495660 f   world_tree.obj
 0001:000946a0       ?LoadLayout@WorldTreeNode@@AAEXPAVILTStream@@AAE1PAV1@AAI@Z 004956a0 f   world_tree.obj
 0001:00094730       ?InitWorldTree@WorldTree@@QAEXPAVWorldTreeHelper@@@Z 00495730 f   world_tree.obj
 0001:00094740       ?FindObjectsInBox@WorldTree@@QAEXPBU?$TVector3@M@@0P6AXPAVWorldTreeObj@@PAX@Z2W4NodeObjArray@@@Z 00495740 f   world_tree.obj
 0001:000947c0       ?FindObjectsOnPoint@WorldTree@@QAEXPBU?$TVector3@M@@P6AXPAVWorldTreeObj@@PAX@Z2W4NodeObjArray@@@Z 004957c0 f   world_tree.obj
 0001:000947e0       ?IntersectSegment@WorldTree@@QAEXPBU?$TVector3@M@@0P6A_NPAVWorldTreeObj@@PAX@Z2W4NodeObjArray@@@Z 004957e0 f   world_tree.obj
 0001:00094860       ?RemoveFromWorldTree@WorldTreeObj@@QAEXXZ 00495860 f   world_tree.obj
 0001:000948b0       ?Term@WorldTreeNode@@AAEXXZ 004958b0 f   world_tree.obj
 0001:00094930       ?InsertObject2@WorldTree@@QAEXPAVWorldTreeObj@@ABU?$TVector3@M@@1W4NodeObjArray@@@Z 00495930 f   world_tree.obj
 0001:000949e0       ??1WorldTreeObj@@UAE@XZ    004959e0 f   world_tree.obj
 0001:000949f0       ??1WorldTreeNode@@QAE@XZ   004959f0 f   world_tree.obj
 0001:00094a00       ??0WorldTree@@QAE@XZ       00495a00 f   world_tree.obj
 0001:00094a50       ?InsertObject@WorldTree@@QAEXPAVWorldTreeObj@@W4NodeObjArray@@@Z 00495a50 f   world_tree.obj
 0001:00094a70       ??_GWorldTreeObj@@UAEPAXI@Z 00495a70 f i world_tree.obj
 0001:00094a70       ??_EWorldTreeObj@@UAEPAXI@Z 00495a70 f i world_tree.obj
 0001:00094aa0       ?Term@WorldTree@@QAEXXZ    00495aa0 f   world_tree.obj
 0001:00094b00       ?Inherit@WorldTree@@QAE_NPBV1@@Z 00495b00 f   world_tree.obj
 0001:00094be0       ?LoadLayout@WorldTree@@QAE_NPAVILTStream@@@Z 00495be0 f   world_tree.obj
 0001:00094d10       ??1WorldTree@@QAE@XZ       00495d10 f   world_tree.obj
 0001:00094d60       ??1IWorldBlindObjectData@@UAE@XZ 00495d60 f i world_blind_object_data.obj
 0001:00094d70       ??_GIWorldBlindObjectData@@UAEPAXI@Z 00495d70 f i world_blind_object_data.obj
 0001:00094d70       ??_EIWorldBlindObjectData@@UAEPAXI@Z 00495d70 f i world_blind_object_data.obj
 0001:00094d90       ?_Xlen@?$vector@IV?$allocator@I@std@@@std@@IBEXXZ 00495d90 f i world_blind_object_data.obj
 0001:00094d90       ?_Xlen@?$vector@PAEV?$allocator@PAE@std@@@std@@IBEXXZ 00495d90 f i world_blind_object_data.obj
 0001:00094d90       ?_Xlen@?$vector@HV?$allocator@H@std@@@std@@IBEXXZ 00495d90 f i world_blind_object_data.obj
 0001:00094e10       ??Hiterator@?$vector@PAXV?$allocator@PAX@std@@@std@@QBE?AV012@H@Z 00495e10 f i LIB_D3DRender:d3d_renderworld.obj
 0001:00094e10       ??Hiterator@?$vector@IV?$allocator@I@std@@@std@@QBE?AV012@H@Z 00495e10 f i world_blind_object_data.obj
 0001:00094e10       ??Hiterator@?$vector@PAUIDirect3DVertexBuffer9@@V?$allocator@PAUIDirect3DVertexBuffer9@@@std@@@std@@QBE?AV012@H@Z 00495e10 f i LIB_D3DRender:d3d_renderworld.obj
 0001:00094e30       ?_Buy@?$vector@IV?$allocator@I@std@@@std@@IAE_NI@Z 00495e30 f i world_blind_object_data.obj
 0001:00094e80       ??$_Uninitialized_fill_n@PAIIIV?$allocator@I@std@@@std@@YAXPAIIABIAAV?$allocator@I@0@@Z 00495e80 f i world_blind_object_data.obj
 0001:00094ea0       ??4?$vector@IV?$allocator@I@std@@@std@@QAEAAV01@ABV01@@Z 00495ea0 f i world_blind_object_data.obj
 0001:00094ff0       ?_Insert_n@?$vector@IV?$allocator@I@std@@@std@@IAEXViterator@12@IABI@Z 00495ff0 f i world_blind_object_data.obj
 0001:00094ff0       ?_Insert_n@?$vector@PAEV?$allocator@PAE@std@@@std@@IAEXViterator@12@IABQAE@Z 00495ff0 f i world_blind_object_data.obj
 0001:00094ff0       ?_Insert_n@?$vector@HV?$allocator@H@std@@@std@@IAEXViterator@12@IABH@Z 00495ff0 f i world_blind_object_data.obj
 0001:000951e0       ??0CWorldBlindObjectData@@QAE@XZ 004961e0 f   world_blind_object_data.obj
 0001:00095230       ?_InterfaceImplementation@CWorldBlindObjectData@@UAEPBDXZ 00496230 f i world_blind_object_data.obj
 0001:00095240       ?GetBlindObjectData@CWorldBlindObjectData@@UAE_NIIAAPAEAAI@Z 00496240 f   world_blind_object_data.obj
 0001:000952b0       ?FreeBlindObjectData@CWorldBlindObjectData@@UAE_NII@Z 004962b0 f   world_blind_object_data.obj
 0001:00095330       ?push_back@?$vector@IV?$allocator@I@std@@@std@@QAEXABI@Z 00496330 f i world_blind_object_data.obj
 0001:00095380       ?reserve@?$vector@PAEV?$allocator@PAE@std@@@std@@QAEXI@Z 00496380 f i world_blind_object_data.obj
 0001:00095380       ?reserve@?$vector@IV?$allocator@I@std@@@std@@QAEXI@Z 00496380 f i world_blind_object_data.obj
 0001:00095380       ?reserve@?$vector@HV?$allocator@H@std@@@std@@QAEXI@Z 00496380 f i world_blind_object_data.obj
 0001:00095450       ??0?$vector@IV?$allocator@I@std@@@std@@QAE@ABV01@@Z 00496450 f i world_blind_object_data.obj
 0001:00095510       ?Load@CWorldBlindObjectData@@UAE?AW4ELoadWorldStatus@@PAVILTStream@@@Z 00496510 f   world_blind_object_data.obj
 0001:000956d0       ?Term@CWorldBlindObjectData@@UAEXXZ 004966d0 f   world_blind_object_data.obj
 0001:00095780       ??1CWorldBlindObjectData@@UAE@XZ 00496780 f   world_blind_object_data.obj
 0001:00095820       ??_GCWorldBlindObjectData@@UAEPAXI@Z 00496820 f i world_blind_object_data.obj
 0001:00095820       ??_ECWorldBlindObjectData@@UAEPAXI@Z 00496820 f i world_blind_object_data.obj
 0001:00095840       ??1IWorldBlockerData@@UAE@XZ 00496840 f i world_blocker_data.obj
 0001:00095850       ??_GIWorldBlockerData@@UAEPAXI@Z 00496850 f i world_blocker_data.obj
 0001:00095850       ??_EIWorldBlockerData@@UAEPAXI@Z 00496850 f i world_blocker_data.obj
 0001:00095870       ?_Xlen@?$vector@UCBlockerPoly@@V?$allocator@UCBlockerPoly@@@std@@@std@@IBEXXZ 00496870 f i world_blocker_data.obj
 0001:000958f0       ?GetBarycentricCoords@@YAXABU?$TVector3@M@@ABUSBlockerTri@@MPAM2@Z 004968f0 f i world_blocker_data.obj
 0001:000959b0       ?GetBarycentricCoords@@YAXABU?$TVector3@M@@ABUSBlockerTri@@PAM2@Z 004969b0 f i world_blocker_data.obj
 0001:00095a20       ?GetPtDistToCircle@CBlockerPoly@@QBEMABU?$TVector3@M@@@Z 00496a20 f   world_blocker_data.obj
 0001:00095aa0       ?ScrubPlane@@YA?AULTPlane@@ABU1@@Z 00496aa0 f   world_blocker_data.obj
 0001:00095b80       ?GetPlaneIntersect@CSweptSphere@@QBE_NABULTPlane@@ABU?$TVector3@M@@MPAMPAU3@@Z 00496b80 f   world_blocker_data.obj
 0001:00095e80       ?GetSeperatingAxis@CWorldBlockerData@@AAE?AU?$TVector3@M@@ABUSBlockerTri@@0I@Z 00496e80 f   world_blocker_data.obj
 0001:00096850       ??$copy@PAU?$TVector3@M@@PAU1@@std@@YAPAU?$TVector3@M@@PAU1@00@Z 00497850 f i world_blocker_data.obj
 0001:00096890       ?PreCalc@CBlockerPoly@@QAEXXZ 00497890 f   world_blocker_data.obj
 0001:00096ad0       ?CalcPolyIntersectTime@CWorldBlockerData@@AAE_NABUCBlockerPoly@@ABVCSweptSphere@@ABU?$TVector3@M@@MPAMPAU4@@Z 00497ad0 f   world_blocker_data.obj
 0001:00097000       ??0?$vector@U?$TVector3@M@@V?$allocator@U?$TVector3@M@@@std@@@std@@QAE@ABV01@@Z 00498000 f i world_blocker_data.obj
 0001:000970d0       ?reserve@?$vector@U?$TVector3@M@@V?$allocator@U?$TVector3@M@@@std@@@std@@QAEXI@Z 004980d0 f i world_blocker_data.obj
 0001:000971c0       ?GetPolysInSphere@CWorldBlockerData@@AAE_NABU?$TVector3@M@@MPAV?$vector@HV?$allocator@H@std@@@std@@@Z 004981c0 f   world_blocker_data.obj
 0001:00097290       ?Intersect@CWorldBlockerData@@UAE_NABU?$TVector3@M@@00PAMPAU2@@Z 00498290 f   world_blocker_data.obj
 0001:000975e0       ??4?$vector@U?$TVector3@M@@V?$allocator@U?$TVector3@M@@@std@@@std@@QAEAAV01@ABV01@@Z 004985e0 f i world_blocker_data.obj
 0001:00097750       ?resize@?$vector@U?$TVector3@M@@V?$allocator@U?$TVector3@M@@@std@@@std@@QAEXIU?$TVector3@M@@@Z 00498750 f i world_blocker_data.obj
 0001:000977f0       ??$fill@PAUCBlockerPoly@@U1@@std@@YAXPAUCBlockerPoly@@0ABU1@@Z 004987f0 f i world_blocker_data.obj
 0001:00097840       ??$_Copy_opt@PAUCBlockerPoly@@PAU1@@std@@YAPAUCBlockerPoly@@PAU1@00U_Nonscalar_ptr_iterator_tag@0@@Z 00498840 f i world_blocker_data.obj
 0001:00097890       ??$_Copy_backward_opt@PAUCBlockerPoly@@PAU1@@std@@YAPAUCBlockerPoly@@PAU1@00U_Nonscalar_ptr_iterator_tag@0@@Z 00498890 f i world_blocker_data.obj
 0001:000978e0       ??$_Uninit_copy@PAUCBlockerPoly@@PAU1@V?$allocator@UCBlockerPoly@@@std@@@std@@YAPAUCBlockerPoly@@PAU1@00AAV?$allocator@UCBlockerPoly@@@0@U_Nonscalar_ptr_iterator_tag@0@@Z 004988e0 f i world_blocker_data.obj
 0001:000979b0       ??5@YAAAVILTStream@@AAV0@AAUCBlockerPoly@@@Z 004989b0 f   world_blocker_data.obj
 0001:00097a80       ?CollidePlayer@CWorldBlockerData@@UAE_NABU?$TVector3@M@@00PBV?$vector@U?$TVector3@M@@V?$allocator@U?$TVector3@M@@@std@@@std@@PAU2@@Z 00498a80 f   world_blocker_data.obj
 0001:00098350       ??$_Uninit_fill_n@PAUCBlockerPoly@@IU1@V?$allocator@UCBlockerPoly@@@std@@@std@@YAXPAUCBlockerPoly@@IABU1@AAV?$allocator@UCBlockerPoly@@@0@U_Nonscalar_ptr_iterator_tag@0@@Z 00499350 f i world_blocker_data.obj
 0001:00098410       ?_Destroy@?$vector@UCBlockerPoly@@V?$allocator@UCBlockerPoly@@@std@@@std@@IAEXPAUCBlockerPoly@@0@Z 00499410 f i world_blocker_data.obj
 0001:00098440       ?_Ufill@?$vector@UCBlockerPoly@@V?$allocator@UCBlockerPoly@@@std@@@std@@IAEPAUCBlockerPoly@@PAU3@IABU3@@Z 00499440 f i world_blocker_data.obj
 0001:00098470       ?_Tidy@?$vector@UCBlockerPoly@@V?$allocator@UCBlockerPoly@@@std@@@std@@IAEXXZ 00499470 f i world_blocker_data.obj
 0001:000984c0       ?erase@?$vector@UCBlockerPoly@@V?$allocator@UCBlockerPoly@@@std@@@std@@QAE?AViterator@12@V312@0@Z 004994c0 f i world_blocker_data.obj
 0001:00098520       ?_Insert_n@?$vector@UCBlockerPoly@@V?$allocator@UCBlockerPoly@@@std@@@std@@IAEXViterator@12@IABUCBlockerPoly@@@Z 00499520 f i world_blocker_data.obj
 0001:00098840       ?resize@?$vector@UCBlockerPoly@@V?$allocator@UCBlockerPoly@@@std@@@std@@QAEXIUCBlockerPoly@@@Z 00499840 f i world_blocker_data.obj
 0001:00098920       ??0CWorldBlockerData@@QAE@XZ 00499920 f   world_blocker_data.obj
 0001:00098960       ?_InterfaceImplementation@CWorldBlockerData@@UAEPBDXZ 00499960 f i world_blocker_data.obj
 0001:00098970       ?Term@CWorldBlockerData@@UAEXXZ 00499970 f   world_blocker_data.obj
 0001:00098980       ?resize@?$vector@UCBlockerPoly@@V?$allocator@UCBlockerPoly@@@std@@@std@@QAEXI@Z 00499980 f i world_blocker_data.obj
 0001:000989b0       ??1CWorldBlockerData@@UAE@XZ 004999b0 f   world_blocker_data.obj
 0001:000989e0       ?Load@CWorldBlockerData@@UAE?AW4ELoadWorldStatus@@PAVILTStream@@@Z 004999e0 f   world_blocker_data.obj
 0001:00098a40       ??_ECWorldBlockerData@@UAEPAXI@Z 00499a40 f i world_blocker_data.obj
 0001:00098a40       ??_GCWorldBlockerData@@UAEPAXI@Z 00499a40 f i world_blocker_data.obj
 0001:00098a60       ?DistSqrSegSeg@@YAMABUSBlockerSeg@@0PAM1@Z 00499a60 f   world_blocker_math.obj
 0001:00099120       ?DistSqrPtPgm@@YAMABU?$TVector3@M@@ABUSBlockerTri@@PAM2@Z 0049a120 f   world_blocker_math.obj
 0001:000995a0       ?DistSqrSegPgm@@YAMABUSBlockerSeg@@ABUSBlockerTri@@PAM22@Z 0049a5a0 f   world_blocker_math.obj
 0001:0009ac00       ?DistSqrPtTri@@YAMABU?$TVector3@M@@ABUSBlockerTri@@PAM2@Z 0049bc00 f   world_blocker_math.obj
 0001:0009b0b0       ?DistSqrSegTri@@YAMABUSBlockerSeg@@ABUSBlockerTri@@PAM22@Z 0049c0b0 f   world_blocker_math.obj
 0001:0009c370       ?DistSqrTriPgm@@YAMABUSBlockerTri@@0PAM111@Z 0049d370 f   world_blocker_math.obj
 0001:0009c740       ?IsLoaded@CWorldClientBSP@@UAE_NXZ 0049d740 f   world_client_bsp.obj
 0001:0009c750       ?IntersectSegment@CWorldClientBSP@@UAE_NPAVIntersectQuery@@PAUIntersectInfo@@@Z 0049d750 f   world_client_bsp.obj
 0001:0009c770       ?IntersectSweptSphere@CWorldClientBSP@@UAE_NABU?$TVector3@M@@0MAAU2@1@Z 0049d770 f   world_client_bsp.obj
 0001:0009c7a0       ?EncodeCompressWorldPosition@CWorldClientBSP@@UAEXPAVCompWorldPos@@PBU?$TVector3@M@@@Z 0049d7a0 f   world_client_bsp.obj
 0001:0009c7d0       ?DecodeCompressWorldPosition@CWorldClientBSP@@UAEXPAU?$TVector3@M@@PBVCompWorldPos@@@Z 0049d7d0 f   world_client_bsp.obj
 0001:0009c800       ?ClientTree@CWorldClientBSP@@UAEPAVWorldTree@@XZ 0049d800 f   world_client_bsp.obj
 0001:0009c810       ?Mgr@CClientDebugGraphMgr@@UAEPAVCDebugGraphMgr@@XZ 0049d810 f   client_graphmgr.obj
 0001:0009c810       ?State@CServerConsoleState@@UAEPAUConsoleState@@XZ 0049d810 f   server_consolestate.obj
 0001:0009c810       ?RenderContext@CWorldClientBSP@@UAEAAPAXXZ 0049d810 f   world_client_bsp.obj
 0001:0009c810       ?Mgr@CClientFormatMgr@@UAEPAVFormatMgr@@XZ 0049d810 f   client_formatmgr.obj
 0001:0009c820       ?Load@CWorldClientBSP@@UAE?AW4ELoadWorldStatus@@PAVILTStream@@@Z 0049d820 f   world_client_bsp.obj
 0001:0009c8a0       ?InheritFromServer@CWorldClientBSP@@UAE_NXZ 0049d8a0 f   world_client_bsp.obj
 0001:0009ca10       ?LoadClientData@CWorldClientBSP@@UAE?AW4ELoadWorldStatus@@PAVILTStream@@@Z 0049da10 f   world_client_bsp.obj
 0001:0009caa0       ?GetWorldModel@CWorldClientBSP@@UAEPBVWorldData@@I@Z 0049daa0 f   world_client_bsp.obj
 0001:0009cab0       ?SetWorldModelOriginalBSPPolyTexturePointers@CWorldClientBSP@@UAEXXZ 0049dab0 f   world_client_bsp.obj
 0001:0009cae0       ?GetPolyFromHPoly@CWorldClientBSP@@UAEPAVWorldPoly@@UHPOLY@@@Z 0049dae0 f   world_client_bsp.obj
 0001:0009cb10       ?InitWorldModel@CWorldClientBSP@@UAE_NPAVWorldModelInstance@@PBD@Z 0049db10 f   world_client_bsp.obj
 0001:0009cb40       ?_Xlen@?$vector@VCClientLightGroup@@V?$allocator@VCClientLightGroup@@@std@@@std@@IBEXXZ 0049db40 f i world_client_bsp.obj
 0001:0009cbc0       ??0?$CAPIHolder@VILTCollisionMgr@@@@QAE@PBDAAPAVILTCollisionMgr@@H@Z 0049dbc0 f i world_client_bsp.obj
 0001:0009cc30       ??1?$CAPIHolder@VILTCollisionMgr@@@@UAE@XZ 0049dc30 f i world_client_bsp.obj
 0001:0009cca0       ??_G?$CAPIHolder@VILTCollisionMgr@@@@UAEPAXI@Z 0049dca0 f i world_client_bsp.obj
 0001:0009cca0       ??_E?$CAPIHolder@VILTCollisionMgr@@@@UAEPAXI@Z 0049dca0 f i world_client_bsp.obj
 0001:0009ccc0       ??$_Copy_backward_opt@PAVCClientLightGroup@@PAV1@@std@@YAPAVCClientLightGroup@@PAV1@00U_Nonscalar_ptr_iterator_tag@0@@Z 0049dcc0 f i world_client_bsp.obj
 0001:0009cd10       ?Load@CClientLightGroup@@QAE_NPAVILTStream@@@Z 0049dd10 f   world_client_bsp.obj
 0001:0009cd80       ?Term@CWorldClientBSP@@UAEXXZ 0049dd80 f   world_client_bsp.obj
 0001:0009ce20       ??$fill@PAVCClientLightGroup@@V1@@std@@YAXPAVCClientLightGroup@@0ABV1@@Z 0049de20 f i world_client_bsp.obj
 0001:0009ce60       ??$_Uninit_copy@Vconst_iterator@?$vector@UD3DModeInfo@@V?$allocator@UD3DModeInfo@@@std@@@std@@PAUD3DModeInfo@@V?$allocator@UD3DModeInfo@@@3@@std@@YAPAUD3DModeInfo@@Vconst_iterator@?$vector@UD3DModeInfo@@V?$allocator@UD3DModeInfo@@@std@@@0@0PAU1@AAV?$allocator@UD3DModeInfo@@@0@U_Nonscalar_ptr_iterator_tag@0@@Z 0049de60 f i LIB_D3DRender:d3d_shell.obj
 0001:0009ce60       ??$_Uninit_copy@Vconst_iterator@?$vector@ULTPlane@@V?$allocator@ULTPlane@@@std@@@std@@PAULTPlane@@V?$allocator@ULTPlane@@@3@@std@@YAPAULTPlane@@Vconst_iterator@?$vector@ULTPlane@@V?$allocator@ULTPlane@@@std@@@0@0PAU1@AAV?$allocator@ULTPlane@@@0@U_Nonscalar_ptr_iterator_tag@0@@Z 0049de60 f i LIB_D3DRender:d3d_renderworld.obj
 0001:0009ce60       ??$_Uninit_copy@Viterator@?$vector@VCClientLightGroup@@V?$allocator@VCClientLightGroup@@@std@@@std@@PAVCClientLightGroup@@V?$allocator@VCClientLightGroup@@@3@@std@@YAPAVCClientLightGroup@@Viterator@?$vector@VCClientLightGroup@@V?$allocator@VCClientLightGroup@@@std@@@0@0PAV1@AAV?$allocator@VCClientLightGroup@@@0@U_Nonscalar_ptr_iterator_tag@0@@Z 0049de60 f i world_client_bsp.obj
 0001:0009ce60       ??$_Uninit_copy@PAULTPlane@@PAU1@V?$allocator@ULTPlane@@@std@@@std@@YAPAULTPlane@@PAU1@00AAV?$allocator@ULTPlane@@@0@U_Nonscalar_ptr_iterator_tag@0@@Z 0049de60 f i LIB_D3DRender:d3d_renderworld.obj
 0001:0009ce60       ??$_Uninit_copy@PAVCClientLightGroup@@PAV1@V?$allocator@VCClientLightGroup@@@std@@@std@@YAPAVCClientLightGroup@@PAV1@00AAV?$allocator@VCClientLightGroup@@@0@U_Nonscalar_ptr_iterator_tag@0@@Z 0049de60 f i world_client_bsp.obj
 0001:0009ce60       ??$_Uninit_copy@PAUD3DModeInfo@@PAU1@V?$allocator@UD3DModeInfo@@@std@@@std@@YAPAUD3DModeInfo@@PAU1@00AAV?$allocator@UD3DModeInfo@@@0@U_Nonscalar_ptr_iterator_tag@0@@Z 0049de60 f i LIB_D3DRender:d3d_shell.obj
 0001:0009ce60       ??$_Uninit_copy@Viterator@?$vector@ULTPlane@@V?$allocator@ULTPlane@@@std@@@std@@PAULTPlane@@V?$allocator@ULTPlane@@@3@@std@@YAPAULTPlane@@Viterator@?$vector@ULTPlane@@V?$allocator@ULTPlane@@@std@@@0@0PAU1@AAV?$allocator@ULTPlane@@@0@U_Nonscalar_ptr_iterator_tag@0@@Z 0049de60 f i LIB_D3DRender:d3d_renderworld_occluder.obj
 0001:0009cea0       ?GetLightGroupColor@CWorldClientBSP@@UBEIIPAU?$TVector3@M@@@Z 0049dea0 f   world_client_bsp.obj
 0001:0009cee0       ?SetLightGroupColor@CWorldClientBSP@@UAEIIABU?$TVector3@M@@@Z 0049dee0 f   world_client_bsp.obj
 0001:0009cf40       ?SetupStaticLightGroups@CWorldClientBSP@@MAE_NXZ 0049df40 f   world_client_bsp.obj
 0001:0009cf90       ??$_Uninit_fill_n@PAULTPlane@@IU1@V?$allocator@ULTPlane@@@std@@@std@@YAXPAULTPlane@@IABU1@AAV?$allocator@ULTPlane@@@0@U_Nonscalar_ptr_iterator_tag@0@@Z 0049df90 f i LIB_D3DRender:d3d_renderworld_occluder.obj
 0001:0009cf90       ??$_Uninit_fill_n@PAVCClientLightGroup@@IV1@V?$allocator@VCClientLightGroup@@@std@@@std@@YAXPAVCClientLightGroup@@IABV1@AAV?$allocator@VCClientLightGroup@@@0@U_Nonscalar_ptr_iterator_tag@0@@Z 0049df90 f i world_client_bsp.obj
 0001:0009cf90       ??$_Uninit_fill_n@PAUD3DModeInfo@@IU1@V?$allocator@UD3DModeInfo@@@std@@@std@@YAXPAUD3DModeInfo@@IABU1@AAV?$allocator@UD3DModeInfo@@@0@U_Nonscalar_ptr_iterator_tag@0@@Z 0049df90 f i LIB_D3DRender:d3d_shell.obj
 0001:0009cfd0       ?_Insert_n@?$vector@VCClientLightGroup@@V?$allocator@VCClientLightGroup@@@std@@@std@@IAEXViterator@12@IABVCClientLightGroup@@@Z 0049dfd0 f i world_client_bsp.obj
 0001:0009d240       ?reserve@?$vector@VCClientLightGroup@@V?$allocator@VCClientLightGroup@@@std@@@std@@QAEXI@Z 0049e240 f i world_client_bsp.obj
 0001:0009d310       ??1CWorldClientBSP@@QAE@XZ 0049e310 f i world_client_bsp.obj
 0001:0009d350       ??0CWorldClientBSP@@QAE@XZ 0049e350 f   world_client_bsp.obj
 0001:0009d3b0       ?_InterfaceImplementation@CWorldClientBSP@@UAEPBDXZ 0049e3b0 f i world_client_bsp.obj
 0001:0009d3c0       ?LoadRenderData@CWorldClientBSP@@MAE_NPAVILTStream@@@Z 0049e3c0 f   world_client_bsp.obj
 0001:0009d4e0       ??1IWorldParticleBlockerData@@UAE@XZ 0049e4e0 f i world_particle_blocker_data.obj
 0001:0009d4f0       ??_GIWorldParticleBlockerData@@UAEPAXI@Z 0049e4f0 f i world_particle_blocker_data.obj
 0001:0009d4f0       ??_EIWorldParticleBlockerData@@UAEPAXI@Z 0049e4f0 f i world_particle_blocker_data.obj
 0001:0009d510       ?_Xlen@?$vector@PAVCParticleBlocker@@V?$allocator@PAVCParticleBlocker@@@std@@@std@@IBEXXZ 0049e510 f i world_particle_blocker_data.obj
 0001:0009d590       ?InitializeXZPlanes@CParticleBlocker@@AAEXXZ 0049e590 f   world_particle_blocker_data.obj
 0001:0009d700       ?Load@CParticleBlocker@@QAE_NPAVILTStream@@@Z 0049e700 f   world_particle_blocker_data.obj
 0001:0009d880       ?GetBlockerEdgesXZ@CWorldParticleBlockerData@@UAE_NIAAULTPlane@@AAIAAPAU2@@Z 0049e880 f   world_particle_blocker_data.obj
 0001:0009d8f0       ?_Ufill@?$vector@PAVD3DShadowTexture@@V?$allocator@PAVD3DShadowTexture@@@std@@@std@@IAEPAPAVD3DShadowTexture@@PAPAV3@IABQAV3@@Z 0049e8f0 f i LIB_D3DRender:rendershadowlist.obj
 0001:0009d8f0       ?_Ufill@?$vector@PAUCObjectTickData@@V?$allocator@PAUCObjectTickData@@@std@@@std@@IAEPAPAUCObjectTickData@@PAPAU3@IABQAU3@@Z 0049e8f0 f i classmgr.obj
 0001:0009d8f0       ?_Ufill@?$vector@PAVCD3D_RenderBlock@@V?$allocator@PAVCD3D_RenderBlock@@@std@@@std@@IAEPAPAVCD3D_RenderBlock@@PAPAV3@IABQAV3@@Z 0049e8f0 f i LIB_D3DRender:d3d_renderworld.obj
 0001:0009d8f0       ?_Ufill@?$vector@PAUIDirect3DVertexBuffer9@@V?$allocator@PAUIDirect3DVertexBuffer9@@@std@@@std@@IAEPAPAUIDirect3DVertexBuffer9@@PAPAU3@IABQAU3@@Z 0049e8f0 f i LIB_D3DRender:d3d_renderworld.obj
 0001:0009d8f0       ?_Ufill@?$vector@PAVCTextureScriptNode@@V?$allocator@PAVCTextureScriptNode@@@std@@@std@@IAEPAPAVCTextureScriptNode@@PAPAV3@IABQAV3@@Z 0049e8f0 f i LIB_D3DRender:texturescriptmgr.obj
 0001:0009d8f0       ?_Ufill@?$vector@HV?$allocator@H@std@@@std@@IAEPAHPAHIABH@Z 0049e8f0 f i world_blind_object_data.obj
 0001:0009d8f0       ?_Ufill@?$vector@PAV?$vector@USSubLM@SRBLightGroup@@V?$allocator@USSubLM@SRBLightGroup@@@std@@@std@@V?$allocator@PAV?$vector@USSubLM@SRBLightGroup@@V?$allocator@USSubLM@SRBLightGroup@@@std@@@std@@@2@@std@@IAEPAPAV?$vector@USSubLM@SRBLightGroup@@V?$allocator@USSubLM@SRBLightGroup@@@std@@@2@PAPAV32@IABQAV32@@Z 0049e8f0 f i LIB_D3DRender:d3d_renderblock.obj
 0001:0009d8f0       ?_Ufill@?$vector@PAEV?$allocator@PAE@std@@@std@@IAEPAPAEPAPAEIABQAE@Z 0049e8f0 f i world_blind_object_data.obj
 0001:0009d8f0       ?_Ufill@?$vector@IV?$allocator@I@std@@@std@@IAEPAIPAIIABI@Z 0049e8f0 f i world_blind_object_data.obj
 0001:0009d8f0       ?_Ufill@?$vector@PAVDynamicLight@@V?$allocator@PAVDynamicLight@@@std@@@std@@IAEPAPAVDynamicLight@@PAPAV3@IABQAV3@@Z 0049e8f0 f i LIB_D3DRender:d3d_renderblock.obj
 0001:0009d8f0       ?_Ufill@?$vector@PAVCCustomFontFile@@V?$allocator@PAVCCustomFontFile@@@std@@@std@@IAEPAPAVCCustomFontFile@@PAPAV3@IABQAV3@@Z 0049e8f0 f i customfontfilemgr.obj
 0001:0009d8f0       ?_Ufill@?$vector@PAVCParticleBlocker@@V?$allocator@PAVCParticleBlocker@@@std@@@std@@IAEPAPAVCParticleBlocker@@PAPAV3@IABQAV3@@Z 0049e8f0 f i world_particle_blocker_data.obj
 0001:0009d8f0       ?_Ufill@?$vector@PAVCTextureScriptInstanceNode@@V?$allocator@PAVCTextureScriptInstanceNode@@@std@@@std@@IAEPAPAVCTextureScriptInstanceNode@@PAPAV3@IABQAV3@@Z 0049e8f0 f i LIB_D3DRender:texturescriptmgr.obj
 0001:0009d920       ?_Insert_n@?$vector@PAVCParticleBlocker@@V?$allocator@PAVCParticleBlocker@@@std@@@std@@IAEXViterator@12@IABQAVCParticleBlocker@@@Z 0049e920 f i world_particle_blocker_data.obj
 0001:0009db10       ??0CWorldParticleBlockerData@@QAE@XZ 0049eb10 f   world_particle_blocker_data.obj
 0001:0009db50       ?_InterfaceImplementation@CWorldParticleBlockerData@@UAEPBDXZ 0049eb50 f i world_particle_blocker_data.obj
 0001:0009db60       ?GetBlockersInAABB@CWorldParticleBlockerData@@UAE_NABU?$TVector3@M@@0AAV?$vector@IV?$allocator@I@std@@@std@@@Z 0049eb60 f   world_particle_blocker_data.obj
 0001:0009dc70       ?reserve@?$vector@PAVCParticleBlocker@@V?$allocator@PAVCParticleBlocker@@@std@@@std@@QAEXI@Z 0049ec70 f i world_particle_blocker_data.obj
 0001:0009dd40       ?Load@CWorldParticleBlockerData@@UAE?AW4ELoadWorldStatus@@PAVILTStream@@@Z 0049ed40 f   world_particle_blocker_data.obj
 0001:0009de20       ?Term@CWorldParticleBlockerData@@UAEXXZ 0049ee20 f   world_particle_blocker_data.obj
 0001:0009deb0       ??1CWorldParticleBlockerData@@UAE@XZ 0049eeb0 f   world_particle_blocker_data.obj
 0001:0009df20       ??_ECWorldParticleBlockerData@@UAEPAXI@Z 0049ef20 f i world_particle_blocker_data.obj
 0001:0009df20       ??_GCWorldParticleBlockerData@@UAEPAXI@Z 0049ef20 f i world_particle_blocker_data.obj
 0001:0009df40       ??1CWorldServerBSP@@QAE@XZ 0049ef40 f i world_server_bsp.obj
 0001:0009df50       ?IsLoaded@CWorldServerBSP@@UAE_NXZ 0049ef50 f   world_server_bsp.obj
 0001:0009df60       ?ServerTree@CWorldServerBSP@@UAEPAVWorldTree@@XZ 0049ef60 f   world_server_bsp.obj
 0001:0009df60       ?GetDefColors@CUIFont_Impl@@UAEPAIXZ 0049ef60 f   Lib_UI:cuibitmapfont.obj
 0001:0009df70       ?NumWorldModels@CWorldServerBSP@@UAEIXZ 0049ef70 f   world_server_bsp.obj
 0001:0009df80       ?GetWorldModel@CWorldServerBSP@@UAEPBVWorldData@@I@Z 0049ef80 f   world_server_bsp.obj
 0001:0009df90       ?IsOutsideWorld@CWorldServerBSP@@UAE_NABU?$TVector3@M@@@Z 0049ef90 f   world_server_bsp.obj
 0001:0009dff0       ?GetPolyFromHPoly@CWorldServerBSP@@UAEPAVWorldPoly@@UHPOLY@@@Z 0049eff0 f   world_server_bsp.obj
 0001:0009e020       ?GetWorldDataFromHPoly@CWorldServerBSP@@UAEPAVWorldData@@UHPOLY@@@Z 0049f020 f   world_server_bsp.obj
 0001:0009e050       ?InheritWorldModel@CWorldServerBSP@@UAE_NIPAVWorldData@@@Z 0049f050 f   world_server_bsp.obj
 0001:0009e080       ?InitWorldModel@CWorldServerBSP@@UAE_NPAVWorldModelInstance@@PBD@Z 0049f080 f   world_server_bsp.obj
 0001:0009e0b0       ?IntersectSegment@CWorldServerBSP@@UAE_NPAVIntersectQuery@@PAUIntersectInfo@@@Z 0049f0b0 f   world_server_bsp.obj
 0001:0009e0d0       ?IntersectSweptSphere@CWorldServerBSP@@UAE_NABU?$TVector3@M@@0MAAU2@1@Z 0049f0d0 f   world_server_bsp.obj
 0001:0009e100       ?EncodeCompressWorldPosition@CWorldServerBSP@@UAEXPAVCompWorldPos@@PBU?$TVector3@M@@@Z 0049f100 f   world_server_bsp.obj
 0001:0009e130       ?DecodeCompressWorldPosition@CWorldServerBSP@@UAEXPAU?$TVector3@M@@PBVCompWorldPos@@@Z 0049f130 f   world_server_bsp.obj
 0001:0009e160       ?Term@CWorldServerBSP@@UAEXXZ 0049f160 f   world_server_bsp.obj
 0001:0009e1f0       ?GetWorldBox@CWorldServerBSP@@UAEXAAU?$TVector3@M@@0@Z 0049f1f0 f   world_server_bsp.obj
 0001:0009e220       ?Load@CWorldServerBSP@@UAE?AW4ELoadWorldStatus@@PAVILTStream@@@Z 0049f220 f   world_server_bsp.obj
 0001:0009e300       ??0CWorldServerBSP@@QAE@XZ 0049f300 f   world_server_bsp.obj
 0001:0009e340       ?_InterfaceImplementation@CWorldServerBSP@@UAEPBDXZ 0049f340 f i world_server_bsp.obj
 0001:0009e350       ??1StaticLight@@UAE@XZ     0049f350 f i world_shared_bsp.obj
 0001:0009e360       ?CalcBoundingSpheres@CWorldSharedBSP@@QAEXAAPAPAVWorldData@@AAI@Z 0049f360 f   world_shared_bsp.obj
 0001:0009e3b0       ?FindWorldModel@IWorldSharedBSP@@SAPAVWorldData@@AAPAPAV2@AAIPBD@Z 0049f3b0 f   world_shared_bsp.obj
 0001:0009e410       ?InitWorldModel@CWorldSharedBSP@@UAE_NAAPAPAVWorldData@@AAIPAVWorldModelInstance@@PBD@Z 0049f410 f   world_shared_bsp.obj
 0001:0009e450       ?GetPolyFromHPoly@CWorldSharedBSP@@UAEPAVWorldPoly@@AAPAPAVWorldData@@AAIUHPOLY@@@Z 0049f450 f   world_shared_bsp.obj
 0001:0009e490       ?GetWorldDataFromHPoly@CWorldSharedBSP@@UAEPAVWorldData@@AAPAPAV2@AAIUHPOLY@@@Z 0049f490 f   world_shared_bsp.obj
 0001:0009e4b0       ??_EStaticLight@@UAEPAXI@Z 0049f4b0 f i world_shared_bsp.obj
 0001:0009e4b0       ??_GStaticLight@@UAEPAXI@Z 0049f4b0 f i world_shared_bsp.obj
 0001:0009e4d0       ?ReadWorldHeader@IWorldSharedBSP@@SA_NPAVILTStream@@AAI111111@Z 0049f4d0 f   world_shared_bsp.obj
 0001:0009e5c0       ?InsertStaticLights@CWorldSharedBSP@@UAEXAAVWorldTree@@@Z 0049f5c0 f   world_shared_bsp.obj
 0001:0009e5f0       ??1?$CListCircularElement@VStaticLight@@@@QAE@XZ 0049f5f0 f i world_shared_bsp.obj
 0001:0009e610       ?AddStaticLights@CWorldSharedBSP@@QAEXPAVILTStream@@@Z 0049f610 f   world_shared_bsp.obj
 0001:0009eea0       ?Load@CWorldSharedBSP@@UAE?AW4ELoadWorldStatus@@PAVILTStream@@AAVWorldTree@@AAPAPAVWorldData@@AAI@Z 0049fea0 f   world_shared_bsp.obj
 0001:0009f2b0       ??1?$CListCircularHead@VStaticLight@@@@QAE@XZ 004a02b0 f i world_shared_bsp.obj
 0001:0009f2e0       ?Clear@?$CListCircularHead@VStaticLight@@@@QAEXXZ 004a02e0 f i world_shared_bsp.obj
 0001:0009f320       ??1IWorldSharedBSP@@QAE@XZ 004a0320 f i world_shared_bsp.obj
 0001:0009f370       ?Clear@CWorldSharedBSP@@QAEXXZ 004a0370 f   world_shared_bsp.obj
 0001:0009f3c0       ?Term@CWorldSharedBSP@@UAEXXZ 004a03c0 f   world_shared_bsp.obj
 0001:0009f430       ??1CWorldSharedBSP@@QAE@XZ 004a0430 f i world_shared_bsp.obj
 0001:0009f440       ??0CWorldSharedBSP@@QAE@XZ 004a0440 f   world_shared_bsp.obj
 0001:0009f4e0       ?_InterfaceImplementation@CWorldSharedBSP@@UAEPBDXZ 004a04e0 f i world_shared_bsp.obj
 0001:0009f4f0       ?GetSourceWorldOffset@CWorldSharedBSP@@UBEABU?$TVector3@M@@XZ 004a04f0 f i world_shared_bsp.obj
 0001:0009f500       ?_InterfaceImplementation@ICommandLineArgsCommonImp@@UAEPBDXZ 004a0500 f i icommandlineargs.obj
 0001:0009f510       ?Init@ICommandLineArgsCommonImp@@UAEXHPAPAD@Z 004a0510 f   icommandlineargs.obj
 0001:0009f600       ?Argv@ICommandLineArgsCommonImp@@UAEPBDI@Z 004a0600 f   icommandlineargs.obj
 0001:0009f620       ?FindArgDash@ICommandLineArgsCommonImp@@UAEPBDPBD@Z 004a0620 f   icommandlineargs.obj
 0001:0009f670       ?FindArg@ICommandLineArgsCommonImp@@UAEPBDPBD@Z 004a0670 f   icommandlineargs.obj
 0001:0009f6e0       ?FindInFileTrees@CClientFileMgr@@QAEPAUClientFileTree@@PBD@Z 004a06e0 f   client_filemgr.obj
 0001:0009f740       ?FindServerFile@CClientFileMgr@@QAEPAUServerFile@@G@Z 004a0740 f   client_filemgr.obj
 0001:0009f780       ?ProcessPacket@CClientFileMgr@@UAEXABVCPacket_Read@@@Z 004a0780 f   client_filemgr.obj
 0001:0009f7a0       ?OnConnect@CClientFileMgr@@UAEXPAVCBaseConn@@@Z 004a07a0 f   client_filemgr.obj
 0001:0009f810       ?AddResourceTrees@CClientFileMgr@@UAEXPAPBDHPAW4TreeType@@PAH@Z 004a0810 f   client_filemgr.obj
 0001:0009f8b0       ?GetFilename@CClientFileMgr@@UAEPBDPAVFileRef@@@Z 004a08b0 f   client_filemgr.obj
 0001:0009f8e0       ?GetFileList@CClientFileMgr@@UAEPAUFileEntry@@PBD@Z 004a08e0 f   client_filemgr.obj
 0001:0009f930       ?FindFileIdentifier@CClientFileMgr@@UAEPAUFileIdentifier@@PBDE@Z 004a0930 f   client_filemgr.obj
 0001:0009fa90       ?OpenFileIdentifier@CClientFileMgr@@UAEPAVILTStream@@PAUFileIdentifier@@@Z 004a0a90 f   client_filemgr.obj
 0001:0009fab0       ?OpenFile@CClientFileMgr@@UAEPAVILTStream@@PAVFileRef@@@Z 004a0ab0 f   client_filemgr.obj
 0001:0009fb40       ?CopyFileA@CClientFileMgr@@UAEIPBD0@Z 004a0b40 f   client_filemgr.obj
 0001:0009fbb0       ?GetFTClient@CClientFileMgr@@UAEPAUFTClient@@XZ 004a0bb0 f   client_filemgr.obj
 0001:0009fbc0       ??1?$ObjectBank@UFileIdentifier@@VNullCS@@@@UAE@XZ 004a0bc0 f i client_filemgr.obj
 0001:0009fc10       ??1?$ObjectBank@UServerFile@@VNullCS@@@@UAE@XZ 004a0c10 f i client_filemgr.obj
 0001:0009fc60       ?Term@?$ObjectBank@UServerFile@@VNullCS@@@@UAEXXZ 004a0c60 f i client_filemgr.obj
 0001:0009fc80       ??_E?$ObjectBank@UFileIdentifier@@VNullCS@@@@UAEPAXI@Z 004a0c80 f i client_filemgr.obj
 0001:0009fc80       ??_G?$ObjectBank@UFileIdentifier@@VNullCS@@@@UAEPAXI@Z 004a0c80 f i client_filemgr.obj
 0001:0009fca0       ??_E?$ObjectBank@UServerFile@@VNullCS@@@@UAEPAXI@Z 004a0ca0 f i client_filemgr.obj
 0001:0009fca0       ??_G?$ObjectBank@UServerFile@@VNullCS@@@@UAEPAXI@Z 004a0ca0 f i client_filemgr.obj
 0001:0009fcc0       ??1CClientFileMgr@@QAE@XZ  004a0cc0 f i client_filemgr.obj
 0001:0009fd20       ?Init@CClientFileMgr@@UAEXXZ 004a0d20 f   client_filemgr.obj
 0001:0009fdb0       ?Term@CClientFileMgr@@UAEXXZ 004a0db0 f   client_filemgr.obj
 0001:0009fe20       ?OnDisconnect@CClientFileMgr@@UAEXXZ 004a0e20 f   client_filemgr.obj
 0001:0009fec0       ??0?$ObjectBank@UFileIdentifier@@VNullCS@@@@QAE@XZ 004a0ec0 f i client_filemgr.obj
 0001:0009ff10       ?AllocVoid@?$ObjectBank@UUsedFile@@VNullCS@@@@UAEPAXXZ 004a0f10 f i server_filemgr.obj
 0001:0009ff10       ?Allocate@?$ObjectBank@UFileIdentifier@@VNullCS@@@@QAEPAUFileIdentifier@@XZ 004a0f10 f i client_filemgr.obj
 0001:0009ff10       ?Allocate@?$ObjectBank@VLTLink@@VNullCS@@@@QAEPAVLTLink@@XZ 004a0f10 f i clientmgr.obj
 0001:0009ff10       ?Allocate@?$ObjectBank@UHashElement@@VNullCS@@@@QAEPAUHashElement@@XZ 004a0f10 f i dhashtable.obj
 0001:0009ff10       ?Allocate@?$ObjectBank@UServerFile@@VNullCS@@@@QAEPAUServerFile@@XZ 004a0f10 f i client_filemgr.obj
 0001:0009ff10       ?Allocate@?$ObjectBank@UFTFile@@VNullCS@@@@QAEPAUFTFile@@XZ 004a0f10 f i ftserv.obj
 0001:0009ff40       ??0?$ObjectBank@UServerFile@@VNullCS@@@@QAE@XZ 004a0f40 f i client_filemgr.obj
 0001:0009ff90       ??0CClientFileMgr@@QAE@XZ  004a0f90 f i client_filemgr.obj
 0001:0009fff0       ?_InterfaceImplementation@CClientFileMgr@@UAEPBDXZ 004a0ff0 f i client_filemgr.obj
 0001:000a0000       ?GetFileIdentifier@CClientFileMgr@@UAEPAUFileIdentifier@@PAVFileRef@@E@Z 004a1000 f   client_filemgr.obj
 0001:000a0250       ?OnNewFile@CClientFileMgr@@UAEHPAUFTClient@@PBDII@Z 004a1250 f   client_filemgr.obj
 0001:000a0350       ?SetRenderStyle@CLTModelClient@@UAEIPAVLTObject@@IPAVCRenderStyle@@@Z 004a1350 f   client_iltmodel.obj
 0001:000a03c0       ?GetRenderStyle@CLTModelClient@@UAEIPAVLTObject@@IPAPAVCRenderStyle@@@Z 004a13c0 f   client_iltmodel.obj
 0001:000a0430       ?SetCurAnim@CLTModelClient@@UAEIPAVLTObject@@EI@Z 004a1430 f   client_iltmodel.obj
 0001:000a04c0       ?CacheModelDB@CLTModelClient@@UAEIPBDAAI@Z 004a14c0 f   client_iltmodel.obj
 0001:000a0510       ?UncacheModelDB@CLTModelClient@@UAEIAAI@Z 004a1510 f   client_iltmodel.obj
 0001:000a0550       ?UncacheModelDB@CLTModelClient@@UAEIPBD@Z 004a1550 f   client_iltmodel.obj
 0001:000a05b0       ?AddChildModelDB@ILTModel@@UAEIPAVLTObject@@I@Z 004a15b0 f i client_iltmodel.obj
 0001:000a05c0       ?GetFilenames@CLTModelClient@@UAEIPAVLTObject@@PADI1I@Z 004a15c0 f   client_iltmodel.obj
 0001:000a06a0       ?GetModelDBFilename@CLTModelClient@@UAEIPAVLTObject@@PADI@Z 004a16a0 f   client_iltmodel.obj
 0001:000a0740       ?GetSkinFilename@CLTModelClient@@UAEIPAVLTObject@@IPADI@Z 004a1740 f   client_iltmodel.obj
 0001:000a07e0       ?_InterfaceImplementation@CLTModelClient@@UAEPBDXZ 004a17e0 f i client_iltmodel.obj
 0001:000a07f0       ?GetRootNode@ILTModel@@UAEIPAVLTObject@@AAI@Z 004a17f0 f   modellt_impl.obj
 0001:000a0810       ?GetParent@ILTModel@@UAEIPAVLTObject@@IAAI@Z 004a1810 f   modellt_impl.obj
 0001:000a0880       ?GetChild@ILTModel@@UAEIPAVLTObject@@IIAAI@Z 004a1880 f   modellt_impl.obj
 0001:000a08f0       ?GetNumChildren@ILTModel@@UAEIPAVLTObject@@IAAI@Z 004a18f0 f   modellt_impl.obj
 0001:000a0960       ?AddNodeControlFn@ILTModel@@UAEIPAVLTObject@@IP6AXABUNodeControlData@@PAX@Z2@Z 004a1960 f   modellt_impl.obj
 0001:000a09d0       ?AddNodeControlFn@ILTModel@@UAEIPAVLTObject@@P6AXABUNodeControlData@@PAX@Z2@Z 004a19d0 f   modellt_impl.obj
 0001:000a0a30       ?RemoveNodeControlFn@ILTModel@@UAEIPAVLTObject@@IP6AXABUNodeControlData@@PAX@Z2@Z 004a1a30 f   modellt_impl.obj
 0001:000a0ab0       ?RemoveNodeControlFn@ILTModel@@UAEIPAVLTObject@@P6AXABUNodeControlData@@PAX@Z2@Z 004a1ab0 f   modellt_impl.obj
 0001:000a0b20       ?GetSocket@ILTModel@@UAEIPAVLTObject@@PBDAAI@Z 004a1b20 f   modellt_impl.obj
 0001:000a0c20       ?GetNode@ILTModel@@UAEIPAVLTObject@@PBDAAI@Z 004a1c20 f   modellt_impl.obj
 0001:000a0d20       ?GetPiece@ILTModel@@UAEIPAVLTObject@@PBDAAI@Z 004a1d20 f   modellt_impl.obj
 0001:000a0e20       ?FindWeightSet@ILTModel@@UAEIPAVLTObject@@PBDAAI@Z 004a1e20 f   modellt_impl.obj
 0001:000a0f20       ?GetPieceHideStatus@ILTModel@@UAEIPAVLTObject@@IAA_N@Z 004a1f20 f   modellt_impl.obj
 0001:000a0fa0       ?SetPieceHideStatus@ILTModel@@UAEIPAVLTObject@@I_N@Z 004a1fa0 f   modellt_impl.obj
 0001:000a1050       ?GetNodeTransform@ILTModel@@UAEIPAVLTObject@@IAAVLTransform@@_N@Z 004a2050 f   modellt_impl.obj
 0001:000a10c0       ?ApplyAnimations@ILTModel@@UAEIPAVLTObject@@@Z 004a20c0 f   modellt_impl.obj
 0001:000a1120       ?GetSocketTransform@ILTModel@@UAEIPAVLTObject@@IAAVLTransform@@_N@Z 004a2120 f   modellt_impl.obj
 0001:000a1190       ?UpdateMainTracker@ILTModel@@UAEIPAVLTObject@@M@Z 004a2190 f   modellt_impl.obj
 0001:000a1220       ?GetMainTracker@ILTModel@@UAEIPAVLTObject@@AAE@Z 004a2220 f   modellt_impl.obj
 0001:000a1230       ?GetPlaybackState@ILTModel@@UAEIPAVLTObject@@EAAI@Z 004a2230 f   modellt_impl.obj
 0001:000a12b0       ?AddTracker@ILTModel@@UAEIPAVLTObject@@E@Z 004a22b0 f   modellt_impl.obj
 0001:000a13f0       ?RemoveTracker@ILTModel@@UAEIPAVLTObject@@E@Z 004a23f0 f   modellt_impl.obj
 0001:000a14f0       ?GetAnimIndex@ILTModel@@UAEIPAVLTObject@@PBDAAI@Z 004a24f0 f   modellt_impl.obj
 0001:000a1560       ?GetCurAnim@ILTModel@@UAEIPAVLTObject@@EAAI@Z 004a2560 f   modellt_impl.obj
 0001:000a15c0       ?SetCurAnim@ILTModel@@UAEIPAVLTObject@@EI@Z 004a25c0 f   modellt_impl.obj
 0001:000a1690       ?ResetAnim@ILTModel@@UAEIPAVLTObject@@E@Z 004a2690 f   modellt_impl.obj
 0001:000a1740       ?GetLooping@ILTModel@@UAEIPAVLTObject@@E@Z 004a2740 f   modellt_impl.obj
 0001:000a17b0       ?SetLooping@ILTModel@@UAEIPAVLTObject@@E_N@Z 004a27b0 f   modellt_impl.obj
 0001:000a1830       ?GetPlaying@ILTModel@@UAEIPAVLTObject@@E@Z 004a2830 f   modellt_impl.obj
 0001:000a18a0       ?SetPlaying@ILTModel@@UAEIPAVLTObject@@E_N@Z 004a28a0 f   modellt_impl.obj
 0001:000a1920       ?GetCurAnimTime@ILTModel@@UAEIPAVLTObject@@EAAI@Z 004a2920 f   modellt_impl.obj
 0001:000a1990       ?SetCurAnimTime@ILTModel@@UAEIPAVLTObject@@EI@Z 004a2990 f   modellt_impl.obj
 0001:000a1a50       ?SetHintNode@ILTModel@@UAEIPAVLTObject@@EI@Z 004a2a50 f   modellt_impl.obj
 0001:000a1ac0       ?SetAnimRate@ILTModel@@UAEIPAVLTObject@@EM@Z 004a2ac0 f   modellt_impl.obj
 0001:000a1b30       ?GetAnimRate@ILTModel@@UAEIPAVLTObject@@EAAM@Z 004a2b30 f   modellt_impl.obj
 0001:000a1ba0       ?GetWeightSet@ILTModel@@UAEIPAVLTObject@@EAAI@Z 004a2ba0 f   modellt_impl.obj
 0001:000a1c00       ?SetWeightSet@ILTModel@@UAEIPAVLTObject@@EI@Z 004a2c00 f   modellt_impl.obj
 0001:000a1cb0       ?GetNumLODs@ILTModel@@UAEIPAVLTObject@@IAAI@Z 004a2cb0 f   modellt_impl.obj
 0001:000a1d10       ?GetLODValFromDist@ILTModel@@UAEIPAVLTObject@@IMAAI@Z 004a2d10 f   modellt_impl.obj
 0001:000a1d80       ?GetNumModelOBBs@ILTModel@@UAEIPAVLTObject@@AAI@Z 004a2d80 f   modellt_impl.obj
 0001:000a1de0       ?GetModelOBBCopy@ILTModel@@UAEIPAVLTObject@@PAUModelOBB@@@Z 004a2de0 f   modellt_impl.obj
 0001:000a1e40       ?UpdateModelOBB@ILTModel@@UAEIPAVLTObject@@PAUModelOBB@@@Z 004a2e40 f   modellt_impl.obj
 0001:000a1ea0       ?GetNextNode@ILTModel@@UAEIPAVLTObject@@IAAI@Z 004a2ea0 f   modellt_impl.obj
 0001:000a1f20       ?GetNumNodes@ILTModel@@UAEIPAVLTObject@@AAI@Z 004a2f20 f   modellt_impl.obj
 0001:000a1f90       ?GetNumPieces@ILTModel@@UAEIPAVLTObject@@AAI@Z 004a2f90 f   modellt_impl.obj
 0001:000a1ff0       ?GetNodeName@ILTModel@@UAEIPAVLTObject@@IPADI@Z 004a2ff0 f   modellt_impl.obj
 0001:000a20b0       ?GetBindPoseNodeTransform@ILTModel@@UAEIPAVLTObject@@IAAULTMatrix@@@Z 004a30b0 f   modellt_impl.obj
 0001:000a2130       ?GetAnimLength@ILTModel@@UAEIPAVLTObject@@IAAI@Z 004a3130 f   modellt_impl.obj
 0001:000a2230       ?GetCurAnimLength@ILTModel@@UAEIPAVLTObject@@EAAI@Z 004a3230 f   modellt_impl.obj
 0001:000a22f0       ?GetFilenames@CLTModelServer@@UAEIPAVLTObject@@PADI1I@Z 004a32f0 f   server_iltmodel.obj
 0001:000a23a0       ?GetModelDBFilename@CLTModelServer@@UAEIPAVLTObject@@PADI@Z 004a33a0 f   server_iltmodel.obj
 0001:000a2440       ?GetSkinFilename@CLTModelServer@@UAEIPAVLTObject@@IPADI@Z 004a3440 f   server_iltmodel.obj
 0001:000a24e0       ?SetPieceHideStatus@CLTModelServer@@UAEIPAVLTObject@@I_N@Z 004a34e0 f   server_iltmodel.obj
 0001:000a24f0       ?AddTracker@CLTModelServer@@UAEIPAVLTObject@@E@Z 004a34f0 f   server_iltmodel.obj
 0001:000a2520       ?RemoveTracker@CLTModelServer@@UAEIPAVLTObject@@E@Z 004a3520 f   server_iltmodel.obj
 0001:000a2550       ?SetLooping@CLTModelServer@@UAEIPAVLTObject@@E_N@Z 004a3550 f   server_iltmodel.obj
 0001:000a25e0       ?SetPlaying@CLTModelServer@@UAEIPAVLTObject@@E_N@Z 004a35e0 f   server_iltmodel.obj
 0001:000a2670       ?SetCurAnimTime@CLTModelServer@@UAEIPAVLTObject@@EI@Z 004a3670 f   server_iltmodel.obj
 0001:000a2740       ?SetAnimRate@CLTModelServer@@UAEIPAVLTObject@@EM@Z 004a3740 f   server_iltmodel.obj
 0001:000a2810       ?SetCurAnim@CLTModelServer@@UAEIPAVLTObject@@EI@Z 004a3810 f   server_iltmodel.obj
 0001:000a28e0       ?ResetAnim@CLTModelServer@@UAEIPAVLTObject@@E@Z 004a38e0 f   server_iltmodel.obj
 0001:000a29b0       ?SetWeightSet@CLTModelServer@@UAEIPAVLTObject@@EI@Z 004a39b0 f   server_iltmodel.obj
 0001:000a2a80       ?CacheModelDB@CLTModelServer@@UAEIPBDAAI@Z 004a3a80 f   server_iltmodel.obj
 0001:000a2ad0       ?UncacheModelDB@CLTModelServer@@UAEIAAI@Z 004a3ad0 f   server_iltmodel.obj
 0001:000a2b10       ?IsModelDBLoaded@CLTModelServer@@UAEII@Z 004a3b10 f   server_iltmodel.obj
 0001:000a2b10       ?IsModelDBLoaded@CLTModelClient@@UAEII@Z 004a3b10 f   client_iltmodel.obj
 0001:000a2b40       ?AddChildModelDB@CLTModelServer@@UAEIPAVLTObject@@I@Z 004a3b40 f   server_iltmodel.obj
 0001:000a2bd0       ?_InterfaceImplementation@CLTModelServer@@UAEPBDXZ 004a3bd0 f i server_iltmodel.obj
 0001:000a2be0       ?GetILTModel@CLTCommonClient@@UAEPAVILTModel@@XZ 004a3be0 f   client_iltcommon.obj
 0001:000a2bf0       ?GetPolyTextureFlags@CLTCommonClient@@UAEIUHPOLY@@PAI@Z 004a3bf0 f   client_iltcommon.obj
 0001:000a2cb0       ?GetPointStatus@CLTCommonClient@@UAEIPBU?$TVector3@M@@@Z 004a3cb0 f   client_iltcommon.obj
 0001:000a2ce0       ?GetPointShade@CLTCommonClient@@UAEIPBU?$TVector3@M@@PAU2@@Z 004a3ce0 f   client_iltcommon.obj
 0001:000a2da0       ?GetAttachmentObjects@CLTCommonClient@@UAEIPAUHATTACHMENT_t@@AAPAVLTObject@@1@Z 004a3da0 f   client_iltcommon.obj
 0001:000a2e70       ?CreateMessage@CLTCommonClient@@UAEIAAPAVILTMessage_Write@@@Z 004a3e70 f   client_iltcommon.obj
 0001:000a2e80       ?SetObjectFilenames@CLTCommonClient@@UAEIPAVLTObject@@PAUObjectCreateStruct@@@Z 004a3e80 f   client_iltcommon.obj
 0001:000a3000       ?GetPolyPlane@CLTCommonClient@@UAEIUHPOLY@@PAULTPlane@@@Z 004a4000 f   client_iltcommon.obj
 0001:000a30c0       ?SetObjectResource@CLTCommonClient@@UAEIPAVLTObject@@W4EObjectResource@@IPBD@Z 004a40c0 f   client_iltcommon.obj
 0001:000a3290       ?_InterfaceImplementation@CLTCommonClient@@UAEPBDXZ 004a4290 f i client_iltcommon.obj
 0001:000a32a0       ?NumAttachments@CLTCommonClient@@UAEIPAVLTObject@@AAI@Z 004a42a0 f i client_iltcommon.obj
 0001:000a32b0       ?GetILTModel@CLTCommonServer@@UAEPAVILTModel@@XZ 004a42b0 f   server_iltcommon.obj
 0001:000a32c0       ?GetObjectFlagPointer@CLTCommonServer@@MAEPBIQAVLTObject@@W4ObjFlagType@@@Z 004a42c0 f   server_iltcommon.obj
 0001:000a32e0       ?SetObjectFlags@CLTCommonServer@@UAEIPAVLTObject@@W4ObjFlagType@@II@Z 004a42e0 f   server_iltcommon.obj
 0001:000a3410       ?GetPointStatus@CLTCommonServer@@UAEIPBU?$TVector3@M@@@Z 004a4410 f   server_iltcommon.obj
 0001:000a3440       ?GetPointShade@CLTCommonServer@@UAEIPBU?$TVector3@M@@PAU2@@Z 004a4440 f   server_iltcommon.obj
 0001:000a3460       ?GetPolyTextureFlags@CLTCommonServer@@UAEIUHPOLY@@PAI@Z 004a4460 f   server_iltcommon.obj
 0001:000a34d0       ?CreateMessage@CLTCommonServer@@UAEIAAPAVILTMessage_Write@@@Z 004a44d0 f   server_iltcommon.obj
 0001:000a34e0       ?GetAttachmentObjects@CLTCommonServer@@UAEIPAUHATTACHMENT_t@@AAPAVLTObject@@1@Z 004a44e0 f   server_iltcommon.obj
 0001:000a35a0       ?NumAttachments@CLTCommonServer@@UAEIPAVLTObject@@AAI@Z 004a45a0 f   server_iltcommon.obj
 0001:000a3610       ?GetPolyPlane@CLTCommonServer@@UAEIUHPOLY@@PAULTPlane@@@Z 004a4610 f   server_iltcommon.obj
 0001:000a3690       ?SetObjectResource@CLTCommonServer@@UAEIPAVLTObject@@W4EObjectResource@@IPBD@Z 004a4690 f   server_iltcommon.obj
 0001:000a3870       ?_InterfaceImplementation@CLTCommonServer@@UAEPBDXZ 004a4870 f i server_iltcommon.obj
 0001:000a3880       ?SetObjectFilenames@CLTCommonServer@@UAEIPAVLTObject@@PAUObjectCreateStruct@@@Z 004a4880 f   server_iltcommon.obj
 0001:000a3a00       ?GetObjectFlagPointer@CLTCommonShared@@MAEPBIQAVLTObject@@W4ObjFlagType@@@Z 004a4a00 f   shared_iltcommon.obj
 0001:000a3a60       ?GetObjectFlags@CLTCommonShared@@UAEIQAVLTObject@@W4ObjFlagType@@AAI@Z 004a4a60 f   shared_iltcommon.obj
 0001:000a3ae0       ?SetObjectFlags@CLTCommonShared@@UAEIPAVLTObject@@W4ObjFlagType@@II@Z 004a4ae0 f   shared_iltcommon.obj
 0001:000a3b60       ?Parse@CLTCommonShared@@UAEIPAVConParse@@@Z 004a4b60 f   shared_iltcommon.obj
 0001:000a3b80       ?GetObjectType@CLTCommonShared@@UAEIPAVLTObject@@PAI@Z 004a4b80 f   shared_iltcommon.obj
 0001:000a3be0       ?GetRotationVectors@CLTCommonShared@@UAEIAAULTRotation@@AAU?$TVector3@M@@11@Z 004a4be0 f   shared_iltcommon.obj
 0001:000a3c10       ?SetupEuler@CLTCommonShared@@UAEIAAULTRotation@@MMM@Z 004a4c10 f   shared_iltcommon.obj
 0001:000a3c40       ?GetAttachments@CLTCommonShared@@UAEIPAVLTObject@@PAPAV2@IAAI2@Z 004a4c40 f   shared_iltcommon.obj
 0001:000a3d00       ?CompressVector@CLTCommonShared@@UAEIABU?$TVector3@M@@AAUCompVector@@@Z 004a4d00 f   shared_iltcommon.obj
 0001:000a3d20       ?UncompressVector@CLTCommonShared@@UAEIABUCompVector@@AAU?$TVector3@M@@@Z 004a4d20 f   shared_iltcommon.obj
 0001:000a3d40       ?CompressRotation@CLTCommonShared@@UAEIABULTRotation@@AAVCompRot@@@Z 004a4d40 f   shared_iltcommon.obj
 0001:000a3d60       ?UncompressRotation@CLTCommonShared@@UAEIABVCompRot@@AAULTRotation@@@Z 004a4d60 f   shared_iltcommon.obj
 0001:000a3da0       ?GetAttachmentTransform@CLTCommonShared@@UAEIPAUHATTACHMENT_t@@AAVLTransform@@_N@Z 004a4da0 f   shared_iltcommon.obj
 0001:000a3fb0       ?GetAttachedNodeOrSocketTransform@CLTCommonShared@@QAEIPAUHATTACHMENT_t@@IAAVLTransform@@_N@Z 004a4fb0 f   shared_iltcommon.obj
 0001:000a4090       ?GetAttachedModelNodeTransform@CLTCommonShared@@UAEIPAUHATTACHMENT_t@@IAAVLTransform@@@Z 004a5090 f   shared_iltcommon.obj
 0001:000a40b0       ?GetAttachedModelSocketTransform@CLTCommonShared@@UAEIPAUHATTACHMENT_t@@IAAVLTransform@@@Z 004a50b0 f   shared_iltcommon.obj
 0001:000a40d0       ?GetModelAnimUserDims@CLTCommonShared@@UAEIPAVLTObject@@PAU?$TVector3@M@@I@Z 004a50d0 f   shared_iltcommon.obj
 0001:000a41c0       ?IsValid@CLTCursorInst@@UAEIXZ 004a51c0 f i lt_cursor_impl.obj
 0001:000a41d0       ?SetData@CLTCursorInst@@UAEXPBX@Z 004a51d0 f i lt_cursor_impl.obj
 0001:000a41e0       ?PreSetMode@CLTCursor@@IAEIW4CursorMode@@@Z 004a51e0 f   lt_cursor_impl.obj
 0001:000a4220       ?SetCursorMode@CLTCursor@@UAEIW4CursorMode@@_N@Z 004a5220 f   lt_cursor_impl.obj
 0001:000a4260       ?IsValidCursor@CLTCursor@@UAEIPAVILTCursorInst@@@Z 004a5260 f   lt_cursor_impl.obj
 0001:000a4270       ?SetCursor@CLTCursor@@UAEIPAVILTCursorInst@@@Z 004a5270 f   lt_cursor_impl.obj
 0001:000a42a0       ?GetLen@BaseFileStream@@UAEIPAI@Z 004a52a0 f   de_file.obj
 0001:000a42a0       ?GetCursorMode@CLTCursor@@UAEIAAW4CursorMode@@@Z 004a52a0 f   lt_cursor_impl.obj
 0001:000a42b0       ?IsCursorModeAvailable@CLTCursor@@UAEIW4CursorMode@@@Z 004a52b0 f   lt_cursor_impl.obj
 0001:000a42c0       ?RefreshCursor@CLTCursor@@UAEIXZ 004a52c0 f   lt_cursor_impl.obj
 0001:000a42f0       ?FreeCursor@CLTCursor@@UAEIQAVILTCursorInst@@@Z 004a52f0 f   lt_cursor_impl.obj
 0001:000a4310       ?LoadCursorBitmapResource@CLTCursor@@UAEIPBDAAPAVILTCursorInst@@@Z 004a5310 f   lt_cursor_impl.obj
 0001:000a4390       ?_InterfaceImplementation@CLTCursor@@UAEPBDXZ 004a5390 f i lt_cursor_impl.obj
 0001:000a43a0       ?UpdateMovement@CLTPhysicsClient@@UAEIPAUMoveInfo@@@Z 004a53a0 f   client_iltphysics.obj
 0001:000a4430       ?SetVelocity@CLTPhysicsClient@@UAEIPAVLTObject@@PBU?$TVector3@M@@@Z 004a5430 f   client_iltphysics.obj
 0001:000a44a0       ?SetAcceleration@CLTPhysicsClient@@UAEIPAVLTObject@@PBU?$TVector3@M@@@Z 004a54a0 f   client_iltphysics.obj
 0001:000a4510       ?MoveObject@CLTPhysicsClient@@UAEIPAVLTObject@@PBU?$TVector3@M@@I@Z 004a5510 f   client_iltphysics.obj
 0001:000a4650       ?SetObjectDims@CLTPhysicsClient@@UAEIPAVLTObject@@PAU?$TVector3@M@@I@Z 004a5650 f   client_iltphysics.obj
 0001:000a47b0       ?GetGlobalForce@CLTPhysicsClient@@UAEIAAU?$TVector3@M@@@Z 004a57b0 f   client_iltphysics.obj
 0001:000a47e0       ?SetGlobalForce@CLTPhysicsClient@@UAEIABU?$TVector3@M@@@Z 004a57e0 f   client_iltphysics.obj
 0001:000a4800       ?MovePushObjects@CLTPhysicsClient@@UAEIPAVLTObject@@ABU?$TVector3@M@@PAPAV2@I@Z 004a5800 f   client_iltphysics.obj
 0001:000a4930       ?RotatePushObjects@CLTPhysicsClient@@UAEIPAVLTObject@@ABULTRotation@@PAPAV2@I@Z 004a5930 f   client_iltphysics.obj
 0001:000a4a90       ?_InterfaceImplementation@CLTPhysicsClient@@UAEPBDXZ 004a5a90 f i client_iltphysics.obj
 0001:000a4aa0       ?SetStairHeight@CLTPhysicsClient@@UAEIM@Z 004a5aa0 f   client_iltphysics.obj
 0001:000a4aa0       ?SetStairHeight@CLTPhysicsServer@@UAEIM@Z 004a5aa0 f   server_iltphysics.obj
 0001:000a4ab0       ?MoveObject@CLTPhysicsServer@@UAEIPAVLTObject@@PBU?$TVector3@M@@I@Z 004a5ab0 f   server_iltphysics.obj
 0001:000a4b40       ?SetObjectDims@CLTPhysicsServer@@UAEIPAVLTObject@@PAU?$TVector3@M@@I@Z 004a5b40 f   server_iltphysics.obj
 0001:000a4cb0       ?GetGlobalForce@CLTPhysicsServer@@UAEIAAU?$TVector3@M@@@Z 004a5cb0 f   server_iltphysics.obj
 0001:000a4ce0       ?SetGlobalForce@CLTPhysicsServer@@UAEIABU?$TVector3@M@@@Z 004a5ce0 f   server_iltphysics.obj
 0001:000a4d00       ?_InterfaceImplementation@CLTPhysicsServer@@UAEPBDXZ 004a5d00 f i server_iltphysics.obj
 0001:000a4d10       ?SetVelocity@CLTPhysicsServer@@UAEIPAVLTObject@@PBU?$TVector3@M@@@Z 004a5d10 f   server_iltphysics.obj
 0001:000a4dc0       ?SetAcceleration@CLTPhysicsServer@@UAEIPAVLTObject@@PBU?$TVector3@M@@@Z 004a5dc0 f   server_iltphysics.obj
 0001:000a4e70       ?GetFrictionCoefficient@ILTPhysics@@UAEIPAVLTObject@@PAM@Z 004a5e70 f   shared_iltphysics.obj
 0001:000a4e90       ?SetFrictionCoefficient@ILTPhysics@@UAEIPAVLTObject@@M@Z 004a5e90 f   shared_iltphysics.obj
 0001:000a4eb0       ?GetMass@ILTPhysics@@UAEIPAVLTObject@@PAM@Z 004a5eb0 f   shared_iltphysics.obj
 0001:000a4ed0       ?SetMass@ILTPhysics@@UAEIPAVLTObject@@M@Z 004a5ed0 f   shared_iltphysics.obj
 0001:000a4ef0       ?IsWorldObject@ILTPhysics@@UAEIPAVLTObject@@@Z 004a5ef0 f   shared_iltphysics.obj
 0001:000a4f20       ?GetForceIgnoreLimit@ILTPhysics@@UAEIPAVLTObject@@AAM@Z 004a5f20 f   shared_iltphysics.obj
 0001:000a4f80       ?SetForceIgnoreLimit@ILTPhysics@@UAEIPAVLTObject@@M@Z 004a5f80 f   shared_iltphysics.obj
 0001:000a4fe0       ?GetVelocity@ILTPhysics@@UAEIPAVLTObject@@PAU?$TVector3@M@@@Z 004a5fe0 f   shared_iltphysics.obj
 0001:000a5050       ?GetObjectDims@ILTPhysics@@UAEIPAVLTObject@@PAU?$TVector3@M@@@Z 004a6050 f   shared_iltphysics.obj
 0001:000a50c0       ?GetAcceleration@ILTPhysics@@UAEIPAVLTObject@@PAU?$TVector3@M@@@Z 004a60c0 f   shared_iltphysics.obj
 0001:000a5130       ?GetStandingOn@ILTPhysics@@UAEIPAVLTObject@@PAUCollisionInfo@@@Z 004a6130 f   shared_iltphysics.obj
 0001:000a5240       ?Get@CLTTransform@@UAEIAAVLTransform@@AAU?$TVector3@M@@AAULTRotation@@@Z 004a6240 f   transformlt_impl.obj
 0001:000a5280       ?Set@CLTTransform@@UAEIAAVLTransform@@AAU?$TVector3@M@@AAULTRotation@@@Z 004a6280 f   transformlt_impl.obj
 0001:000a52c0       ?GetPos@CLTTransform@@UAEIAAVLTransform@@AAU?$TVector3@M@@@Z 004a62c0 f   transformlt_impl.obj
 0001:000a52e0       ?GetRot@CLTTransform@@UAEIAAVLTransform@@AAULTRotation@@@Z 004a62e0 f   transformlt_impl.obj
 0001:000a5310       ?Multiply@CLTTransform@@UAEIAAVLTransform@@00@Z 004a6310 f   transformlt_impl.obj
 0001:000a5380       ?GetScale@LTMatrix@@QBE?AU?$TVector3@M@@XZ 004a6380 f i transformlt_impl.obj
 0001:000a5400       ?Normalize@LTMatrix@@QAEXXZ 004a6400 f i transformlt_impl.obj
 0001:000a5520       ?_InterfaceImplementation@CLTTransform@@UAEPBDXZ 004a6520 f i transformlt_impl.obj
 0001:000a5530       ?_TransformToMatrix@@YAXAAVLTransform@@AAULTMatrix@@@Z 004a6530 f i transformlt_impl.obj
 0001:000a55b0       ?_TransformFromMatrix@@YAXAAVLTransform@@AAULTMatrix@@@Z 004a65b0 f i transformlt_impl.obj
 0001:000a5650       ?ToMatrix@CLTTransform@@UAEIAAVLTransform@@AAULTMatrix@@@Z 004a6650 f   transformlt_impl.obj
 0001:000a5670       ?FromMatrix@CLTTransform@@UAEIAAVLTransform@@AAULTMatrix@@@Z 004a6670 f   transformlt_impl.obj
 0001:000a5690       ?Inverse@CLTTransform@@UAEIAAVLTransform@@0@Z 004a6690 f   transformlt_impl.obj
 0001:000a56d0       ?Difference@CLTTransform@@UAEIAAVLTransform@@00@Z 004a66d0 f   transformlt_impl.obj
 0001:000a5750       ?GetSoundDuration@CLTSoundMgrServer@@UAEIPAUHLTSOUND_t@@AAM@Z 004a6750 f   server_iltsoundmgr.obj
 0001:000a57c0       ?IsSoundDone@CLTSoundMgrServer@@UAEIPAUHLTSOUND_t@@AA_N@Z 004a67c0 f   server_iltsoundmgr.obj
 0001:000a5820       ?KillSound@CLTSoundMgrServer@@UAEIPAUHLTSOUND_t@@@Z 004a6820 f   server_iltsoundmgr.obj
 0001:000a58c0       ?KillSoundLoop@CLTSoundMgrServer@@UAEIPAUHLTSOUND_t@@@Z 004a68c0 f   server_iltsoundmgr.obj
 0001:000a5970       ?PlaySoundA@CLTSoundMgrServer@@UAEIPAUPlaySoundInfo@@AAPAUHLTSOUND_t@@@Z 004a6970 f   server_iltsoundmgr.obj
 0001:000a5c90       ?_InterfaceImplementation@CLTSoundMgrServer@@UAEPBDXZ 004a6c90 f i server_iltsoundmgr.obj
 0001:000a5ca0       ?SoundSys@@YAPAVILTSoundSys@@_N@Z 004a6ca0 f   soundmgr.obj
 0001:000a5d40       ?GetClientILTSoundMgrImpl@@YAPAVCSoundMgr@@XZ 004a6d40 f   soundmgr.obj
 0001:000a5d50       ?Get3DProviderLists@CSoundMgr@@AAEIAAPAUCProvider@@_NI@Z 004a6d50 f   soundmgr.obj
 0001:000a5ef0       ?Set3DProvider@CSoundMgr@@AAEIPAD@Z 004a6ef0 f   soundmgr.obj
 0001:000a5fa0       ?GetDirectSound@CSoundMgr@@QAEPAUIDirectSound8@@XZ 004a6fa0 f   soundmgr.obj
 0001:000a5fe0       ?StopAllSounds@CSoundMgr@@QAEIXZ 004a6fe0 f   soundmgr.obj
 0001:000a6020       ?FindSoundInstance@CSoundMgr@@QAEPAVCSoundInstance@@PAUHLTSOUND_t@@_N@Z 004a7020 f   soundmgr.obj
 0001:000a6090       ?CompareSoundInstances@CSoundMgr@@SAHPBX0@Z 004a7090 f   soundmgr.obj
 0001:000a6160       ?SetListenerDoppler@CSoundMgr@@UAEIM@Z 004a7160 f   soundmgr.obj
 0001:000a6190       ?SetVolume@CSoundMgr@@UAEIG@Z 004a7190 f   soundmgr.obj
 0001:000a61d0       ?GetVolume@CSoundMgr@@UAEIAAG@Z 004a71d0 f   soundmgr.obj
 0001:000a6210       ?GetVolumeMultiplier@CSoundMgr@@UAEIAAM@Z 004a7210 f   soundmgr.obj
 0001:000a6230       ?LinkSampleSoundInstance@CSoundMgr@@QAEIPAXPAVCSoundInstance@@@Z 004a7230 f   soundmgr.obj
 0001:000a6270       ?Link3DSampleSoundInstance@CSoundMgr@@QAEIPAXPAVCSoundInstance@@@Z 004a7270 f   soundmgr.obj
 0001:000a62b0       ?LinkStreamSoundInstance@CSoundMgr@@QAEIPAXPAVCSoundInstance@@@Z 004a72b0 f   soundmgr.obj
 0001:000a62f0       ?ReleaseSWSample@CSoundMgr@@QAEXPAX@Z 004a72f0 f   soundmgr.obj
 0001:000a6340       ?Release3DSample@CSoundMgr@@QAEXPAX@Z 004a7340 f   soundmgr.obj
 0001:000a6390       ?UntagAllSoundBuffers@CSoundMgr@@QAEIXZ 004a7390 f   soundmgr.obj
 0001:000a63d0       ?SetListener@CSoundMgr@@QAEI_NPAU?$TVector3@M@@110@Z 004a73d0 f   soundmgr.obj
 0001:000a64d0       ?ReleaseDigitalHandle@CSoundMgr@@QAEIXZ 004a74d0 f   soundmgr.obj
 0001:000a6530       ?ReacquireDigitalHandle@CSoundMgr@@QAEIXZ 004a7530 f   soundmgr.obj
 0001:000a6590       ?PauseSounds@CSoundMgr@@UAEIXZ 004a7590 f   soundmgr.obj
 0001:000a65d0       ?ResumeSounds@CSoundMgr@@UAEIXZ 004a75d0 f   soundmgr.obj
 0001:000a6610       ?SetSoundClassMultiplier@CSoundMgr@@UAEIEM_N@Z 004a7610 f   soundmgr.obj
 0001:000a6680       ?GetSoundClassMultiplier@CSoundMgr@@UAEIEPAM@Z 004a7680 f   soundmgr.obj
 0001:000a66c0       ?GetSoundClassUseGlobalVolume@CSoundMgr@@QAEIEPA_N@Z 004a76c0 f   soundmgr.obj
 0001:000a6700       ?UpdateVolumeSettings@CSoundMgr@@UAEIXZ 004a7700 f   soundmgr.obj
 0001:000a6750       ?GetSoundDuration@CSoundMgr@@UAEIPAUHLTSOUND_t@@AAM@Z 004a7750 f   soundmgr.obj
 0001:000a6860       ?IsSoundDone@CSoundMgr@@UAEIPAUHLTSOUND_t@@AA_N@Z 004a7860 f   soundmgr.obj
 0001:000a6890       ?KillSoundLoop@CSoundMgr@@UAEIPAUHLTSOUND_t@@@Z 004a7890 f   soundmgr.obj
 0001:000a68c0       ?GetSound3DProviderLists@CSoundMgr@@UAEIAAPAUSound3DProvider@@_NI@Z 004a78c0 f   soundmgr.obj
 0001:000a6970       ?ReleaseSound3DProviderList@CSoundMgr@@UAEIPAUSound3DProvider@@@Z 004a7970 f   soundmgr.obj
 0001:000a69a0       ?SetSoundOcclusion@CSoundMgr@@UAEIPAUHLTSOUND_t@@M@Z 004a79a0 f   soundmgr.obj
 0001:000a6a40       ?GetSoundOcclusion@CSoundMgr@@UAEIPAUHLTSOUND_t@@PAM@Z 004a7a40 f   soundmgr.obj
 0001:000a6ae0       ?SetSoundObstruction@CSoundMgr@@UAEIPAUHLTSOUND_t@@M@Z 004a7ae0 f   soundmgr.obj
 0001:000a6b80       ?GetSoundObstruction@CSoundMgr@@UAEIPAUHLTSOUND_t@@PAM@Z 004a7b80 f   soundmgr.obj
 0001:000a6c20       ?GetSoundPosition@CSoundMgr@@UAEIPAUHLTSOUND_t@@PAU?$TVector3@M@@@Z 004a7c20 f   soundmgr.obj
 0001:000a6d10       ?SetSoundPosition@CSoundMgr@@UAEIPAUHLTSOUND_t@@PAU?$TVector3@M@@@Z 004a7d10 f   soundmgr.obj
 0001:000a6db0       ?SetListener@CSoundMgr@@UAEI_NPAU?$TVector3@M@@PAULTRotation@@0@Z 004a7db0 f   soundmgr.obj
 0001:000a6e70       ?SetSoundFilter@CSoundMgr@@UAEIPBD@Z 004a7e70 f   soundmgr.obj
 0001:000a6f00       ?SetSoundFilterParam@CSoundMgr@@UAEIPBDM@Z 004a7f00 f   soundmgr.obj
 0001:000a6fb0       ?EnableSoundFilter@CSoundMgr@@UAEI_N@Z 004a7fb0 f   soundmgr.obj
 0001:000a7030       ??1?$ObjectBank@VCSoundBuffer@@VNullCS@@@@UAE@XZ 004a8030 f i soundmgr.obj
 0001:000a7080       ?Init@?$ObjectBank@VCSoundBuffer@@VNullCS@@@@QAEXII@Z 004a8080 f i soundmgr.obj
 0001:000a70b0       ?Term@?$ObjectBank@VCSoundBuffer@@VNullCS@@@@UAEXXZ 004a80b0 f i soundmgr.obj
 0001:000a70d0       ??1?$ObjectBank@VCLocalSoundInstance@@VNullCS@@@@UAE@XZ 004a80d0 f i soundmgr.obj
 0001:000a7120       ?Init@?$ObjectBank@VCLocalSoundInstance@@VNullCS@@@@QAEXII@Z 004a8120 f i soundmgr.obj
 0001:000a7120       ?Init@?$ObjectBank@VCAmbientSoundInstance@@VNullCS@@@@QAEXII@Z 004a8120 f i soundmgr.obj
 0001:000a7150       ?Free@?$ObjectBank@VCSoundBuffer@@VNullCS@@@@QAEXPAVCSoundBuffer@@@Z 004a8150 f i soundbuffer.obj
 0001:000a7150       ?FreeVoid@?$ObjectBank@VWorldModelInstance@@VNullCS@@@@UAEXPAX@Z 004a8150 f i clientmgr.obj
 0001:000a7150       ?Free@?$ObjectBank@VCAmbientSoundInstance@@VNullCS@@@@QAEXPAVCAmbientSoundInstance@@@Z 004a8150 f i soundmgr.obj
 0001:000a7150       ?FreeVoid@?$ObjectBank@VCSoundBuffer@@VNullCS@@@@UAEXPAX@Z 004a8150 f i soundmgr.obj
 0001:000a7150       ?FreeVoid@?$ObjectBank@VCAmbientSoundInstance@@VNullCS@@@@UAEXPAX@Z 004a8150 f i soundmgr.obj
 0001:000a7150       ?FreeVoid@?$ObjectBank@VModelInstance@@VNullCS@@@@UAEXPAX@Z 004a8150 f i clientmgr.obj
 0001:000a7150       ?FreeVoid@?$ObjectBank@VCLTMessage_Write_Client@@VNullCS@@@@UAEXPAX@Z 004a8150 f i ltmessage_client.obj
 0001:000a7150       ?FreeVoid@?$ObjectBank@VLTObject@@VNullCS@@@@UAEXPAX@Z 004a8150 f i clientmgr.obj
 0001:000a7150       ?FreeVoid@?$ObjectBank@VCLocalSoundInstance@@VNullCS@@@@UAEXPAX@Z 004a8150 f i soundmgr.obj
 0001:000a7150       ?Free@?$ObjectBank@VCLocalSoundInstance@@VNullCS@@@@QAEXPAVCLocalSoundInstance@@@Z 004a8150 f i soundmgr.obj
 0001:000a7150       ?FreeVoid@?$ObjectBank@VCLTMessage_Read_Client@@VNullCS@@@@UAEXPAX@Z 004a8150 f i ltmessage_client.obj
 0001:000a7150       ?FreeVoid@?$ObjectBank@VCTextureStringImage@@VNullCS@@@@UAEXPAX@Z 004a8150 f i texturestringimage.obj
 0001:000a7150       ?FreeVoid@?$ObjectBank@VContainerInstance@@VNullCS@@@@UAEXPAX@Z 004a8150 f i clientmgr.obj
 0001:000a7150       ?FreeVoid@?$ObjectBank@VLTParticleSystem@@VNullCS@@@@UAEXPAX@Z 004a8150 f i clientmgr.obj
 0001:000a7150       ?FreeVoid@?$ObjectBank@VSpriteInstance@@VNullCS@@@@UAEXPAX@Z 004a8150 f i clientmgr.obj
 0001:000a7150       ?FreeVoid@?$ObjectBank@VLTPolyGrid@@VNullCS@@@@UAEXPAX@Z 004a8150 f i clientmgr.obj
 0001:000a7150       ?FreeVoid@?$ObjectBank@VCLTMessage_Read_Server@@VNullCS@@@@UAEXPAX@Z 004a8150 f i ltmessage_server.obj
 0001:000a7150       ?Free@?$ObjectBank@VC3DSoundInstance@@VNullCS@@@@QAEXPAVC3DSoundInstance@@@Z 004a8150 f i soundmgr.obj
 0001:000a7150       ?FreeVoid@?$ObjectBank@VC3DSoundInstance@@VNullCS@@@@UAEXPAX@Z 004a8150 f i soundmgr.obj
 0001:000a7150       ?FreeVoid@?$ObjectBank@VCameraInstance@@VNullCS@@@@UAEXPAX@Z 004a8150 f i clientmgr.obj
 0001:000a7150       ?FreeVoid@?$ObjectBank@VLineSystem@@VNullCS@@@@UAEXPAX@Z 004a8150 f i clientmgr.obj
 0001:000a7150       ?FreeVoid@?$ObjectBank@VCanvas@@VNullCS@@@@UAEXPAX@Z 004a8150 f i clientmgr.obj
 0001:000a7150       ?FreeVoid@?$ObjectBank@VDynamicLight@@VNullCS@@@@UAEXPAX@Z 004a8150 f i clientmgr.obj
 0001:000a7150       ?FreeVoid@?$ObjectBank@VLTVolumeEffect@@VNullCS@@@@UAEXPAX@Z 004a8150 f i clientmgr.obj
 0001:000a7150       ?FreeVoid@?$ObjectBank@VCLTMessage_Write_Server@@VNullCS@@@@UAEXPAX@Z 004a8150 f i ltmessage_server.obj
 0001:000a7170       ??1?$ObjectBank@VCAmbientSoundInstance@@VNullCS@@@@UAE@XZ 004a8170 f i soundmgr.obj
 0001:000a71c0       ?Allocate@?$ObjectBank@VCAmbientSoundInstance@@VNullCS@@@@QAEPAVCAmbientSoundInstance@@XZ 004a81c0 f i soundmgr.obj
 0001:000a7240       ?Term@?$ObjectBank@VCLocalSoundInstance@@VNullCS@@@@UAEXXZ 004a8240 f i soundmgr.obj
 0001:000a7240       ?Term@?$ObjectBank@VCAmbientSoundInstance@@VNullCS@@@@UAEXXZ 004a8240 f i soundmgr.obj
 0001:000a7260       ??1?$ObjectBank@VC3DSoundInstance@@VNullCS@@@@UAE@XZ 004a8260 f i soundmgr.obj
 0001:000a72b0       ?Init@?$ObjectBank@VC3DSoundInstance@@VNullCS@@@@QAEXII@Z 004a82b0 f i soundmgr.obj
 0001:000a72e0       ?Allocate@?$ObjectBank@VC3DSoundInstance@@VNullCS@@@@QAEPAVC3DSoundInstance@@XZ 004a82e0 f i soundmgr.obj
 0001:000a7360       ?Term@?$ObjectBank@VC3DSoundInstance@@VNullCS@@@@UAEXXZ 004a8360 f i soundmgr.obj
 0001:000a7380       ??_G?$ObjectBank@VCSoundBuffer@@VNullCS@@@@UAEPAXI@Z 004a8380 f i soundmgr.obj
 0001:000a7380       ??_E?$ObjectBank@VCSoundBuffer@@VNullCS@@@@UAEPAXI@Z 004a8380 f i soundmgr.obj
 0001:000a73a0       ??_E?$ObjectBank@VCLocalSoundInstance@@VNullCS@@@@UAEPAXI@Z 004a83a0 f i soundmgr.obj
 0001:000a73a0       ??_G?$ObjectBank@VCLocalSoundInstance@@VNullCS@@@@UAEPAXI@Z 004a83a0 f i soundmgr.obj
 0001:000a73c0       ??_G?$ObjectBank@VCAmbientSoundInstance@@VNullCS@@@@UAEPAXI@Z 004a83c0 f i soundmgr.obj
 0001:000a73c0       ??_E?$ObjectBank@VCAmbientSoundInstance@@VNullCS@@@@UAEPAXI@Z 004a83c0 f i soundmgr.obj
 0001:000a73e0       ??_G?$ObjectBank@VC3DSoundInstance@@VNullCS@@@@UAEPAXI@Z 004a83e0 f i soundmgr.obj
 0001:000a73e0       ??_E?$ObjectBank@VC3DSoundInstance@@VNullCS@@@@UAEPAXI@Z 004a83e0 f i soundmgr.obj
 0001:000a7400       ?Remove3DSamples@CSoundMgr@@AAEIXZ 004a8400 f   soundmgr.obj
 0001:000a74d0       ?RemoveSWSamples@CSoundMgr@@AAEIXZ 004a84d0 f   soundmgr.obj
 0001:000a7590       ?CreateBuffer@CSoundMgr@@QAEPAVCSoundBuffer@@AAUFileIdentifier@@@Z 004a8590 f   soundmgr.obj
 0001:000a7630       ?RemoveBuffer@CSoundMgr@@AAEIAAVCSoundBuffer@@@Z 004a8630 f   soundmgr.obj
 0001:000a76e0       ?RemoveInstance@CSoundMgr@@QAEIAAVCSoundInstance@@@Z 004a86e0 f   soundmgr.obj
 0001:000a77a0       ?GetFreeSWSample@CSoundMgr@@QAEPAXXZ 004a87a0 f   soundmgr.obj
 0001:000a77e0       ?GetFree3DSample@CSoundMgr@@QAEPAXPAVCSoundInstance@@@Z 004a87e0 f   soundmgr.obj
 0001:000a7960       ?RemoveAllUnusedSoundInstances@CSoundMgr@@QAEIXZ 004a8960 f   soundmgr.obj
 0001:000a79c0       ?KillSound@CSoundMgr@@UAEIPAUHLTSOUND_t@@@Z 004a89c0 f   soundmgr.obj
 0001:000a79f0       ?AllocVoid@?$ObjectBank@VCSoundBuffer@@VNullCS@@@@UAEPAXXZ 004a89f0 f i soundmgr.obj
 0001:000a7a00       ?AllocVoid@?$ObjectBank@VCAmbientSoundInstance@@VNullCS@@@@UAEPAXXZ 004a8a00 f i soundmgr.obj
 0001:000a7a10       ?AllocVoid@?$ObjectBank@VC3DSoundInstance@@VNullCS@@@@UAEPAXXZ 004a8a10 f i soundmgr.obj
 0001:000a7a20       ??0?$ObjectBank@VCSoundBuffer@@VNullCS@@@@QAE@XZ 004a8a20 f i soundmgr.obj
 0001:000a7a70       ??0?$ObjectBank@VCLocalSoundInstance@@VNullCS@@@@QAE@XZ 004a8a70 f i soundmgr.obj
 0001:000a7ac0       ?Allocate@?$ObjectBank@VCLocalSoundInstance@@VNullCS@@@@QAEPAVCLocalSoundInstance@@XZ 004a8ac0 f i soundmgr.obj
 0001:000a7b40       ??0?$ObjectBank@VCAmbientSoundInstance@@VNullCS@@@@QAE@XZ 004a8b40 f i soundmgr.obj
 0001:000a7b90       ??0?$ObjectBank@VC3DSoundInstance@@VNullCS@@@@QAE@XZ 004a8b90 f i soundmgr.obj
 0001:000a7be0       ??_ECLocalSoundInstance@@UAEPAXI@Z 004a8be0 f i soundmgr.obj
 0001:000a7be0       ??_GCLocalSoundInstance@@UAEPAXI@Z 004a8be0 f i soundmgr.obj
 0001:000a7c00       ??1CLocalSoundInstance@@UAE@XZ 004a8c00 f i soundmgr.obj
 0001:000a7c10       ?Term@CSoundMgr@@QAEX_N@Z  004a8c10 f   soundmgr.obj
 0001:000a7dd0       ?Create3DSamples@CSoundMgr@@AAEIXZ 004a8dd0 f   soundmgr.obj
 0001:000a7f70       ?CreateSWSamples@CSoundMgr@@AAEIXZ 004a8f70 f   soundmgr.obj
 0001:000a8110       ?PlaySoundA@CSoundMgr@@QAEIAAUPlaySoundInfo@@AAUFileIdentifier@@I@Z 004a9110 f   soundmgr.obj
 0001:000a82b0       ?RemoveAllUntaggedSoundBuffers@CSoundMgr@@QAEIXZ 004a92b0 f   soundmgr.obj
 0001:000a8310       ?PlaySoundA@CSoundMgr@@UAEIPAUPlaySoundInfo@@AAPAUHLTSOUND_t@@@Z 004a9310 f   soundmgr.obj
 0001:000a8400       ?AllocVoid@?$ObjectBank@VCLocalSoundInstance@@VNullCS@@@@UAEPAXXZ 004a9400 f i soundmgr.obj
 0001:000a8410       ??0CSoundMgr@@QAE@XZ       004a9410 f   soundmgr.obj
 0001:000a86e0       ?_InterfaceImplementation@CSoundMgr@@UAEPBDXZ 004a96e0 f i soundmgr.obj
 0001:000a86f0       ??1CSoundMgr@@QAE@XZ       004a96f0 f   soundmgr.obj
 0001:000a87d0       ?Init@CSoundMgr@@QAEIAAUInitSoundInfo@@@Z 004a97d0 f   soundmgr.obj
 0001:000a8d10       ?Update@CSoundMgr@@QAEIXZ  004a9d10 f   soundmgr.obj
 0001:000a94b0       ?InitSound@CSoundMgr@@UAEIPAUInitSoundInfo@@@Z 004aa4b0 f   soundmgr.obj
 0001:000a9500       ?StartOnScreenVideo@CLTVideoMgr@@UAEIPBDIAAPAVVideoInst@@@Z 004aa500 f   client_iltvideomgr.obj
 0001:000a95b0       ?_InterfaceImplementation@CLTVideoMgr@@UAEPBDXZ 004aa5b0 f i client_iltvideomgr.obj
 0001:000a95c0       ?UpdateVideo@CLTVideoMgr@@UAEIPAVVideoInst@@@Z 004aa5c0 f   client_iltvideomgr.obj
 0001:000a9670       ?GetVideoStatus@CLTVideoMgr@@UAEIPAVVideoInst@@@Z 004aa670 f   client_iltvideomgr.obj
 0001:000a9720       ?StopVideo@CLTVideoMgr@@UAEIPAVVideoInst@@@Z 004aa720 f   client_iltvideomgr.obj
 0001:000a9803       ?init_D3DXFloat32To16Array@@YGPAUD3DXFLOAT16@@PAU1@PBMI@Z 004aa803 f   d3dx9:d3dxmath.obj
 0001:000a9816       _D3DXFloat32To16Array@12   004aa816 f   d3dx9:d3dxmath.obj
 0001:000a981c       ?c_D3DXFloat32To16Array@@YGPAUD3DXFLOAT16@@PAU1@PBMI@Z 004aa81c f   d3dx9:d3dxmath.obj
 0001:000a98be       ?init_D3DXFloat16To32Array@@YGPAMPAMPBUD3DXFLOAT16@@I@Z 004aa8be f   d3dx9:d3dxmath.obj
 0001:000a98d1       _D3DXFloat16To32Array@12   004aa8d1 f   d3dx9:d3dxmath.obj
 0001:000a98d7       ?c_D3DXFloat16To32Array@@YGPAMPAMPBUD3DXFLOAT16@@I@Z 004aa8d7 f   d3dx9:d3dxmath.obj
 0001:000a997e       ?init_D3DXVec2Normalize@@YGPAUD3DXVECTOR2@@PAU1@PBU1@@Z 004aa97e f   d3dx9:d3dxmath.obj
 0001:000a9991       ?init_D3DXVec2Hermite@@YGPAUD3DXVECTOR2@@PAU1@PBU1@111M@Z 004aa991 f   d3dx9:d3dxmath.obj
 0001:000a99bd       ?c_D3DXVec2Hermite@@YGPAUD3DXVECTOR2@@PAU1@PBU1@111M@Z 004aa9bd f   d3dx9:d3dxmath.obj
 0001:000a9a4d       ?init_D3DXVec2CatmullRom@@YGPAUD3DXVECTOR2@@PAU1@PBU1@111M@Z 004aaa4d f   d3dx9:d3dxmath.obj
 0001:000a9a79       ?c_D3DXVec2CatmullRom@@YGPAUD3DXVECTOR2@@PAU1@PBU1@111M@Z 004aaa79 f   d3dx9:d3dxmath.obj
 0001:000a9b2a       ?init_D3DXVec2BaryCentric@@YGPAUD3DXVECTOR2@@PAU1@PBU1@11MM@Z 004aab2a f   d3dx9:d3dxmath.obj
 0001:000a9b5b       ?c_D3DXVec2BaryCentric@@YGPAUD3DXVECTOR2@@PAU1@PBU1@11MM@Z 004aab5b f   d3dx9:d3dxmath.obj
 0001:000a9ba0       ?init_D3DXVec2Transform@@YGPAUD3DXVECTOR4@@PAU1@PBUD3DXVECTOR2@@PBUD3DXMATRIX@@@Z 004aaba0 f   d3dx9:d3dxmath.obj
 0001:000a9bb3       _D3DXVec2Transform@12      004aabb3 f   d3dx9:d3dxmath.obj
 0001:000a9bb9       ?init_D3DXVec2TransformArray@@YGPAUD3DXVECTOR4@@PAU1@IPBUD3DXVECTOR2@@IPBUD3DXMATRIX@@I@Z 004aabb9 f   d3dx9:d3dxmath.obj
 0001:000a9bcc       ?init_D3DXVec2TransformCoord@@YGPAUD3DXVECTOR2@@PAU1@PBU1@PBUD3DXMATRIX@@@Z 004aabcc f   d3dx9:d3dxmath.obj
 0001:000a9bdf       _D3DXVec2TransformCoord@12 004aabdf f   d3dx9:d3dxmath.obj
 0001:000a9be5       ?init_D3DXVec2TransformCoordArray@@YGPAUD3DXVECTOR2@@PAU1@IPBU1@IPBUD3DXMATRIX@@I@Z 004aabe5 f   d3dx9:d3dxmath.obj
 0001:000a9bf8       ?init_D3DXVec2TransformNormal@@YGPAUD3DXVECTOR2@@PAU1@PBU1@PBUD3DXMATRIX@@@Z 004aabf8 f   d3dx9:d3dxmath.obj
 0001:000a9c0b       _D3DXVec2TransformNormal@12 004aac0b f   d3dx9:d3dxmath.obj
 0001:000a9c11       ?c_D3DXVec2TransformNormal@@YGPAUD3DXVECTOR2@@PAU1@PBU1@PBUD3DXMATRIX@@@Z 004aac11 f   d3dx9:d3dxmath.obj
 0001:000a9c4f       ?init_D3DXVec2TransformNormalArray@@YGPAUD3DXVECTOR2@@PAU1@IPBU1@IPBUD3DXMATRIX@@I@Z 004aac4f f   d3dx9:d3dxmath.obj
 0001:000a9c62       ?c_D3DXVec2TransformNormalArray@@YGPAUD3DXVECTOR2@@PAU1@IPBU1@IPBUD3DXMATRIX@@I@Z 004aac62 f   d3dx9:d3dxmath.obj
 0001:000a9cb8       ?init_D3DXVec3Normalize@@YGPAUD3DXVECTOR3@@PAU1@PBU1@@Z 004aacb8 f   d3dx9:d3dxmath.obj
 0001:000a9ccb       _D3DXVec3Normalize@8       004aaccb f   d3dx9:d3dxmath.obj
 0001:000a9cd1       ?init_D3DXVec3Hermite@@YGPAUD3DXVECTOR3@@PAU1@PBU1@111M@Z 004aacd1 f   d3dx9:d3dxmath.obj
 0001:000a9cfd       ?c_D3DXVec3Hermite@@YGPAUD3DXVECTOR3@@PAU1@PBU1@111M@Z 004aacfd f   d3dx9:d3dxmath.obj
 0001:000a9dad       ?init_D3DXVec3CatmullRom@@YGPAUD3DXVECTOR3@@PAU1@PBU1@111M@Z 004aadad f   d3dx9:d3dxmath.obj
 0001:000a9dd9       ?c_D3DXVec3CatmullRom@@YGPAUD3DXVECTOR3@@PAU1@PBU1@111M@Z 004aadd9 f   d3dx9:d3dxmath.obj
 0001:000a9eac       ?init_D3DXVec3BaryCentric@@YGPAUD3DXVECTOR3@@PAU1@PBU1@11MM@Z 004aaeac f   d3dx9:d3dxmath.obj
 0001:000a9edd       ?c_D3DXVec3BaryCentric@@YGPAUD3DXVECTOR3@@PAU1@PBU1@11MM@Z 004aaedd f   d3dx9:d3dxmath.obj
 0001:000a9f3c       ?init_D3DXVec3Transform@@YGPAUD3DXVECTOR4@@PAU1@PBUD3DXVECTOR3@@PBUD3DXMATRIX@@@Z 004aaf3c f   d3dx9:d3dxmath.obj
 0001:000a9f4f       _D3DXVec3Transform@12      004aaf4f f   d3dx9:d3dxmath.obj
 0001:000a9f55       ?c_D3DXVec3Transform@@YGPAUD3DXVECTOR4@@PAU1@PBUD3DXVECTOR3@@PBUD3DXMATRIX@@@Z 004aaf55 f   d3dx9:d3dxmath.obj
 0001:000a9fe2       ?init_D3DXVec3TransformArray@@YGPAUD3DXVECTOR4@@PAU1@IPBUD3DXVECTOR3@@IPBUD3DXMATRIX@@I@Z 004aafe2 f   d3dx9:d3dxmath.obj
 0001:000a9ff5       ?c_D3DXVec3TransformArray@@YGPAUD3DXVECTOR4@@PAU1@IPBUD3DXVECTOR3@@IPBUD3DXMATRIX@@I@Z 004aaff5 f   d3dx9:d3dxmath.obj
 0001:000aa09e       ?init_D3DXVec3TransformCoord@@YGPAUD3DXVECTOR3@@PAU1@PBU1@PBUD3DXMATRIX@@@Z 004ab09e f   d3dx9:d3dxmath.obj
 0001:000aa0b1       _D3DXVec3TransformCoord@12 004ab0b1 f   d3dx9:d3dxmath.obj
 0001:000aa0b7       ?init_D3DXVec3TransformCoordArray@@YGPAUD3DXVECTOR3@@PAU1@IPBU1@IPBUD3DXMATRIX@@I@Z 004ab0b7 f   d3dx9:d3dxmath.obj
 0001:000aa0ca       _D3DXVec3TransformCoordArray@24 004ab0ca f   d3dx9:d3dxmath.obj
 0001:000aa0d0       ?c_D3DXVec3TransformCoordArray@@YGPAUD3DXVECTOR3@@PAU1@IPBU1@IPBUD3DXMATRIX@@I@Z 004ab0d0 f   d3dx9:d3dxmath.obj
 0001:000aa1b1       ?init_D3DXVec3TransformNormal@@YGPAUD3DXVECTOR3@@PAU1@PBU1@PBUD3DXMATRIX@@@Z 004ab1b1 f   d3dx9:d3dxmath.obj
 0001:000aa1c4       _D3DXVec3TransformNormal@12 004ab1c4 f   d3dx9:d3dxmath.obj
 0001:000aa1ca       ?c_D3DXVec3TransformNormal@@YGPAUD3DXVECTOR3@@PAU1@PBU1@PBUD3DXMATRIX@@@Z 004ab1ca f   d3dx9:d3dxmath.obj
 0001:000aa232       ?init_D3DXVec3TransformNormalArray@@YGPAUD3DXVECTOR3@@PAU1@IPBU1@IPBUD3DXMATRIX@@I@Z 004ab232 f   d3dx9:d3dxmath.obj
 0001:000aa245       ?c_D3DXVec3TransformNormalArray@@YGPAUD3DXVECTOR3@@PAU1@IPBU1@IPBUD3DXMATRIX@@I@Z 004ab245 f   d3dx9:d3dxmath.obj
 0001:000aa2c5       ?init_D3DXVec3Project@@YGPAUD3DXVECTOR3@@PAU1@PBU1@PBU_D3DVIEWPORT9@@PBUD3DXMATRIX@@33@Z 004ab2c5 f   d3dx9:d3dxmath.obj
 0001:000aa2d8       ?init_D3DXVec3ProjectArray@@YGPAUD3DXVECTOR3@@PAU1@IPBU1@IPBU_D3DVIEWPORT9@@PBUD3DXMATRIX@@33I@Z 004ab2d8 f   d3dx9:d3dxmath.obj
 0001:000aa2eb       ?init_D3DXVec3Unproject@@YGPAUD3DXVECTOR3@@PAU1@PBU1@PBU_D3DVIEWPORT9@@PBUD3DXMATRIX@@33@Z 004ab2eb f   d3dx9:d3dxmath.obj
 0001:000aa2fe       ?init_D3DXVec3UnprojectArray@@YGPAUD3DXVECTOR3@@PAU1@IPBU1@IPBU_D3DVIEWPORT9@@PBUD3DXMATRIX@@33I@Z 004ab2fe f   d3dx9:d3dxmath.obj
 0001:000aa311       ?init_D3DXVec4Cross@@YGPAUD3DXVECTOR4@@PAU1@PBU1@11@Z 004ab311 f   d3dx9:d3dxmath.obj
 0001:000aa324       ?c_D3DXVec4Cross@@YGPAUD3DXVECTOR4@@PAU1@PBU1@11@Z 004ab324 f   d3dx9:d3dxmath.obj
 0001:000aa416       ?init_D3DXVec4Normalize@@YGPAUD3DXVECTOR4@@PAU1@PBU1@@Z 004ab416 f   d3dx9:d3dxmath.obj
 0001:000aa429       ?init_D3DXVec4Hermite@@YGPAUD3DXVECTOR4@@PAU1@PBU1@111M@Z 004ab429 f   d3dx9:d3dxmath.obj
 0001:000aa455       ?c_D3DXVec4Hermite@@YGPAUD3DXVECTOR4@@PAU1@PBU1@111M@Z 004ab455 f   d3dx9:d3dxmath.obj
 0001:000aa528       ?init_D3DXVec4CatmullRom@@YGPAUD3DXVECTOR4@@PAU1@PBU1@111M@Z 004ab528 f   d3dx9:d3dxmath.obj
 0001:000aa554       ?c_D3DXVec4CatmullRom@@YGPAUD3DXVECTOR4@@PAU1@PBU1@111M@Z 004ab554 f   d3dx9:d3dxmath.obj
 0001:000aa649       ?init_D3DXVec4BaryCentric@@YGPAUD3DXVECTOR4@@PAU1@PBU1@11MM@Z 004ab649 f   d3dx9:d3dxmath.obj
 0001:000aa67a       ?c_D3DXVec4BaryCentric@@YGPAUD3DXVECTOR4@@PAU1@PBU1@11MM@Z 004ab67a f   d3dx9:d3dxmath.obj
 0001:000aa6f3       ?init_D3DXVec4Transform@@YGPAUD3DXVECTOR4@@PAU1@PBU1@PBUD3DXMATRIX@@@Z 004ab6f3 f   d3dx9:d3dxmath.obj
 0001:000aa706       ?c_D3DXVec4Transform@@YGPAUD3DXVECTOR4@@PAU1@PBU1@PBUD3DXMATRIX@@@Z 004ab706 f   d3dx9:d3dxmath.obj
 0001:000aa7a7       ?init_D3DXVec4TransformArray@@YGPAUD3DXVECTOR4@@PAU1@IPBU1@IPBUD3DXMATRIX@@I@Z 004ab7a7 f   d3dx9:d3dxmath.obj
 0001:000aa7ba       ?c_D3DXVec4TransformArray@@YGPAUD3DXVECTOR4@@PAU1@IPBU1@IPBUD3DXMATRIX@@I@Z 004ab7ba f   d3dx9:d3dxmath.obj
 0001:000aa87b       ?init_D3DXMatrixDeterminant@@YGMPBUD3DXMATRIX@@@Z 004ab87b f   d3dx9:d3dxmath.obj
 0001:000aa88e       _D3DXMatrixDeterminant@4   004ab88e f   d3dx9:d3dxmath.obj
 0001:000aa894       ?c_D3DXMatrixDeterminant@@YGMPBUD3DXMATRIX@@@Z 004ab894 f   d3dx9:d3dxmath.obj
 0001:000aa960       ?init_D3DXMatrixDecompose@@YGJPAUD3DXVECTOR3@@PAUD3DXQUATERNION@@0PBUD3DXMATRIX@@@Z 004ab960 f   d3dx9:d3dxmath.obj
 0001:000aa973       ?init_D3DXMatrixMultiply@@YGPAUD3DXMATRIX@@PAU1@PBU1@1@Z 004ab973 f   d3dx9:d3dxmath.obj
 0001:000aa986       _D3DXMatrixMultiply@12     004ab986 f   d3dx9:d3dxmath.obj
 0001:000aa98c       ?c_D3DXMatrixMultiply@@YGPAUD3DXMATRIX@@PAU1@PBU1@1@Z 004ab98c f   d3dx9:d3dxmath.obj
 0001:000aabc4       ?init_D3DXMatrixTranspose@@YGPAUD3DXMATRIX@@PAU1@PBU1@@Z 004abbc4 f   d3dx9:d3dxmath.obj
 0001:000aabd7       _D3DXMatrixTranspose@8     004abbd7 f   d3dx9:d3dxmath.obj
 0001:000aabdd       ?c_D3DXMatrixTranspose@@YGPAUD3DXMATRIX@@PAU1@PBU1@@Z 004abbdd f   d3dx9:d3dxmath.obj
 0001:000aac4e       ?init_D3DXMatrixMultiplyTranspose@@YGPAUD3DXMATRIX@@PAU1@PBU1@1@Z 004abc4e f   d3dx9:d3dxmath.obj
 0001:000aac61       ?c_D3DXMatrixMultiplyTranspose@@YGPAUD3DXMATRIX@@PAU1@PBU1@1@Z 004abc61 f   d3dx9:d3dxmath.obj
 0001:000aae99       ?init_D3DXMatrixInverse@@YGPAUD3DXMATRIX@@PAU1@PAMPBU1@@Z 004abe99 f   d3dx9:d3dxmath.obj
 0001:000aaeac       _D3DXMatrixInverse@12      004abeac f   d3dx9:d3dxmath.obj
 0001:000aaeb2       ?c_D3DXMatrixInverse@@YGPAUD3DXMATRIX@@PAU1@PAMPBU1@@Z 004abeb2 f   d3dx9:d3dxmath.obj
 0001:000ab259       ?init_D3DXMatrixScaling@@YGPAUD3DXMATRIX@@PAU1@MMM@Z 004ac259 f   d3dx9:d3dxmath.obj
 0001:000ab289       ?c_D3DXMatrixScaling@@YGPAUD3DXMATRIX@@PAU1@MMM@Z 004ac289 f   d3dx9:d3dxmath.obj
 0001:000ab2e7       ?init_D3DXMatrixTranslation@@YGPAUD3DXMATRIX@@PAU1@MMM@Z 004ac2e7 f   d3dx9:d3dxmath.obj
 0001:000ab317       ?c_D3DXMatrixTranslation@@YGPAUD3DXMATRIX@@PAU1@MMM@Z 004ac317 f   d3dx9:d3dxmath.obj
 0001:000ab375       ?init_D3DXMatrixRotationX@@YGPAUD3DXMATRIX@@PAU1@M@Z 004ac375 f   d3dx9:d3dxmath.obj
 0001:000ab395       ?c_D3DXMatrixRotationX@@YGPAUD3DXMATRIX@@PAU1@M@Z 004ac395 f   d3dx9:d3dxmath.obj
 0001:000ab411       ?init_D3DXMatrixRotationY@@YGPAUD3DXMATRIX@@PAU1@M@Z 004ac411 f   d3dx9:d3dxmath.obj
 0001:000ab431       ?c_D3DXMatrixRotationY@@YGPAUD3DXMATRIX@@PAU1@M@Z 004ac431 f   d3dx9:d3dxmath.obj
 0001:000ab4ae       ?init_D3DXMatrixRotationZ@@YGPAUD3DXMATRIX@@PAU1@M@Z 004ac4ae f   d3dx9:d3dxmath.obj
 0001:000ab4ce       _D3DXMatrixRotationZ@8     004ac4ce f   d3dx9:d3dxmath.obj
 0001:000ab4d4       ?c_D3DXMatrixRotationZ@@YGPAUD3DXMATRIX@@PAU1@M@Z 004ac4d4 f   d3dx9:d3dxmath.obj
 0001:000ab552       ?init_D3DXMatrixRotationAxis@@YGPAUD3DXMATRIX@@PAU1@PBUD3DXVECTOR3@@M@Z 004ac552 f   d3dx9:d3dxmath.obj
 0001:000ab575       ?c_D3DXMatrixRotationAxis@@YGPAUD3DXMATRIX@@PAU1@PBUD3DXVECTOR3@@M@Z 004ac575 f   d3dx9:d3dxmath.obj
 0001:000ab676       ?init_D3DXMatrixRotationQuaternion@@YGPAUD3DXMATRIX@@PAU1@PBUD3DXQUATERNION@@@Z 004ac676 f   d3dx9:d3dxmath.obj
 0001:000ab689       _D3DXMatrixRotationQuaternion@8 004ac689 f   d3dx9:d3dxmath.obj
 0001:000ab68f       ?c_D3DXMatrixRotationQuaternion@@YGPAUD3DXMATRIX@@PAU1@PBUD3DXQUATERNION@@@Z 004ac68f f   d3dx9:d3dxmath.obj
 0001:000ab773       ?init_D3DXMatrixRotationYawPitchRoll@@YGPAUD3DXMATRIX@@PAU1@MMM@Z 004ac773 f   d3dx9:d3dxmath.obj
 0001:000ab7a3       ?init_D3DXMatrixTransformation@@YGPAUD3DXMATRIX@@PAU1@PBUD3DXVECTOR3@@PBUD3DXQUATERNION@@1121@Z 004ac7a3 f   d3dx9:d3dxmath.obj
 0001:000ab7b6       ?c_D3DXMatrixTransformation@@YGPAUD3DXMATRIX@@PAU1@PBUD3DXVECTOR3@@PBUD3DXQUATERNION@@1121@Z 004ac7b6 f   d3dx9:d3dxmath.obj
 0001:000abac2       ?init_D3DXMatrixTransformation2D@@YGPAUD3DXMATRIX@@PAU1@PBUD3DXVECTOR2@@M11M1@Z 004acac2 f   d3dx9:d3dxmath.obj
 0001:000abaf5       ?c_D3DXMatrixTransformation2D@@YGPAUD3DXMATRIX@@PAU1@PBUD3DXVECTOR2@@M11M1@Z 004acaf5 f   d3dx9:d3dxmath.obj
 0001:000abdee       ?init_D3DXMatrixAffineTransformation@@YGPAUD3DXMATRIX@@PAU1@MPBUD3DXVECTOR3@@PBUD3DXQUATERNION@@1@Z 004acdee f   d3dx9:d3dxmath.obj
 0001:000abe17       ?c_D3DXMatrixAffineTransformation@@YGPAUD3DXMATRIX@@PAU1@MPBUD3DXVECTOR3@@PBUD3DXQUATERNION@@1@Z 004ace17 f   d3dx9:d3dxmath.obj
 0001:000abf07       ?init_D3DXMatrixAffineTransformation2D@@YGPAUD3DXMATRIX@@PAU1@MPBUD3DXVECTOR2@@M1@Z 004acf07 f   d3dx9:d3dxmath.obj
 0001:000abf34       ?c_D3DXMatrixAffineTransformation2D@@YGPAUD3DXMATRIX@@PAU1@MPBUD3DXVECTOR2@@M1@Z 004acf34 f   d3dx9:d3dxmath.obj
 0001:000ac01b       _D3DXMatrixLookAtLH@16     004ad01b f   d3dx9:d3dxmath.obj
 0001:000ac173       _D3DXMatrixPerspectiveLH@20 004ad173 f   d3dx9:d3dxmath.obj
 0001:000ac1e1       _D3DXMatrixPerspectiveFovLH@20 004ad1e1 f   d3dx9:d3dxmath.obj
 0001:000ac277       _D3DXMatrixOrthoLH@20      004ad277 f   d3dx9:d3dxmath.obj
 0001:000ac2ed       ?init_D3DXMatrixShadow@@YGPAUD3DXMATRIX@@PAU1@PBUD3DXVECTOR4@@PBUD3DXPLANE@@@Z 004ad2ed f   d3dx9:d3dxmath.obj
 0001:000ac300       ?init_D3DXMatrixReflect@@YGPAUD3DXMATRIX@@PAU1@PBUD3DXPLANE@@@Z 004ad300 f   d3dx9:d3dxmath.obj
 0001:000ac313       ?init_D3DXQuaternionToAxisAngle@@YGXPBUD3DXQUATERNION@@PAUD3DXVECTOR3@@PAM@Z 004ad313 f   d3dx9:d3dxmath.obj
 0001:000ac326       ?c_D3DXQuaternionToAxisAngle@@YGXPBUD3DXQUATERNION@@PAUD3DXVECTOR3@@PAM@Z 004ad326 f   d3dx9:d3dxmath.obj
 0001:000ac35e       ?init_D3DXQuaternionRotationMatrix@@YGPAUD3DXQUATERNION@@PAU1@PBUD3DXMATRIX@@@Z 004ad35e f   d3dx9:d3dxmath.obj
 0001:000ac371       _D3DXQuaternionRotationMatrix@8 004ad371 f   d3dx9:d3dxmath.obj
 0001:000ac377       ?c_D3DXQuaternionRotationMatrix@@YGPAUD3DXQUATERNION@@PAU1@PBUD3DXMATRIX@@@Z 004ad377 f   d3dx9:d3dxmath.obj
 0001:000ac4ad       ?init_D3DXQuaternionRotationAxis@@YGPAUD3DXQUATERNION@@PAU1@PBUD3DXVECTOR3@@M@Z 004ad4ad f   d3dx9:d3dxmath.obj
 0001:000ac4d0       ?c_D3DXQuaternionRotationAxis@@YGPAUD3DXQUATERNION@@PAU1@PBUD3DXVECTOR3@@M@Z 004ad4d0 f   d3dx9:d3dxmath.obj
 0001:000ac52e       ?init_D3DXQuaternionRotationYawPitchRoll@@YGPAUD3DXQUATERNION@@PAU1@MMM@Z 004ad52e f   d3dx9:d3dxmath.obj
 0001:000ac55e       _D3DXQuaternionRotationYawPitchRoll@16 004ad55e f   d3dx9:d3dxmath.obj
 0001:000ac564       ?c_D3DXQuaternionRotationYawPitchRoll@@YGPAUD3DXQUATERNION@@PAU1@MMM@Z 004ad564 f   d3dx9:d3dxmath.obj
 0001:000ac63f       ?init_D3DXQuaternionMultiply@@YGPAUD3DXQUATERNION@@PAU1@PBU1@1@Z 004ad63f f   d3dx9:d3dxmath.obj
 0001:000ac652       _D3DXQuaternionMultiply@12 004ad652 f   d3dx9:d3dxmath.obj
 0001:000ac658       ?c_D3DXQuaternionMultiply@@YGPAUD3DXQUATERNION@@PAU1@PBU1@1@Z 004ad658 f   d3dx9:d3dxmath.obj
 0001:000ac6f0       ?init_D3DXQuaternionNormalize@@YGPAUD3DXQUATERNION@@PAU1@PBU1@@Z 004ad6f0 f   d3dx9:d3dxmath.obj
 0001:000ac703       ?init_D3DXQuaternionInverse@@YGPAUD3DXQUATERNION@@PAU1@PBU1@@Z 004ad703 f   d3dx9:d3dxmath.obj
 0001:000ac716       _D3DXQuaternionInverse@8   004ad716 f   d3dx9:d3dxmath.obj
 0001:000ac71c       ?c_D3DXQuaternionInverse@@YGPAUD3DXQUATERNION@@PAU1@PBU1@@Z 004ad71c f   d3dx9:d3dxmath.obj
 0001:000ac7cf       ?init_D3DXQuaternionLn@@YGPAUD3DXQUATERNION@@PAU1@PBU1@@Z 004ad7cf f   d3dx9:d3dxmath.obj
 0001:000ac7e2       _D3DXQuaternionLn@8        004ad7e2 f   d3dx9:d3dxmath.obj
 0001:000ac7e8       ?c_D3DXQuaternionLn@@YGPAUD3DXQUATERNION@@PAU1@PBU1@@Z 004ad7e8 f   d3dx9:d3dxmath.obj
 0001:000ac865       ?init_D3DXQuaternionExp@@YGPAUD3DXQUATERNION@@PAU1@PBU1@@Z 004ad865 f   d3dx9:d3dxmath.obj
 0001:000ac878       _D3DXQuaternionExp@8       004ad878 f   d3dx9:d3dxmath.obj
 0001:000ac87e       ?c_D3DXQuaternionExp@@YGPAUD3DXQUATERNION@@PAU1@PBU1@@Z 004ad87e f   d3dx9:d3dxmath.obj
 0001:000ac918       ?init_D3DXQuaternionSlerp@@YGPAUD3DXQUATERNION@@PAU1@PBU1@1M@Z 004ad918 f   d3dx9:d3dxmath.obj
 0001:000ac93e       _D3DXQuaternionSlerp@16    004ad93e f   d3dx9:d3dxmath.obj
 0001:000ac944       ?c_D3DXQuaternionSlerp@@YGPAUD3DXQUATERNION@@PAU1@PBU1@1M@Z 004ad944 f   d3dx9:d3dxmath.obj
 0001:000aca29       ?init_D3DXQuaternionSquad@@YGPAUD3DXQUATERNION@@PAU1@PBU1@111M@Z 004ada29 f   d3dx9:d3dxmath.obj
 0001:000aca55       ?c_D3DXQuaternionSquad@@YGPAUD3DXQUATERNION@@PAU1@PBU1@111M@Z 004ada55 f   d3dx9:d3dxmath.obj
 0001:000acaae       ?init_D3DXQuaternionSquadSetup@@YGXPAUD3DXQUATERNION@@00PBU1@111@Z 004adaae f   d3dx9:d3dxmath.obj
 0001:000acac1       ?init_D3DXQuaternionBaryCentric@@YGPAUD3DXQUATERNION@@PAU1@PBU1@11MM@Z 004adac1 f   d3dx9:d3dxmath.obj
 0001:000acaf2       ?c_D3DXQuaternionBaryCentric@@YGPAUD3DXQUATERNION@@PAU1@PBU1@11MM@Z 004adaf2 f   d3dx9:d3dxmath.obj
 0001:000acb7c       ?init_D3DXPlaneNormalize@@YGPAUD3DXPLANE@@PAU1@PBU1@@Z 004adb7c f   d3dx9:d3dxmath.obj
 0001:000acb8f       _D3DXPlaneNormalize@8      004adb8f f   d3dx9:d3dxmath.obj
 0001:000acb95       ?c_D3DXPlaneNormalize@@YGPAUD3DXPLANE@@PAU1@PBU1@@Z 004adb95 f   d3dx9:d3dxmath.obj
 0001:000acc38       ?init_D3DXPlaneIntersectLine@@YGPAUD3DXVECTOR3@@PAU1@PBUD3DXPLANE@@PBU1@2@Z 004adc38 f   d3dx9:d3dxmath.obj
 0001:000acc4b       ?c_D3DXPlaneIntersectLine@@YGPAUD3DXVECTOR3@@PAU1@PBUD3DXPLANE@@PBU1@2@Z 004adc4b f   d3dx9:d3dxmath.obj
 0001:000acd01       ?init_D3DXPlaneFromPointNormal@@YGPAUD3DXPLANE@@PAU1@PBUD3DXVECTOR3@@1@Z 004add01 f   d3dx9:d3dxmath.obj
 0001:000acd14       ?c_D3DXPlaneFromPointNormal@@YGPAUD3DXPLANE@@PAU1@PBUD3DXVECTOR3@@1@Z 004add14 f   d3dx9:d3dxmath.obj
 0001:000acd4f       ?init_D3DXPlaneFromPoints@@YGPAUD3DXPLANE@@PAU1@PBUD3DXVECTOR3@@11@Z 004add4f f   d3dx9:d3dxmath.obj
 0001:000acd62       ?c_D3DXPlaneFromPoints@@YGPAUD3DXPLANE@@PAU1@PBUD3DXVECTOR3@@11@Z 004add62 f   d3dx9:d3dxmath.obj
 0001:000ace06       ?init_D3DXPlaneTransform@@YGPAUD3DXPLANE@@PAU1@PBU1@PBUD3DXMATRIX@@@Z 004ade06 f   d3dx9:d3dxmath.obj
 0001:000ace19       ?c_D3DXPlaneTransform@@YGPAUD3DXPLANE@@PAU1@PBU1@PBUD3DXMATRIX@@@Z 004ade19 f   d3dx9:d3dxmath.obj
 0001:000aceba       ?init_D3DXPlaneTransformArray@@YGPAUD3DXPLANE@@PAU1@IPBU1@IPBUD3DXMATRIX@@I@Z 004adeba f   d3dx9:d3dxmath.obj
 0001:000acecd       ?c_D3DXPlaneTransformArray@@YGPAUD3DXPLANE@@PAU1@IPBU1@IPBUD3DXMATRIX@@I@Z 004adecd f   d3dx9:d3dxmath.obj
 0001:000acf8e       ?D3DXPerlinNoise@@YGMPBUD3DXVECTOR3@@@Z 004adf8e f   d3dx9:d3dxmath.obj
 0001:000ad1f9       ?init_D3DXPSGPUpdateSkinnedMesh@@YGXPBUD3DXMATRIX@@0PAE1KKPAPAE21KPAM@Z 004ae1f9 f   d3dx9:d3dxmath.obj
 0001:000ad20c       ?init_D3DXPSGPTessellateNPatch@@YGXPAUD3DXVECTOR3@@PAUD3DXVECTOR2@@KPAM222K@Z 004ae20c f   d3dx9:d3dxmath.obj
